Archive member included to satisfy reference by file (symbol)

c:/intelfpga_pro/18.1/nios2eds/bin/gnu/h-x86_64-mingw32/bin/../lib/gcc/nios2-elf/7.3.1\libgcc.a(_muldi3.o)
                              obj/default/ethernet.o (__muldi3)
c:/intelfpga_pro/18.1/nios2eds/bin/gnu/h-x86_64-mingw32/bin/../lib/gcc/nios2-elf/7.3.1\libgcc.a(_bswapsi2.o)
                              obj/default/fmc/common_drivers/fru_tools/fru_tools.o (__bswapsi2)
c:/intelfpga_pro/18.1/nios2eds/bin/gnu/h-x86_64-mingw32/bin/../lib/gcc/nios2-elf/7.3.1\libgcc.a(_fixunsdfsi.o)
                              obj/default/fmc/common_drivers/xcvr_core/xcvr_modules/altera_a10_fpll.o (__fixunsdfsi)
c:/intelfpga_pro/18.1/nios2eds/bin/gnu/h-x86_64-mingw32/bin/../lib/gcc/nios2-elf/7.3.1\libgcc.a(_fixunsdfdi.o)
                              obj/default/fmc/common_drivers/xcvr_core/xcvr_modules/altera_a10_atx_pll.o (__fixunsdfdi)
c:/intelfpga_pro/18.1/nios2eds/bin/gnu/h-x86_64-mingw32/bin/../lib/gcc/nios2-elf/7.3.1\libgcc.a(_udivdi3.o)
                              obj/default/fmc/common_drivers/dac_core/dac_core.o (__udivdi3)
c:/intelfpga_pro/18.1/nios2eds/bin/gnu/h-x86_64-mingw32/bin/../lib/gcc/nios2-elf/7.3.1\libgcc.a(_umoddi3.o)
                              obj/default/fmc/common_drivers/platform_drivers/platform_drivers.o (__umoddi3)
c:/intelfpga_pro/18.1/nios2eds/bin/gnu/h-x86_64-mingw32/bin/../lib/gcc/nios2-elf/7.3.1\libgcc.a(lib2-divmod.o)
                              c:/intelfpga_pro/18.1/nios2eds/bin/gnu/h-x86_64-mingw32/bin/../lib/gcc/nios2-elf/7.3.1\libgcc.a(_udivdi3.o) (__divsi3)
c:/intelfpga_pro/18.1/nios2eds/bin/gnu/h-x86_64-mingw32/bin/../lib/gcc/nios2-elf/7.3.1\libgcc.a(adddf3.o)
                              obj/default/fmc/common_drivers/xcvr_core/xcvr_modules/altera_a10_atx_pll.o (__adddf3)
c:/intelfpga_pro/18.1/nios2eds/bin/gnu/h-x86_64-mingw32/bin/../lib/gcc/nios2-elf/7.3.1\libgcc.a(divdf3.o)
                              obj/default/fmc/common_drivers/xcvr_core/xcvr_modules/altera_a10_atx_pll.o (__divdf3)
c:/intelfpga_pro/18.1/nios2eds/bin/gnu/h-x86_64-mingw32/bin/../lib/gcc/nios2-elf/7.3.1\libgcc.a(gedf2.o)
                              c:/intelfpga_pro/18.1/nios2eds/bin/gnu/h-x86_64-mingw32/bin/../lib/gcc/nios2-elf/7.3.1\libgcc.a(_fixunsdfsi.o) (__gedf2)
c:/intelfpga_pro/18.1/nios2eds/bin/gnu/h-x86_64-mingw32/bin/../lib/gcc/nios2-elf/7.3.1\libgcc.a(muldf3.o)
                              c:/intelfpga_pro/18.1/nios2eds/bin/gnu/h-x86_64-mingw32/bin/../lib/gcc/nios2-elf/7.3.1\libgcc.a(_fixunsdfdi.o) (__muldf3)
c:/intelfpga_pro/18.1/nios2eds/bin/gnu/h-x86_64-mingw32/bin/../lib/gcc/nios2-elf/7.3.1\libgcc.a(subdf3.o)
                              c:/intelfpga_pro/18.1/nios2eds/bin/gnu/h-x86_64-mingw32/bin/../lib/gcc/nios2-elf/7.3.1\libgcc.a(_fixunsdfsi.o) (__subdf3)
c:/intelfpga_pro/18.1/nios2eds/bin/gnu/h-x86_64-mingw32/bin/../lib/gcc/nios2-elf/7.3.1\libgcc.a(fixdfsi.o)
                              c:/intelfpga_pro/18.1/nios2eds/bin/gnu/h-x86_64-mingw32/bin/../lib/gcc/nios2-elf/7.3.1\libgcc.a(_fixunsdfsi.o) (__fixdfsi)
c:/intelfpga_pro/18.1/nios2eds/bin/gnu/h-x86_64-mingw32/bin/../lib/gcc/nios2-elf/7.3.1\libgcc.a(floatunsidf.o)
                              obj/default/fmc/common_drivers/xcvr_core/xcvr_modules/altera_a10_atx_pll.o (__floatunsidf)
c:/intelfpga_pro/18.1/nios2eds/bin/gnu/h-x86_64-mingw32/bin/../lib/gcc/nios2-elf/7.3.1\libgcc.a(extendsfdf2.o)
                              obj/default/jesd204b.o (__extendsfdf2)
c:/intelfpga_pro/18.1/nios2eds/bin/gnu/h-x86_64-mingw32/bin/../lib/gcc/nios2-elf/7.3.1\libgcc.a(_clz.o)
                              c:/intelfpga_pro/18.1/nios2eds/bin/gnu/h-x86_64-mingw32/bin/../lib/gcc/nios2-elf/7.3.1\libgcc.a(_udivdi3.o) (__clz_tab)
c:/intelfpga_pro/18.1/nios2eds/bin/gnu/h-x86_64-mingw32/bin/../lib/gcc/nios2-elf/7.3.1\libgcc.a(_clzsi2.o)
                              c:/intelfpga_pro/18.1/nios2eds/bin/gnu/h-x86_64-mingw32/bin/../lib/gcc/nios2-elf/7.3.1\libgcc.a(adddf3.o) (__clzsi2)
c:/intelfpga_pro/18.1/nios2eds/bin/gnu/h-x86_64-mingw32/bin/../lib/gcc/nios2-elf/7.3.1/../../../../../H-x86_64-mingw32/nios2-elf/lib\libc.a(lib_a-calloc.o)
                              obj/default/fmc/common_drivers/fru_tools/fru_tools.o (calloc)
c:/intelfpga_pro/18.1/nios2eds/bin/gnu/h-x86_64-mingw32/bin/../lib/gcc/nios2-elf/7.3.1/../../../../../H-x86_64-mingw32/nios2-elf/lib\libc.a(lib_a-callocr.o)
                              c:/intelfpga_pro/18.1/nios2eds/bin/gnu/h-x86_64-mingw32/bin/../lib/gcc/nios2-elf/7.3.1/../../../../../H-x86_64-mingw32/nios2-elf/lib\libc.a(lib_a-calloc.o) (_calloc_r)
c:/intelfpga_pro/18.1/nios2eds/bin/gnu/h-x86_64-mingw32/bin/../lib/gcc/nios2-elf/7.3.1/../../../../../H-x86_64-mingw32/nios2-elf/lib\libc.a(lib_a-getc.o)
                              obj/default/fmc/common_drivers/platform_drivers/platform_drivers.o (getc)
c:/intelfpga_pro/18.1/nios2eds/bin/gnu/h-x86_64-mingw32/bin/../lib/gcc/nios2-elf/7.3.1/../../../../../H-x86_64-mingw32/nios2-elf/lib\libc.a(lib_a-impure.o)
                              obj/default/fmc/common_drivers/platform_drivers/platform_drivers.o (_impure_ptr)
c:/intelfpga_pro/18.1/nios2eds/bin/gnu/h-x86_64-mingw32/bin/../lib/gcc/nios2-elf/7.3.1/../../../../../H-x86_64-mingw32/nios2-elf/lib\libc.a(lib_a-locale.o)
                              obj/default/fmc/common_drivers/fru_tools/fru_tools.o (__locale_ctype_ptr)
c:/intelfpga_pro/18.1/nios2eds/bin/gnu/h-x86_64-mingw32/bin/../lib/gcc/nios2-elf/7.3.1/../../../../../H-x86_64-mingw32/nios2-elf/lib\libc.a(lib_a-malloc.o)
                              obj/default/fmc/ad9144/ad9144.o (malloc)
c:/intelfpga_pro/18.1/nios2eds/bin/gnu/h-x86_64-mingw32/bin/../lib/gcc/nios2-elf/7.3.1/../../../../../H-x86_64-mingw32/nios2-elf/lib\libc.a(lib_a-mallocr.o)
                              c:/intelfpga_pro/18.1/nios2eds/bin/gnu/h-x86_64-mingw32/bin/../lib/gcc/nios2-elf/7.3.1/../../../../../H-x86_64-mingw32/nios2-elf/lib\libc.a(lib_a-callocr.o) (_malloc_r)
c:/intelfpga_pro/18.1/nios2eds/bin/gnu/h-x86_64-mingw32/bin/../lib/gcc/nios2-elf/7.3.1/../../../../../H-x86_64-mingw32/nios2-elf/lib\libc.a(lib_a-mbtowc_r.o)
                              c:/intelfpga_pro/18.1/nios2eds/bin/gnu/h-x86_64-mingw32/bin/../lib/gcc/nios2-elf/7.3.1/../../../../../H-x86_64-mingw32/nios2-elf/lib\libc.a(lib_a-locale.o) (__ascii_mbtowc)
c:/intelfpga_pro/18.1/nios2eds/bin/gnu/h-x86_64-mingw32/bin/../lib/gcc/nios2-elf/7.3.1/../../../../../H-x86_64-mingw32/nios2-elf/lib\libc.a(lib_a-memcpy.o)
                              obj/default/ethernet.o (memcpy)
c:/intelfpga_pro/18.1/nios2eds/bin/gnu/h-x86_64-mingw32/bin/../lib/gcc/nios2-elf/7.3.1/../../../../../H-x86_64-mingw32/nios2-elf/lib\libc.a(lib_a-memset.o)
                              obj/default/ethernet.o (memset)
c:/intelfpga_pro/18.1/nios2eds/bin/gnu/h-x86_64-mingw32/bin/../lib/gcc/nios2-elf/7.3.1/../../../../../H-x86_64-mingw32/nios2-elf/lib\libc.a(lib_a-mktime.o)
                              obj/default/fmc/common_drivers/fru_tools/fru_tools.o (mktime)
c:/intelfpga_pro/18.1/nios2eds/bin/gnu/h-x86_64-mingw32/bin/../lib/gcc/nios2-elf/7.3.1/../../../../../H-x86_64-mingw32/nios2-elf/lib\libc.a(lib_a-printf.o)
                              obj/default/ethernet.o (printf)
c:/intelfpga_pro/18.1/nios2eds/bin/gnu/h-x86_64-mingw32/bin/../lib/gcc/nios2-elf/7.3.1/../../../../../H-x86_64-mingw32/nios2-elf/lib\libc.a(lib_a-putchar.o)
                              obj/default/fmc/common_drivers/fru_tools/fru_tools.o (putchar)
c:/intelfpga_pro/18.1/nios2eds/bin/gnu/h-x86_64-mingw32/bin/../lib/gcc/nios2-elf/7.3.1/../../../../../H-x86_64-mingw32/nios2-elf/lib\libc.a(lib_a-puts.o)
                              obj/default/ethernet.o (puts)
c:/intelfpga_pro/18.1/nios2eds/bin/gnu/h-x86_64-mingw32/bin/../lib/gcc/nios2-elf/7.3.1/../../../../../H-x86_64-mingw32/nios2-elf/lib\libc.a(lib_a-rget.o)
                              c:/intelfpga_pro/18.1/nios2eds/bin/gnu/h-x86_64-mingw32/bin/../lib/gcc/nios2-elf/7.3.1/../../../../../H-x86_64-mingw32/nios2-elf/lib\libc.a(lib_a-getc.o) (__srget_r)
c:/intelfpga_pro/18.1/nios2eds/bin/gnu/h-x86_64-mingw32/bin/../lib/gcc/nios2-elf/7.3.1/../../../../../H-x86_64-mingw32/nios2-elf/lib\libc.a(lib_a-sbrkr.o)
                              c:/intelfpga_pro/18.1/nios2eds/bin/gnu/h-x86_64-mingw32/bin/../lib/gcc/nios2-elf/7.3.1/../../../../../H-x86_64-mingw32/nios2-elf/lib\libc.a(lib_a-mallocr.o) (_sbrk_r)
c:/intelfpga_pro/18.1/nios2eds/bin/gnu/h-x86_64-mingw32/bin/../lib/gcc/nios2-elf/7.3.1/../../../../../H-x86_64-mingw32/nios2-elf/lib\libc.a(lib_a-sprintf.o)
                              obj/default/fmc/common_drivers/fru_tools/fru_tools.o (sprintf)
c:/intelfpga_pro/18.1/nios2eds/bin/gnu/h-x86_64-mingw32/bin/../lib/gcc/nios2-elf/7.3.1/../../../../../H-x86_64-mingw32/nios2-elf/lib\libc.a(lib_a-strcmp.o)
                              c:/intelfpga_pro/18.1/nios2eds/bin/gnu/h-x86_64-mingw32/bin/../lib/gcc/nios2-elf/7.3.1/../../../../../H-x86_64-mingw32/nios2-elf/lib\libc.a(lib_a-locale.o) (strcmp)
c:/intelfpga_pro/18.1/nios2eds/bin/gnu/h-x86_64-mingw32/bin/../lib/gcc/nios2-elf/7.3.1/../../../../../H-x86_64-mingw32/nios2-elf/lib\libc.a(lib_a-strcpy.o)
                              obj/default/fmc/common_drivers/fru_tools/fru_tools.o (strcpy)
c:/intelfpga_pro/18.1/nios2eds/bin/gnu/h-x86_64-mingw32/bin/../lib/gcc/nios2-elf/7.3.1/../../../../../H-x86_64-mingw32/nios2-elf/lib\libc.a(lib_a-strlen.o)
                              obj/default/fmc/common_drivers/fru_tools/fru_tools.o (strlen)
c:/intelfpga_pro/18.1/nios2eds/bin/gnu/h-x86_64-mingw32/bin/../lib/gcc/nios2-elf/7.3.1/../../../../../H-x86_64-mingw32/nios2-elf/lib\libc.a(lib_a-svfprintf.o)
                              c:/intelfpga_pro/18.1/nios2eds/bin/gnu/h-x86_64-mingw32/bin/../lib/gcc/nios2-elf/7.3.1/../../../../../H-x86_64-mingw32/nios2-elf/lib\libc.a(lib_a-sprintf.o) (___svfprintf_internal_r)
c:/intelfpga_pro/18.1/nios2eds/bin/gnu/h-x86_64-mingw32/bin/../lib/gcc/nios2-elf/7.3.1/../../../../../H-x86_64-mingw32/nios2-elf/lib\libc.a(lib_a-tzcalc_limits.o)
                              c:/intelfpga_pro/18.1/nios2eds/bin/gnu/h-x86_64-mingw32/bin/../lib/gcc/nios2-elf/7.3.1/../../../../../H-x86_64-mingw32/nios2-elf/lib\libc.a(lib_a-mktime.o) (__tzcalc_limits)
c:/intelfpga_pro/18.1/nios2eds/bin/gnu/h-x86_64-mingw32/bin/../lib/gcc/nios2-elf/7.3.1/../../../../../H-x86_64-mingw32/nios2-elf/lib\libc.a(lib_a-tzlock.o)
                              c:/intelfpga_pro/18.1/nios2eds/bin/gnu/h-x86_64-mingw32/bin/../lib/gcc/nios2-elf/7.3.1/../../../../../H-x86_64-mingw32/nios2-elf/lib\libc.a(lib_a-mktime.o) (__tz_lock)
c:/intelfpga_pro/18.1/nios2eds/bin/gnu/h-x86_64-mingw32/bin/../lib/gcc/nios2-elf/7.3.1/../../../../../H-x86_64-mingw32/nios2-elf/lib\libc.a(lib_a-tzset.o)
                              c:/intelfpga_pro/18.1/nios2eds/bin/gnu/h-x86_64-mingw32/bin/../lib/gcc/nios2-elf/7.3.1/../../../../../H-x86_64-mingw32/nios2-elf/lib\libc.a(lib_a-mktime.o) (_tzset_unlocked)
c:/intelfpga_pro/18.1/nios2eds/bin/gnu/h-x86_64-mingw32/bin/../lib/gcc/nios2-elf/7.3.1/../../../../../H-x86_64-mingw32/nios2-elf/lib\libc.a(lib_a-tzset_r.o)
                              c:/intelfpga_pro/18.1/nios2eds/bin/gnu/h-x86_64-mingw32/bin/../lib/gcc/nios2-elf/7.3.1/../../../../../H-x86_64-mingw32/nios2-elf/lib\libc.a(lib_a-tzset.o) (_tzset_unlocked_r)
c:/intelfpga_pro/18.1/nios2eds/bin/gnu/h-x86_64-mingw32/bin/../lib/gcc/nios2-elf/7.3.1/../../../../../H-x86_64-mingw32/nios2-elf/lib\libc.a(lib_a-tzvars.o)
                              c:/intelfpga_pro/18.1/nios2eds/bin/gnu/h-x86_64-mingw32/bin/../lib/gcc/nios2-elf/7.3.1/../../../../../H-x86_64-mingw32/nios2-elf/lib\libc.a(lib_a-tzset_r.o) (_timezone)
c:/intelfpga_pro/18.1/nios2eds/bin/gnu/h-x86_64-mingw32/bin/../lib/gcc/nios2-elf/7.3.1/../../../../../H-x86_64-mingw32/nios2-elf/lib\libc.a(lib_a-vfprintf.o)
                              c:/intelfpga_pro/18.1/nios2eds/bin/gnu/h-x86_64-mingw32/bin/../lib/gcc/nios2-elf/7.3.1/../../../../../H-x86_64-mingw32/nios2-elf/lib\libc.a(lib_a-printf.o) (___vfprintf_internal_r)
c:/intelfpga_pro/18.1/nios2eds/bin/gnu/h-x86_64-mingw32/bin/../lib/gcc/nios2-elf/7.3.1/../../../../../H-x86_64-mingw32/nios2-elf/lib\libc.a(lib_a-wctomb_r.o)
                              c:/intelfpga_pro/18.1/nios2eds/bin/gnu/h-x86_64-mingw32/bin/../lib/gcc/nios2-elf/7.3.1/../../../../../H-x86_64-mingw32/nios2-elf/lib\libc.a(lib_a-locale.o) (__ascii_wctomb)
c:/intelfpga_pro/18.1/nios2eds/bin/gnu/h-x86_64-mingw32/bin/../lib/gcc/nios2-elf/7.3.1/../../../../../H-x86_64-mingw32/nios2-elf/lib\libc.a(lib_a-wsetup.o)
                              c:/intelfpga_pro/18.1/nios2eds/bin/gnu/h-x86_64-mingw32/bin/../lib/gcc/nios2-elf/7.3.1/../../../../../H-x86_64-mingw32/nios2-elf/lib\libc.a(lib_a-vfprintf.o) (__swsetup_r)
c:/intelfpga_pro/18.1/nios2eds/bin/gnu/h-x86_64-mingw32/bin/../lib/gcc/nios2-elf/7.3.1/../../../../../H-x86_64-mingw32/nios2-elf/lib\libc.a(lib_a-ctype_.o)
                              c:/intelfpga_pro/18.1/nios2eds/bin/gnu/h-x86_64-mingw32/bin/../lib/gcc/nios2-elf/7.3.1/../../../../../H-x86_64-mingw32/nios2-elf/lib\libc.a(lib_a-locale.o) (_ctype_b)
c:/intelfpga_pro/18.1/nios2eds/bin/gnu/h-x86_64-mingw32/bin/../lib/gcc/nios2-elf/7.3.1/../../../../../H-x86_64-mingw32/nios2-elf/lib\libc.a(lib_a-div.o)
                              c:/intelfpga_pro/18.1/nios2eds/bin/gnu/h-x86_64-mingw32/bin/../lib/gcc/nios2-elf/7.3.1/../../../../../H-x86_64-mingw32/nios2-elf/lib\libc.a(lib_a-mktime.o) (div)
c:/intelfpga_pro/18.1/nios2eds/bin/gnu/h-x86_64-mingw32/bin/../lib/gcc/nios2-elf/7.3.1/../../../../../H-x86_64-mingw32/nios2-elf/lib\libc.a(lib_a-dtoa.o)
                              c:/intelfpga_pro/18.1/nios2eds/bin/gnu/h-x86_64-mingw32/bin/../lib/gcc/nios2-elf/7.3.1/../../../../../H-x86_64-mingw32/nios2-elf/lib\libc.a(lib_a-svfprintf.o) (_dtoa_r)
c:/intelfpga_pro/18.1/nios2eds/bin/gnu/h-x86_64-mingw32/bin/../lib/gcc/nios2-elf/7.3.1/../../../../../H-x86_64-mingw32/nios2-elf/lib\libc.a(lib_a-fflush.o)
                              c:/intelfpga_pro/18.1/nios2eds/bin/gnu/h-x86_64-mingw32/bin/../lib/gcc/nios2-elf/7.3.1/../../../../../H-x86_64-mingw32/nios2-elf/lib\libc.a(lib_a-vfprintf.o) (_fflush_r)
c:/intelfpga_pro/18.1/nios2eds/bin/gnu/h-x86_64-mingw32/bin/../lib/gcc/nios2-elf/7.3.1/../../../../../H-x86_64-mingw32/nios2-elf/lib\libc.a(lib_a-findfp.o)
                              c:/intelfpga_pro/18.1/nios2eds/bin/gnu/h-x86_64-mingw32/bin/../lib/gcc/nios2-elf/7.3.1/../../../../../H-x86_64-mingw32/nios2-elf/lib\libc.a(lib_a-getc.o) (__sinit)
c:/intelfpga_pro/18.1/nios2eds/bin/gnu/h-x86_64-mingw32/bin/../lib/gcc/nios2-elf/7.3.1/../../../../../H-x86_64-mingw32/nios2-elf/lib\libc.a(lib_a-freer.o)
                              c:/intelfpga_pro/18.1/nios2eds/bin/gnu/h-x86_64-mingw32/bin/../lib/gcc/nios2-elf/7.3.1/../../../../../H-x86_64-mingw32/nios2-elf/lib\libc.a(lib_a-malloc.o) (_free_r)
c:/intelfpga_pro/18.1/nios2eds/bin/gnu/h-x86_64-mingw32/bin/../lib/gcc/nios2-elf/7.3.1/../../../../../H-x86_64-mingw32/nios2-elf/lib\libc.a(lib_a-fvwrite.o)
                              c:/intelfpga_pro/18.1/nios2eds/bin/gnu/h-x86_64-mingw32/bin/../lib/gcc/nios2-elf/7.3.1/../../../../../H-x86_64-mingw32/nios2-elf/lib\libc.a(lib_a-puts.o) (__sfvwrite_r)
c:/intelfpga_pro/18.1/nios2eds/bin/gnu/h-x86_64-mingw32/bin/../lib/gcc/nios2-elf/7.3.1/../../../../../H-x86_64-mingw32/nios2-elf/lib\libc.a(lib_a-fwalk.o)
                              c:/intelfpga_pro/18.1/nios2eds/bin/gnu/h-x86_64-mingw32/bin/../lib/gcc/nios2-elf/7.3.1/../../../../../H-x86_64-mingw32/nios2-elf/lib\libc.a(lib_a-findfp.o) (_fwalk)
c:/intelfpga_pro/18.1/nios2eds/bin/gnu/h-x86_64-mingw32/bin/../lib/gcc/nios2-elf/7.3.1/../../../../../H-x86_64-mingw32/nios2-elf/lib\libc.a(lib_a-getenv_r.o)
                              c:/intelfpga_pro/18.1/nios2eds/bin/gnu/h-x86_64-mingw32/bin/../lib/gcc/nios2-elf/7.3.1/../../../../../H-x86_64-mingw32/nios2-elf/lib\libc.a(lib_a-tzset_r.o) (_getenv_r)
c:/intelfpga_pro/18.1/nios2eds/bin/gnu/h-x86_64-mingw32/bin/../lib/gcc/nios2-elf/7.3.1/../../../../../H-x86_64-mingw32/nios2-elf/lib\libc.a(lib_a-gettzinfo.o)
                              c:/intelfpga_pro/18.1/nios2eds/bin/gnu/h-x86_64-mingw32/bin/../lib/gcc/nios2-elf/7.3.1/../../../../../H-x86_64-mingw32/nios2-elf/lib\libc.a(lib_a-mktime.o) (__gettzinfo)
c:/intelfpga_pro/18.1/nios2eds/bin/gnu/h-x86_64-mingw32/bin/../lib/gcc/nios2-elf/7.3.1/../../../../../H-x86_64-mingw32/nios2-elf/lib\libc.a(lib_a-int_errno.o)
                              c:/intelfpga_pro/18.1/nios2eds/bin/gnu/h-x86_64-mingw32/bin/../lib/gcc/nios2-elf/7.3.1/../../../../../H-x86_64-mingw32/nios2-elf/lib\libc.a(lib_a-sbrkr.o) (errno)
c:/intelfpga_pro/18.1/nios2eds/bin/gnu/h-x86_64-mingw32/bin/../lib/gcc/nios2-elf/7.3.1/../../../../../H-x86_64-mingw32/nios2-elf/lib\libc.a(lib_a-localeconv.o)
                              c:/intelfpga_pro/18.1/nios2eds/bin/gnu/h-x86_64-mingw32/bin/../lib/gcc/nios2-elf/7.3.1/../../../../../H-x86_64-mingw32/nios2-elf/lib\libc.a(lib_a-svfprintf.o) (_localeconv_r)
c:/intelfpga_pro/18.1/nios2eds/bin/gnu/h-x86_64-mingw32/bin/../lib/gcc/nios2-elf/7.3.1/../../../../../H-x86_64-mingw32/nios2-elf/lib\libc.a(lib_a-makebuf.o)
                              c:/intelfpga_pro/18.1/nios2eds/bin/gnu/h-x86_64-mingw32/bin/../lib/gcc/nios2-elf/7.3.1/../../../../../H-x86_64-mingw32/nios2-elf/lib\libc.a(lib_a-wsetup.o) (__smakebuf_r)
c:/intelfpga_pro/18.1/nios2eds/bin/gnu/h-x86_64-mingw32/bin/../lib/gcc/nios2-elf/7.3.1/../../../../../H-x86_64-mingw32/nios2-elf/lib\libc.a(lib_a-memchr.o)
                              c:/intelfpga_pro/18.1/nios2eds/bin/gnu/h-x86_64-mingw32/bin/../lib/gcc/nios2-elf/7.3.1/../../../../../H-x86_64-mingw32/nios2-elf/lib\libc.a(lib_a-svfprintf.o) (memchr)
c:/intelfpga_pro/18.1/nios2eds/bin/gnu/h-x86_64-mingw32/bin/../lib/gcc/nios2-elf/7.3.1/../../../../../H-x86_64-mingw32/nios2-elf/lib\libc.a(lib_a-memmove.o)
                              c:/intelfpga_pro/18.1/nios2eds/bin/gnu/h-x86_64-mingw32/bin/../lib/gcc/nios2-elf/7.3.1/../../../../../H-x86_64-mingw32/nios2-elf/lib\libc.a(lib_a-fvwrite.o) (memmove)
c:/intelfpga_pro/18.1/nios2eds/bin/gnu/h-x86_64-mingw32/bin/../lib/gcc/nios2-elf/7.3.1/../../../../../H-x86_64-mingw32/nios2-elf/lib\libc.a(lib_a-month_lengths.o)
                              c:/intelfpga_pro/18.1/nios2eds/bin/gnu/h-x86_64-mingw32/bin/../lib/gcc/nios2-elf/7.3.1/../../../../../H-x86_64-mingw32/nios2-elf/lib\libc.a(lib_a-tzcalc_limits.o) (__month_lengths)
c:/intelfpga_pro/18.1/nios2eds/bin/gnu/h-x86_64-mingw32/bin/../lib/gcc/nios2-elf/7.3.1/../../../../../H-x86_64-mingw32/nios2-elf/lib\libc.a(lib_a-mprec.o)
                              c:/intelfpga_pro/18.1/nios2eds/bin/gnu/h-x86_64-mingw32/bin/../lib/gcc/nios2-elf/7.3.1/../../../../../H-x86_64-mingw32/nios2-elf/lib\libc.a(lib_a-dtoa.o) (_Balloc)
c:/intelfpga_pro/18.1/nios2eds/bin/gnu/h-x86_64-mingw32/bin/../lib/gcc/nios2-elf/7.3.1/../../../../../H-x86_64-mingw32/nios2-elf/lib\libc.a(lib_a-putc.o)
                              c:/intelfpga_pro/18.1/nios2eds/bin/gnu/h-x86_64-mingw32/bin/../lib/gcc/nios2-elf/7.3.1/../../../../../H-x86_64-mingw32/nios2-elf/lib\libc.a(lib_a-putchar.o) (_putc_r)
c:/intelfpga_pro/18.1/nios2eds/bin/gnu/h-x86_64-mingw32/bin/../lib/gcc/nios2-elf/7.3.1/../../../../../H-x86_64-mingw32/nios2-elf/lib\libc.a(lib_a-reallocr.o)
                              c:/intelfpga_pro/18.1/nios2eds/bin/gnu/h-x86_64-mingw32/bin/../lib/gcc/nios2-elf/7.3.1/../../../../../H-x86_64-mingw32/nios2-elf/lib\libc.a(lib_a-fvwrite.o) (_realloc_r)
c:/intelfpga_pro/18.1/nios2eds/bin/gnu/h-x86_64-mingw32/bin/../lib/gcc/nios2-elf/7.3.1/../../../../../H-x86_64-mingw32/nios2-elf/lib\libc.a(lib_a-refill.o)
                              c:/intelfpga_pro/18.1/nios2eds/bin/gnu/h-x86_64-mingw32/bin/../lib/gcc/nios2-elf/7.3.1/../../../../../H-x86_64-mingw32/nios2-elf/lib\libc.a(lib_a-rget.o) (__srefill_r)
c:/intelfpga_pro/18.1/nios2eds/bin/gnu/h-x86_64-mingw32/bin/../lib/gcc/nios2-elf/7.3.1/../../../../../H-x86_64-mingw32/nios2-elf/lib\libc.a(lib_a-siscanf.o)
                              c:/intelfpga_pro/18.1/nios2eds/bin/gnu/h-x86_64-mingw32/bin/../lib/gcc/nios2-elf/7.3.1/../../../../../H-x86_64-mingw32/nios2-elf/lib\libc.a(lib_a-tzset_r.o) (siscanf)
c:/intelfpga_pro/18.1/nios2eds/bin/gnu/h-x86_64-mingw32/bin/../lib/gcc/nios2-elf/7.3.1/../../../../../H-x86_64-mingw32/nios2-elf/lib\libc.a(lib_a-stdio.o)
                              c:/intelfpga_pro/18.1/nios2eds/bin/gnu/h-x86_64-mingw32/bin/../lib/gcc/nios2-elf/7.3.1/../../../../../H-x86_64-mingw32/nios2-elf/lib\libc.a(lib_a-findfp.o) (__sread)
c:/intelfpga_pro/18.1/nios2eds/bin/gnu/h-x86_64-mingw32/bin/../lib/gcc/nios2-elf/7.3.1/../../../../../H-x86_64-mingw32/nios2-elf/lib\libc.a(lib_a-strncmp.o)
                              c:/intelfpga_pro/18.1/nios2eds/bin/gnu/h-x86_64-mingw32/bin/../lib/gcc/nios2-elf/7.3.1/../../../../../H-x86_64-mingw32/nios2-elf/lib\libc.a(lib_a-getenv_r.o) (strncmp)
c:/intelfpga_pro/18.1/nios2eds/bin/gnu/h-x86_64-mingw32/bin/../lib/gcc/nios2-elf/7.3.1/../../../../../H-x86_64-mingw32/nios2-elf/lib\libc.a(lib_a-strtoul.o)
                              c:/intelfpga_pro/18.1/nios2eds/bin/gnu/h-x86_64-mingw32/bin/../lib/gcc/nios2-elf/7.3.1/../../../../../H-x86_64-mingw32/nios2-elf/lib\libc.a(lib_a-tzset_r.o) (strtoul)
c:/intelfpga_pro/18.1/nios2eds/bin/gnu/h-x86_64-mingw32/bin/../lib/gcc/nios2-elf/7.3.1/../../../../../H-x86_64-mingw32/nios2-elf/lib\libc.a(lib_a-svfiprintf.o)
                              c:/intelfpga_pro/18.1/nios2eds/bin/gnu/h-x86_64-mingw32/bin/../lib/gcc/nios2-elf/7.3.1/../../../../../H-x86_64-mingw32/nios2-elf/lib\libc.a(lib_a-svfprintf.o) (__ssprint_r)
c:/intelfpga_pro/18.1/nios2eds/bin/gnu/h-x86_64-mingw32/bin/../lib/gcc/nios2-elf/7.3.1/../../../../../H-x86_64-mingw32/nios2-elf/lib\libc.a(lib_a-svfiscanf.o)
                              c:/intelfpga_pro/18.1/nios2eds/bin/gnu/h-x86_64-mingw32/bin/../lib/gcc/nios2-elf/7.3.1/../../../../../H-x86_64-mingw32/nios2-elf/lib\libc.a(lib_a-siscanf.o) (__ssvfiscanf_r)
c:/intelfpga_pro/18.1/nios2eds/bin/gnu/h-x86_64-mingw32/bin/../lib/gcc/nios2-elf/7.3.1/../../../../../H-x86_64-mingw32/nios2-elf/lib\libc.a(lib_a-ungetc.o)
                              c:/intelfpga_pro/18.1/nios2eds/bin/gnu/h-x86_64-mingw32/bin/../lib/gcc/nios2-elf/7.3.1/../../../../../H-x86_64-mingw32/nios2-elf/lib\libc.a(lib_a-svfiscanf.o) (__submore)
c:/intelfpga_pro/18.1/nios2eds/bin/gnu/h-x86_64-mingw32/bin/../lib/gcc/nios2-elf/7.3.1/../../../../../H-x86_64-mingw32/nios2-elf/lib\libc.a(lib_a-vfiprintf.o)
                              c:/intelfpga_pro/18.1/nios2eds/bin/gnu/h-x86_64-mingw32/bin/../lib/gcc/nios2-elf/7.3.1/../../../../../H-x86_64-mingw32/nios2-elf/lib\libc.a(lib_a-vfprintf.o) (__sprint_r)
c:/intelfpga_pro/18.1/nios2eds/bin/gnu/h-x86_64-mingw32/bin/../lib/gcc/nios2-elf/7.3.1/../../../../../H-x86_64-mingw32/nios2-elf/lib\libc.a(lib_a-wbuf.o)
                              c:/intelfpga_pro/18.1/nios2eds/bin/gnu/h-x86_64-mingw32/bin/../lib/gcc/nios2-elf/7.3.1/../../../../../H-x86_64-mingw32/nios2-elf/lib\libc.a(lib_a-putc.o) (__swbuf_r)
c:/intelfpga_pro/18.1/nios2eds/bin/gnu/h-x86_64-mingw32/bin/../lib/gcc/nios2-elf/7.3.1/../../../../../H-x86_64-mingw32/nios2-elf/lib\libc.a(lib_a-writer.o)
                              c:/intelfpga_pro/18.1/nios2eds/bin/gnu/h-x86_64-mingw32/bin/../lib/gcc/nios2-elf/7.3.1/../../../../../H-x86_64-mingw32/nios2-elf/lib\libc.a(lib_a-stdio.o) (_write_r)
c:/intelfpga_pro/18.1/nios2eds/bin/gnu/h-x86_64-mingw32/bin/../lib/gcc/nios2-elf/7.3.1/../../../../../H-x86_64-mingw32/nios2-elf/lib\libc.a(closer.o)
                              c:/intelfpga_pro/18.1/nios2eds/bin/gnu/h-x86_64-mingw32/bin/../lib/gcc/nios2-elf/7.3.1/../../../../../H-x86_64-mingw32/nios2-elf/lib\libc.a(lib_a-stdio.o) (_close_r)
c:/intelfpga_pro/18.1/nios2eds/bin/gnu/h-x86_64-mingw32/bin/../lib/gcc/nios2-elf/7.3.1/../../../../../H-x86_64-mingw32/nios2-elf/lib\libc.a(lib_a-environ.o)
                              c:/intelfpga_pro/18.1/nios2eds/bin/gnu/h-x86_64-mingw32/bin/../lib/gcc/nios2-elf/7.3.1/../../../../../H-x86_64-mingw32/nios2-elf/lib\libc.a(lib_a-getenv_r.o) (environ)
c:/intelfpga_pro/18.1/nios2eds/bin/gnu/h-x86_64-mingw32/bin/../lib/gcc/nios2-elf/7.3.1/../../../../../H-x86_64-mingw32/nios2-elf/lib\libc.a(lib_a-fclose.o)
                              c:/intelfpga_pro/18.1/nios2eds/bin/gnu/h-x86_64-mingw32/bin/../lib/gcc/nios2-elf/7.3.1/../../../../../H-x86_64-mingw32/nios2-elf/lib\libc.a(lib_a-findfp.o) (_fclose_r)
c:/intelfpga_pro/18.1/nios2eds/bin/gnu/h-x86_64-mingw32/bin/../lib/gcc/nios2-elf/7.3.1/../../../../../H-x86_64-mingw32/nios2-elf/lib\libc.a(lib_a-fputwc.o)
                              c:/intelfpga_pro/18.1/nios2eds/bin/gnu/h-x86_64-mingw32/bin/../lib/gcc/nios2-elf/7.3.1/../../../../../H-x86_64-mingw32/nios2-elf/lib\libc.a(lib_a-vfiprintf.o) (_fputwc_r)
c:/intelfpga_pro/18.1/nios2eds/bin/gnu/h-x86_64-mingw32/bin/../lib/gcc/nios2-elf/7.3.1/../../../../../H-x86_64-mingw32/nios2-elf/lib\libc.a(lib_a-fstatr.o)
                              c:/intelfpga_pro/18.1/nios2eds/bin/gnu/h-x86_64-mingw32/bin/../lib/gcc/nios2-elf/7.3.1/../../../../../H-x86_64-mingw32/nios2-elf/lib\libc.a(lib_a-makebuf.o) (_fstat_r)
c:/intelfpga_pro/18.1/nios2eds/bin/gnu/h-x86_64-mingw32/bin/../lib/gcc/nios2-elf/7.3.1/../../../../../H-x86_64-mingw32/nios2-elf/lib\libc.a(lib_a-isattyr.o)
                              c:/intelfpga_pro/18.1/nios2eds/bin/gnu/h-x86_64-mingw32/bin/../lib/gcc/nios2-elf/7.3.1/../../../../../H-x86_64-mingw32/nios2-elf/lib\libc.a(lib_a-makebuf.o) (_isatty_r)
c:/intelfpga_pro/18.1/nios2eds/bin/gnu/h-x86_64-mingw32/bin/../lib/gcc/nios2-elf/7.3.1/../../../../../H-x86_64-mingw32/nios2-elf/lib\libc.a(lib_a-iswspace.o)
                              c:/intelfpga_pro/18.1/nios2eds/bin/gnu/h-x86_64-mingw32/bin/../lib/gcc/nios2-elf/7.3.1/../../../../../H-x86_64-mingw32/nios2-elf/lib\libc.a(lib_a-svfiscanf.o) (iswspace)
c:/intelfpga_pro/18.1/nios2eds/bin/gnu/h-x86_64-mingw32/bin/../lib/gcc/nios2-elf/7.3.1/../../../../../H-x86_64-mingw32/nios2-elf/lib\libc.a(lib_a-lseekr.o)
                              c:/intelfpga_pro/18.1/nios2eds/bin/gnu/h-x86_64-mingw32/bin/../lib/gcc/nios2-elf/7.3.1/../../../../../H-x86_64-mingw32/nios2-elf/lib\libc.a(lib_a-stdio.o) (_lseek_r)
c:/intelfpga_pro/18.1/nios2eds/bin/gnu/h-x86_64-mingw32/bin/../lib/gcc/nios2-elf/7.3.1/../../../../../H-x86_64-mingw32/nios2-elf/lib\libc.a(lib_a-mbrtowc.o)
                              c:/intelfpga_pro/18.1/nios2eds/bin/gnu/h-x86_64-mingw32/bin/../lib/gcc/nios2-elf/7.3.1/../../../../../H-x86_64-mingw32/nios2-elf/lib\libc.a(lib_a-svfiscanf.o) (_mbrtowc_r)
c:/intelfpga_pro/18.1/nios2eds/bin/gnu/h-x86_64-mingw32/bin/../lib/gcc/nios2-elf/7.3.1/../../../../../H-x86_64-mingw32/nios2-elf/lib\libc.a(lib_a-readr.o)
                              c:/intelfpga_pro/18.1/nios2eds/bin/gnu/h-x86_64-mingw32/bin/../lib/gcc/nios2-elf/7.3.1/../../../../../H-x86_64-mingw32/nios2-elf/lib\libc.a(lib_a-stdio.o) (_read_r)
c:/intelfpga_pro/18.1/nios2eds/bin/gnu/h-x86_64-mingw32/bin/../lib/gcc/nios2-elf/7.3.1/../../../../../H-x86_64-mingw32/nios2-elf/lib\libc.a(lib_a-sccl.o)
                              c:/intelfpga_pro/18.1/nios2eds/bin/gnu/h-x86_64-mingw32/bin/../lib/gcc/nios2-elf/7.3.1/../../../../../H-x86_64-mingw32/nios2-elf/lib\libc.a(lib_a-svfiscanf.o) (__sccl)
c:/intelfpga_pro/18.1/nios2eds/bin/gnu/h-x86_64-mingw32/bin/../lib/gcc/nios2-elf/7.3.1/../../../../../H-x86_64-mingw32/nios2-elf/lib\libc.a(lib_a-strtol.o)
                              c:/intelfpga_pro/18.1/nios2eds/bin/gnu/h-x86_64-mingw32/bin/../lib/gcc/nios2-elf/7.3.1/../../../../../H-x86_64-mingw32/nios2-elf/lib\libc.a(lib_a-svfiscanf.o) (_strtol_r)
c:/intelfpga_pro/18.1/nios2eds/bin/gnu/h-x86_64-mingw32/bin/../lib/gcc/nios2-elf/7.3.1/../../../../../H-x86_64-mingw32/nios2-elf/lib\libc.a(lib_a-strtoll.o)
                              c:/intelfpga_pro/18.1/nios2eds/bin/gnu/h-x86_64-mingw32/bin/../lib/gcc/nios2-elf/7.3.1/../../../../../H-x86_64-mingw32/nios2-elf/lib\libc.a(lib_a-svfiscanf.o) (_strtoll_r)
c:/intelfpga_pro/18.1/nios2eds/bin/gnu/h-x86_64-mingw32/bin/../lib/gcc/nios2-elf/7.3.1/../../../../../H-x86_64-mingw32/nios2-elf/lib\libc.a(lib_a-strtoull.o)
                              c:/intelfpga_pro/18.1/nios2eds/bin/gnu/h-x86_64-mingw32/bin/../lib/gcc/nios2-elf/7.3.1/../../../../../H-x86_64-mingw32/nios2-elf/lib\libc.a(lib_a-svfiscanf.o) (_strtoull_r)
c:/intelfpga_pro/18.1/nios2eds/bin/gnu/h-x86_64-mingw32/bin/../lib/gcc/nios2-elf/7.3.1/../../../../../H-x86_64-mingw32/nios2-elf/lib\libc.a(lib_a-wcrtomb.o)
                              c:/intelfpga_pro/18.1/nios2eds/bin/gnu/h-x86_64-mingw32/bin/../lib/gcc/nios2-elf/7.3.1/../../../../../H-x86_64-mingw32/nios2-elf/lib\libc.a(lib_a-fputwc.o) (_wcrtomb_r)
c:/intelfpga_pro/18.1/nios2eds/bin/gnu/h-x86_64-mingw32/bin/../lib/gcc/nios2-elf/7.3.1\libgcc.a(eqdf2.o)
                              c:/intelfpga_pro/18.1/nios2eds/bin/gnu/h-x86_64-mingw32/bin/../lib/gcc/nios2-elf/7.3.1/../../../../../H-x86_64-mingw32/nios2-elf/lib\libc.a(lib_a-svfprintf.o) (__eqdf2)
c:/intelfpga_pro/18.1/nios2eds/bin/gnu/h-x86_64-mingw32/bin/../lib/gcc/nios2-elf/7.3.1\libgcc.a(ledf2.o)
                              c:/intelfpga_pro/18.1/nios2eds/bin/gnu/h-x86_64-mingw32/bin/../lib/gcc/nios2-elf/7.3.1/../../../../../H-x86_64-mingw32/nios2-elf/lib\libc.a(lib_a-svfprintf.o) (__ledf2)
c:/intelfpga_pro/18.1/nios2eds/bin/gnu/h-x86_64-mingw32/bin/../lib/gcc/nios2-elf/7.3.1\libgcc.a(unorddf2.o)
                              c:/intelfpga_pro/18.1/nios2eds/bin/gnu/h-x86_64-mingw32/bin/../lib/gcc/nios2-elf/7.3.1/../../../../../H-x86_64-mingw32/nios2-elf/lib\libc.a(lib_a-svfprintf.o) (__unorddf2)
c:/intelfpga_pro/18.1/nios2eds/bin/gnu/h-x86_64-mingw32/bin/../lib/gcc/nios2-elf/7.3.1\libgcc.a(floatsidf.o)
                              c:/intelfpga_pro/18.1/nios2eds/bin/gnu/h-x86_64-mingw32/bin/../lib/gcc/nios2-elf/7.3.1/../../../../../H-x86_64-mingw32/nios2-elf/lib\libc.a(lib_a-dtoa.o) (__floatsidf)
C:/Git/ArrowESC/Cyclone10GX_Rev2_Demo/software/C10GX_SoM_Rev2_Demo_bsp/\libhal_bsp.a(alt_close.o)
                              c:/intelfpga_pro/18.1/nios2eds/bin/gnu/h-x86_64-mingw32/bin/../lib/gcc/nios2-elf/7.3.1/../../../../../H-x86_64-mingw32/nios2-elf/lib\libc.a(closer.o) (close)
C:/Git/ArrowESC/Cyclone10GX_Rev2_Demo/software/C10GX_SoM_Rev2_Demo_bsp/\libhal_bsp.a(alt_dcache_flush.o)
                              obj/default/ethernet.o (alt_dcache_flush)
C:/Git/ArrowESC/Cyclone10GX_Rev2_Demo/software/C10GX_SoM_Rev2_Demo_bsp/\libhal_bsp.a(alt_dev.o)
                              C:/Git/ArrowESC/Cyclone10GX_Rev2_Demo/software/C10GX_SoM_Rev2_Demo_bsp/\libhal_bsp.a(alt_close.o) (alt_fd_list)
C:/Git/ArrowESC/Cyclone10GX_Rev2_Demo/software/C10GX_SoM_Rev2_Demo_bsp/\libhal_bsp.a(alt_dev_llist_insert.o)
                              C:/Git/ArrowESC/Cyclone10GX_Rev2_Demo/software/C10GX_SoM_Rev2_Demo_bsp/\libhal_bsp.a(alt_dev.o) (alt_dev_llist_insert)
C:/Git/ArrowESC/Cyclone10GX_Rev2_Demo/software/C10GX_SoM_Rev2_Demo_bsp/\libhal_bsp.a(alt_env_lock.o)
                              c:/intelfpga_pro/18.1/nios2eds/bin/gnu/h-x86_64-mingw32/bin/../lib/gcc/nios2-elf/7.3.1/../../../../../H-x86_64-mingw32/nios2-elf/lib\libc.a(lib_a-getenv_r.o) (__env_lock)
C:/Git/ArrowESC/Cyclone10GX_Rev2_Demo/software/C10GX_SoM_Rev2_Demo_bsp/\libhal_bsp.a(alt_errno.o)
                              C:/Git/ArrowESC/Cyclone10GX_Rev2_Demo/software/C10GX_SoM_Rev2_Demo_bsp/\libhal_bsp.a(alt_close.o) (alt_errno)
C:/Git/ArrowESC/Cyclone10GX_Rev2_Demo/software/C10GX_SoM_Rev2_Demo_bsp/\libhal_bsp.a(alt_fstat.o)
                              c:/intelfpga_pro/18.1/nios2eds/bin/gnu/h-x86_64-mingw32/bin/../lib/gcc/nios2-elf/7.3.1/../../../../../H-x86_64-mingw32/nios2-elf/lib\libc.a(lib_a-fstatr.o) (fstat)
C:/Git/ArrowESC/Cyclone10GX_Rev2_Demo/software/C10GX_SoM_Rev2_Demo_bsp/\libhal_bsp.a(alt_icache_flush_all.o)
                              obj/default/fmc/common_drivers/dac_buffer/dac_buffer.o (alt_icache_flush_all)
C:/Git/ArrowESC/Cyclone10GX_Rev2_Demo/software/C10GX_SoM_Rev2_Demo_bsp/\libhal_bsp.a(alt_iic.o)
                              obj/default/main.o (alt_ic_irq_enable)
C:/Git/ArrowESC/Cyclone10GX_Rev2_Demo/software/C10GX_SoM_Rev2_Demo_bsp/\libhal_bsp.a(alt_iic_isr_register.o)
                              C:/Git/ArrowESC/Cyclone10GX_Rev2_Demo/software/C10GX_SoM_Rev2_Demo_bsp/\libhal_bsp.a(alt_iic.o) (alt_iic_isr_register)
C:/Git/ArrowESC/Cyclone10GX_Rev2_Demo/software/C10GX_SoM_Rev2_Demo_bsp/\libhal_bsp.a(alt_instruction_exception_register.o)
                              obj/default/main.o (alt_instruction_exception_register)
C:/Git/ArrowESC/Cyclone10GX_Rev2_Demo/software/C10GX_SoM_Rev2_Demo_bsp/\libhal_bsp.a(alt_irq_entry.o)
                              C:/Git/ArrowESC/Cyclone10GX_Rev2_Demo/software/C10GX_SoM_Rev2_Demo_bsp/\libhal_bsp.a(alt_iic_isr_register.o) (alt_irq_entry)
C:/Git/ArrowESC/Cyclone10GX_Rev2_Demo/software/C10GX_SoM_Rev2_Demo_bsp/\libhal_bsp.a(alt_irq_handler.o)
                              C:/Git/ArrowESC/Cyclone10GX_Rev2_Demo/software/C10GX_SoM_Rev2_Demo_bsp/\libhal_bsp.a(alt_iic_isr_register.o) (alt_irq)
C:/Git/ArrowESC/Cyclone10GX_Rev2_Demo/software/C10GX_SoM_Rev2_Demo_bsp/\libhal_bsp.a(alt_irq_vars.o)
                              C:/Git/ArrowESC/Cyclone10GX_Rev2_Demo/software/C10GX_SoM_Rev2_Demo_bsp/\libhal_bsp.a(alt_iic.o) (alt_irq_active)
C:/Git/ArrowESC/Cyclone10GX_Rev2_Demo/software/C10GX_SoM_Rev2_Demo_bsp/\libhal_bsp.a(alt_isatty.o)
                              c:/intelfpga_pro/18.1/nios2eds/bin/gnu/h-x86_64-mingw32/bin/../lib/gcc/nios2-elf/7.3.1/../../../../../H-x86_64-mingw32/nios2-elf/lib\libc.a(lib_a-isattyr.o) (isatty)
C:/Git/ArrowESC/Cyclone10GX_Rev2_Demo/software/C10GX_SoM_Rev2_Demo_bsp/\libhal_bsp.a(alt_load.o)
                              C:/Git/ArrowESC/Cyclone10GX_Rev2_Demo/software/C10GX_SoM_Rev2_Demo_bsp//obj/HAL/src/crt0.o (alt_load)
C:/Git/ArrowESC/Cyclone10GX_Rev2_Demo/software/C10GX_SoM_Rev2_Demo_bsp/\libhal_bsp.a(alt_lseek.o)
                              c:/intelfpga_pro/18.1/nios2eds/bin/gnu/h-x86_64-mingw32/bin/../lib/gcc/nios2-elf/7.3.1/../../../../../H-x86_64-mingw32/nios2-elf/lib\libc.a(lib_a-lseekr.o) (lseek)
C:/Git/ArrowESC/Cyclone10GX_Rev2_Demo/software/C10GX_SoM_Rev2_Demo_bsp/\libhal_bsp.a(alt_main.o)
                              C:/Git/ArrowESC/Cyclone10GX_Rev2_Demo/software/C10GX_SoM_Rev2_Demo_bsp//obj/HAL/src/crt0.o (alt_main)
C:/Git/ArrowESC/Cyclone10GX_Rev2_Demo/software/C10GX_SoM_Rev2_Demo_bsp/\libhal_bsp.a(alt_malloc_lock.o)
                              c:/intelfpga_pro/18.1/nios2eds/bin/gnu/h-x86_64-mingw32/bin/../lib/gcc/nios2-elf/7.3.1/../../../../../H-x86_64-mingw32/nios2-elf/lib\libc.a(lib_a-mallocr.o) (__malloc_lock)
C:/Git/ArrowESC/Cyclone10GX_Rev2_Demo/software/C10GX_SoM_Rev2_Demo_bsp/\libhal_bsp.a(alt_printf.o)
                              obj/default/fmc/common_drivers/platform_drivers/platform_drivers.o (alt_printf)
C:/Git/ArrowESC/Cyclone10GX_Rev2_Demo/software/C10GX_SoM_Rev2_Demo_bsp/\libhal_bsp.a(alt_putchar.o)
                              C:/Git/ArrowESC/Cyclone10GX_Rev2_Demo/software/C10GX_SoM_Rev2_Demo_bsp/\libhal_bsp.a(alt_printf.o) (alt_putchar)
C:/Git/ArrowESC/Cyclone10GX_Rev2_Demo/software/C10GX_SoM_Rev2_Demo_bsp/\libhal_bsp.a(alt_read.o)
                              c:/intelfpga_pro/18.1/nios2eds/bin/gnu/h-x86_64-mingw32/bin/../lib/gcc/nios2-elf/7.3.1/../../../../../H-x86_64-mingw32/nios2-elf/lib\libc.a(lib_a-readr.o) (read)
C:/Git/ArrowESC/Cyclone10GX_Rev2_Demo/software/C10GX_SoM_Rev2_Demo_bsp/\libhal_bsp.a(alt_release_fd.o)
                              C:/Git/ArrowESC/Cyclone10GX_Rev2_Demo/software/C10GX_SoM_Rev2_Demo_bsp/\libhal_bsp.a(alt_close.o) (alt_release_fd)
C:/Git/ArrowESC/Cyclone10GX_Rev2_Demo/software/C10GX_SoM_Rev2_Demo_bsp/\libhal_bsp.a(alt_sbrk.o)
                              c:/intelfpga_pro/18.1/nios2eds/bin/gnu/h-x86_64-mingw32/bin/../lib/gcc/nios2-elf/7.3.1/../../../../../H-x86_64-mingw32/nios2-elf/lib\libc.a(lib_a-sbrkr.o) (sbrk)
C:/Git/ArrowESC/Cyclone10GX_Rev2_Demo/software/C10GX_SoM_Rev2_Demo_bsp/\libhal_bsp.a(alt_usleep.o)
                              obj/default/ethernet.o (usleep)
C:/Git/ArrowESC/Cyclone10GX_Rev2_Demo/software/C10GX_SoM_Rev2_Demo_bsp/\libhal_bsp.a(alt_write.o)
                              c:/intelfpga_pro/18.1/nios2eds/bin/gnu/h-x86_64-mingw32/bin/../lib/gcc/nios2-elf/7.3.1/../../../../../H-x86_64-mingw32/nios2-elf/lib\libc.a(lib_a-writer.o) (write)
C:/Git/ArrowESC/Cyclone10GX_Rev2_Demo/software/C10GX_SoM_Rev2_Demo_bsp/\libhal_bsp.a(alt_sys_init.o)
                              C:/Git/ArrowESC/Cyclone10GX_Rev2_Demo/software/C10GX_SoM_Rev2_Demo_bsp/\libhal_bsp.a(alt_main.o) (alt_irq_init)
C:/Git/ArrowESC/Cyclone10GX_Rev2_Demo/software/C10GX_SoM_Rev2_Demo_bsp/\libhal_bsp.a(altera_avalon_i2c.o)
                              C:/Git/ArrowESC/Cyclone10GX_Rev2_Demo/software/C10GX_SoM_Rev2_Demo_bsp/\libhal_bsp.a(alt_sys_init.o) (alt_avalon_i2c_init)
C:/Git/ArrowESC/Cyclone10GX_Rev2_Demo/software/C10GX_SoM_Rev2_Demo_bsp/\libhal_bsp.a(altera_avalon_jtag_uart_fd.o)
                              C:/Git/ArrowESC/Cyclone10GX_Rev2_Demo/software/C10GX_SoM_Rev2_Demo_bsp/\libhal_bsp.a(alt_sys_init.o) (altera_avalon_jtag_uart_read_fd)
C:/Git/ArrowESC/Cyclone10GX_Rev2_Demo/software/C10GX_SoM_Rev2_Demo_bsp/\libhal_bsp.a(altera_avalon_jtag_uart_init.o)
                              C:/Git/ArrowESC/Cyclone10GX_Rev2_Demo/software/C10GX_SoM_Rev2_Demo_bsp/\libhal_bsp.a(alt_sys_init.o) (altera_avalon_jtag_uart_init)
C:/Git/ArrowESC/Cyclone10GX_Rev2_Demo/software/C10GX_SoM_Rev2_Demo_bsp/\libhal_bsp.a(altera_avalon_jtag_uart_ioctl.o)
                              C:/Git/ArrowESC/Cyclone10GX_Rev2_Demo/software/C10GX_SoM_Rev2_Demo_bsp/\libhal_bsp.a(altera_avalon_jtag_uart_fd.o) (altera_avalon_jtag_uart_ioctl)
C:/Git/ArrowESC/Cyclone10GX_Rev2_Demo/software/C10GX_SoM_Rev2_Demo_bsp/\libhal_bsp.a(altera_avalon_jtag_uart_read.o)
                              C:/Git/ArrowESC/Cyclone10GX_Rev2_Demo/software/C10GX_SoM_Rev2_Demo_bsp/\libhal_bsp.a(altera_avalon_jtag_uart_fd.o) (altera_avalon_jtag_uart_read)
C:/Git/ArrowESC/Cyclone10GX_Rev2_Demo/software/C10GX_SoM_Rev2_Demo_bsp/\libhal_bsp.a(altera_avalon_jtag_uart_write.o)
                              C:/Git/ArrowESC/Cyclone10GX_Rev2_Demo/software/C10GX_SoM_Rev2_Demo_bsp/\libhal_bsp.a(altera_avalon_jtag_uart_fd.o) (altera_avalon_jtag_uart_write)
C:/Git/ArrowESC/Cyclone10GX_Rev2_Demo/software/C10GX_SoM_Rev2_Demo_bsp/\libhal_bsp.a(altera_avalon_timer_sc.o)
                              C:/Git/ArrowESC/Cyclone10GX_Rev2_Demo/software/C10GX_SoM_Rev2_Demo_bsp/\libhal_bsp.a(alt_sys_init.o) (alt_avalon_timer_sc_init)
C:/Git/ArrowESC/Cyclone10GX_Rev2_Demo/software/C10GX_SoM_Rev2_Demo_bsp/\libhal_bsp.a(altera_avalon_timer_ts.o)
                              obj/default/ethernet.o (alt_timestamp_start)
C:/Git/ArrowESC/Cyclone10GX_Rev2_Demo/software/C10GX_SoM_Rev2_Demo_bsp/\libhal_bsp.a(altera_avalon_timer_vars.o)
                              C:/Git/ArrowESC/Cyclone10GX_Rev2_Demo/software/C10GX_SoM_Rev2_Demo_bsp/\libhal_bsp.a(alt_sys_init.o) (altera_avalon_timer_ts_base)
C:/Git/ArrowESC/Cyclone10GX_Rev2_Demo/software/C10GX_SoM_Rev2_Demo_bsp/\libhal_bsp.a(altera_avalon_tse.o)
                              obj/default/ethernet.o (tse_mac_SwReset)
C:/Git/ArrowESC/Cyclone10GX_Rev2_Demo/software/C10GX_SoM_Rev2_Demo_bsp/\libhal_bsp.a(altera_avalon_tse_system_info.o)
                              C:/Git/ArrowESC/Cyclone10GX_Rev2_Demo/software/C10GX_SoM_Rev2_Demo_bsp/\libhal_bsp.a(altera_avalon_tse.o) (tse_mac_device)
C:/Git/ArrowESC/Cyclone10GX_Rev2_Demo/software/C10GX_SoM_Rev2_Demo_bsp/\libhal_bsp.a(altera_generic_quad_spi_controller2.o)
                              C:/Git/ArrowESC/Cyclone10GX_Rev2_Demo/software/C10GX_SoM_Rev2_Demo_bsp/\libhal_bsp.a(alt_sys_init.o) (alt_qspi_controller2_lock)
C:/Git/ArrowESC/Cyclone10GX_Rev2_Demo/software/C10GX_SoM_Rev2_Demo_bsp/\libhal_bsp.a(altera_msgdma.o)
                              obj/default/ethernet.o (alt_msgdma_construct_extended_st_to_mm_descriptor)
C:/Git/ArrowESC/Cyclone10GX_Rev2_Demo/software/C10GX_SoM_Rev2_Demo_bsp/\libhal_bsp.a(alt_alarm_start.o)
                              C:/Git/ArrowESC/Cyclone10GX_Rev2_Demo/software/C10GX_SoM_Rev2_Demo_bsp/\libhal_bsp.a(altera_avalon_jtag_uart_init.o) (alt_alarm_start)
C:/Git/ArrowESC/Cyclone10GX_Rev2_Demo/software/C10GX_SoM_Rev2_Demo_bsp/\libhal_bsp.a(alt_busy_sleep.o)
                              C:/Git/ArrowESC/Cyclone10GX_Rev2_Demo/software/C10GX_SoM_Rev2_Demo_bsp/\libhal_bsp.a(alt_usleep.o) (alt_busy_sleep)
C:/Git/ArrowESC/Cyclone10GX_Rev2_Demo/software/C10GX_SoM_Rev2_Demo_bsp/\libhal_bsp.a(alt_dcache_flush_all.o)
                              C:/Git/ArrowESC/Cyclone10GX_Rev2_Demo/software/C10GX_SoM_Rev2_Demo_bsp/\libhal_bsp.a(alt_load.o) (alt_dcache_flush_all)
C:/Git/ArrowESC/Cyclone10GX_Rev2_Demo/software/C10GX_SoM_Rev2_Demo_bsp/\libhal_bsp.a(alt_do_ctors.o)
                              C:/Git/ArrowESC/Cyclone10GX_Rev2_Demo/software/C10GX_SoM_Rev2_Demo_bsp/\libhal_bsp.a(alt_main.o) (_do_ctors)
C:/Git/ArrowESC/Cyclone10GX_Rev2_Demo/software/C10GX_SoM_Rev2_Demo_bsp/\libhal_bsp.a(alt_do_dtors.o)
                              C:/Git/ArrowESC/Cyclone10GX_Rev2_Demo/software/C10GX_SoM_Rev2_Demo_bsp/\libhal_bsp.a(alt_main.o) (_do_dtors)
C:/Git/ArrowESC/Cyclone10GX_Rev2_Demo/software/C10GX_SoM_Rev2_Demo_bsp/\libhal_bsp.a(alt_exception_entry.o)
                              C:/Git/ArrowESC/Cyclone10GX_Rev2_Demo/software/C10GX_SoM_Rev2_Demo_bsp/\libhal_bsp.a(alt_instruction_exception_register.o) (alt_exception)
C:/Git/ArrowESC/Cyclone10GX_Rev2_Demo/software/C10GX_SoM_Rev2_Demo_bsp/\libhal_bsp.a(alt_find_dev.o)
                              C:/Git/ArrowESC/Cyclone10GX_Rev2_Demo/software/C10GX_SoM_Rev2_Demo_bsp/\libhal_bsp.a(altera_avalon_i2c.o) (alt_find_dev)
C:/Git/ArrowESC/Cyclone10GX_Rev2_Demo/software/C10GX_SoM_Rev2_Demo_bsp/\libhal_bsp.a(alt_flash_dev.o)
                              C:/Git/ArrowESC/Cyclone10GX_Rev2_Demo/software/C10GX_SoM_Rev2_Demo_bsp/\libhal_bsp.a(altera_generic_quad_spi_controller2.o) (alt_flash_device_register)
C:/Git/ArrowESC/Cyclone10GX_Rev2_Demo/software/C10GX_SoM_Rev2_Demo_bsp/\libhal_bsp.a(alt_icache_flush.o)
                              C:/Git/ArrowESC/Cyclone10GX_Rev2_Demo/software/C10GX_SoM_Rev2_Demo_bsp/\libhal_bsp.a(alt_icache_flush_all.o) (alt_icache_flush)
C:/Git/ArrowESC/Cyclone10GX_Rev2_Demo/software/C10GX_SoM_Rev2_Demo_bsp/\libhal_bsp.a(alt_instruction_exception_entry.o)
                              C:/Git/ArrowESC/Cyclone10GX_Rev2_Demo/software/C10GX_SoM_Rev2_Demo_bsp/\libhal_bsp.a(alt_instruction_exception_register.o) (alt_instruction_exception_handler)
C:/Git/ArrowESC/Cyclone10GX_Rev2_Demo/software/C10GX_SoM_Rev2_Demo_bsp/\libhal_bsp.a(alt_io_redirect.o)
                              C:/Git/ArrowESC/Cyclone10GX_Rev2_Demo/software/C10GX_SoM_Rev2_Demo_bsp/\libhal_bsp.a(alt_main.o) (alt_io_redirect)
C:/Git/ArrowESC/Cyclone10GX_Rev2_Demo/software/C10GX_SoM_Rev2_Demo_bsp/\libhal_bsp.a(alt_open.o)
                              C:/Git/ArrowESC/Cyclone10GX_Rev2_Demo/software/C10GX_SoM_Rev2_Demo_bsp/\libhal_bsp.a(alt_io_redirect.o) (open)
C:/Git/ArrowESC/Cyclone10GX_Rev2_Demo/software/C10GX_SoM_Rev2_Demo_bsp/\libhal_bsp.a(alt_tick.o)
                              C:/Git/ArrowESC/Cyclone10GX_Rev2_Demo/software/C10GX_SoM_Rev2_Demo_bsp/\libhal_bsp.a(altera_avalon_jtag_uart_init.o) (_alt_tick_rate)
C:/Git/ArrowESC/Cyclone10GX_Rev2_Demo/software/C10GX_SoM_Rev2_Demo_bsp/\libhal_bsp.a(altera_nios2_gen2_irq.o)
                              C:/Git/ArrowESC/Cyclone10GX_Rev2_Demo/software/C10GX_SoM_Rev2_Demo_bsp/\libhal_bsp.a(alt_sys_init.o) (altera_nios2_gen2_irq_init)
C:/Git/ArrowESC/Cyclone10GX_Rev2_Demo/software/C10GX_SoM_Rev2_Demo_bsp/\libhal_bsp.a(alt_find_file.o)
                              C:/Git/ArrowESC/Cyclone10GX_Rev2_Demo/software/C10GX_SoM_Rev2_Demo_bsp/\libhal_bsp.a(alt_open.o) (alt_find_file)
C:/Git/ArrowESC/Cyclone10GX_Rev2_Demo/software/C10GX_SoM_Rev2_Demo_bsp/\libhal_bsp.a(alt_get_fd.o)
                              C:/Git/ArrowESC/Cyclone10GX_Rev2_Demo/software/C10GX_SoM_Rev2_Demo_bsp/\libhal_bsp.a(alt_open.o) (alt_get_fd)
c:/intelfpga_pro/18.1/nios2eds/bin/gnu/h-x86_64-mingw32/bin/../lib/gcc/nios2-elf/7.3.1/../../../../../H-x86_64-mingw32/nios2-elf/lib\libc.a(lib_a-atexit.o)
                              C:/Git/ArrowESC/Cyclone10GX_Rev2_Demo/software/C10GX_SoM_Rev2_Demo_bsp/\libhal_bsp.a(alt_main.o) (atexit)
c:/intelfpga_pro/18.1/nios2eds/bin/gnu/h-x86_64-mingw32/bin/../lib/gcc/nios2-elf/7.3.1/../../../../../H-x86_64-mingw32/nios2-elf/lib\libc.a(lib_a-exit.o)
                              C:/Git/ArrowESC/Cyclone10GX_Rev2_Demo/software/C10GX_SoM_Rev2_Demo_bsp/\libhal_bsp.a(alt_main.o) (exit)
c:/intelfpga_pro/18.1/nios2eds/bin/gnu/h-x86_64-mingw32/bin/../lib/gcc/nios2-elf/7.3.1/../../../../../H-x86_64-mingw32/nios2-elf/lib\libc.a(lib_a-__atexit.o)
                              c:/intelfpga_pro/18.1/nios2eds/bin/gnu/h-x86_64-mingw32/bin/../lib/gcc/nios2-elf/7.3.1/../../../../../H-x86_64-mingw32/nios2-elf/lib\libc.a(lib_a-atexit.o) (__register_exitproc)
c:/intelfpga_pro/18.1/nios2eds/bin/gnu/h-x86_64-mingw32/bin/../lib/gcc/nios2-elf/7.3.1/../../../../../H-x86_64-mingw32/nios2-elf/lib\libc.a(lib_a-__call_atexit.o)
                              c:/intelfpga_pro/18.1/nios2eds/bin/gnu/h-x86_64-mingw32/bin/../lib/gcc/nios2-elf/7.3.1/../../../../../H-x86_64-mingw32/nios2-elf/lib\libc.a(lib_a-exit.o) (__call_exitprocs)
C:/Git/ArrowESC/Cyclone10GX_Rev2_Demo/software/C10GX_SoM_Rev2_Demo_bsp/\libhal_bsp.a(alt_exit.o)
                              c:/intelfpga_pro/18.1/nios2eds/bin/gnu/h-x86_64-mingw32/bin/../lib/gcc/nios2-elf/7.3.1/../../../../../H-x86_64-mingw32/nios2-elf/lib\libc.a(lib_a-exit.o) (_exit)

Allocating common symbols
Common symbol       size              file

alt_irq             0x100             C:/Git/ArrowESC/Cyclone10GX_Rev2_Demo/software/C10GX_SoM_Rev2_Demo_bsp/\libhal_bsp.a(alt_irq_handler.o)
errno               0x4               c:/intelfpga_pro/18.1/nios2eds/bin/gnu/h-x86_64-mingw32/bin/../lib/gcc/nios2-elf/7.3.1/../../../../../H-x86_64-mingw32/nios2-elf/lib\libc.a(lib_a-int_errno.o)
pmac_groups         0x20              C:/Git/ArrowESC/Cyclone10GX_Rev2_Demo/software/C10GX_SoM_Rev2_Demo_bsp/\libhal_bsp.a(altera_avalon_tse.o)
pphy_profiles       0x20              C:/Git/ArrowESC/Cyclone10GX_Rev2_Demo/software/C10GX_SoM_Rev2_Demo_bsp/\libhal_bsp.a(altera_avalon_tse.o)
frame               0x640             obj/default/ethernet.o

Memory Configuration

Name             Origin             Length             Attributes
reset            0x0000000000000000 0x0000000000000020
ddr3_ctrl_amm_0  0x0000000000000020 0x000000007ffdffe0
interrupt_stack  0x000000007ffe0000 0x0000000000010000
exception_stack  0x000000007fff0000 0x0000000000010000
qspi_controller2_0_avl_mem 0x0000000080000000 0x0000000008000000
mcu_subsystem_ram_0 0x0000000088020000 0x0000000000020000
*default*        0x0000000000000000 0xffffffffffffffff

Linker script and memory map

LOAD C:/Git/ArrowESC/Cyclone10GX_Rev2_Demo/software/C10GX_SoM_Rev2_Demo_bsp//obj/HAL/src/crt0.o
LOAD obj/default/crc.o
LOAD obj/default/ethernet.o
LOAD obj/default/fmc/ad9144/ad9144.o
LOAD obj/default/fmc/ad9523/ad9523.o
LOAD obj/default/fmc/ad9680/ad9680.o
LOAD obj/default/fmc/common_drivers/adc_core/adc_core.o
LOAD obj/default/fmc/common_drivers/communication/generic/Communication.o
LOAD obj/default/fmc/common_drivers/dac_buffer/dac_buffer.o
LOAD obj/default/fmc/common_drivers/dac_core/dac_core.o
LOAD obj/default/fmc/common_drivers/dmac_core/dmac_core.o
LOAD obj/default/fmc/common_drivers/fru_tools/fru_tools.o
LOAD obj/default/fmc/common_drivers/jesd_core/jesd_core.o
LOAD obj/default/fmc/common_drivers/platform_drivers/platform_drivers.o
LOAD obj/default/fmc/common_drivers/xcvr_core/xcvr_core.o
LOAD obj/default/fmc/common_drivers/xcvr_core/xcvr_modules/altera_a10_atx_pll.o
LOAD obj/default/fmc/common_drivers/xcvr_core/xcvr_modules/altera_a10_fpll.o
LOAD obj/default/fmc/common_drivers/xcvr_core/xcvr_modules/altera_a10_xcvr_channel.o
LOAD obj/default/fmc/common_drivers/xcvr_core/xcvr_modules/altera_pll_common.o
LOAD obj/default/fmc/common_drivers/xcvr_core/xcvr_modules/xilinx_qpll.o
LOAD obj/default/fmc/common_drivers/xcvr_core/xcvr_modules/xilinx_xcvr_channel.o
LOAD obj/default/iioscope.o
LOAD obj/default/jesd204b.o
LOAD obj/default/main.o
LOAD obj/default/support.o
LOAD c:/intelfpga_pro/18.1/nios2eds/bin/gnu/h-x86_64-mingw32/bin/../lib/gcc/nios2-elf/7.3.1/../../../../../H-x86_64-mingw32/nios2-elf/lib\libstdc++.a
LOAD c:/intelfpga_pro/18.1/nios2eds/bin/gnu/h-x86_64-mingw32/bin/../lib/gcc/nios2-elf/7.3.1/../../../../../H-x86_64-mingw32/nios2-elf/lib\libm.a
LOAD c:/intelfpga_pro/18.1/nios2eds/bin/gnu/h-x86_64-mingw32/bin/../lib/gcc/nios2-elf/7.3.1\libgcc.a
START GROUP
LOAD c:/intelfpga_pro/18.1/nios2eds/bin/gnu/h-x86_64-mingw32/bin/../lib/gcc/nios2-elf/7.3.1/../../../../../H-x86_64-mingw32/nios2-elf/lib\libc.a
LOAD c:/intelfpga_pro/18.1/nios2eds/bin/gnu/h-x86_64-mingw32/bin/../lib/gcc/nios2-elf/7.3.1\libgcc.a
LOAD C:/Git/ArrowESC/Cyclone10GX_Rev2_Demo/software/C10GX_SoM_Rev2_Demo_bsp/\libhal_bsp.a
LOAD c:/intelfpga_pro/18.1/nios2eds/bin/gnu/h-x86_64-mingw32/bin/../lib/gcc/nios2-elf/7.3.1/../../../../../H-x86_64-mingw32/nios2-elf/lib\libm.a
END GROUP
LOAD c:/intelfpga_pro/18.1/nios2eds/bin/gnu/h-x86_64-mingw32/bin/../lib/gcc/nios2-elf/7.3.1\libgcc.a
                0x0000000000000000                __alt_mem_ddr3_ctrl_amm_0 = 0x0
                0x0000000080000000                __alt_mem_qspi_controller2_0_avl_mem = 0x80000000
                0x0000000088020000                __alt_mem_mcu_subsystem_ram_0 = 0x88020000

.entry          0x0000000000000000       0x20
 *(.entry)
 .entry         0x0000000000000000       0x20 C:/Git/ArrowESC/Cyclone10GX_Rev2_Demo/software/C10GX_SoM_Rev2_Demo_bsp//obj/HAL/src/crt0.o
                0x0000000000000000                __reset

.exceptions     0x0000000000000020      0x224
                0x0000000000000020                PROVIDE (__ram_exceptions_start, ABSOLUTE (.))
                0x0000000000000020                . = ALIGN (0x20)
 *(.irq)
 *(.exceptions.entry.label)
 .exceptions.entry.label
                0x0000000000000020        0x0 C:/Git/ArrowESC/Cyclone10GX_Rev2_Demo/software/C10GX_SoM_Rev2_Demo_bsp/\libhal_bsp.a(alt_irq_entry.o)
                0x0000000000000020                alt_irq_entry
 .exceptions.entry.label
                0x0000000000000020        0x0 C:/Git/ArrowESC/Cyclone10GX_Rev2_Demo/software/C10GX_SoM_Rev2_Demo_bsp/\libhal_bsp.a(alt_exception_entry.o)
                0x0000000000000020                alt_exception
 *(.exceptions.entry.user)
 *(.exceptions.entry.ecc_fatal)
 *(.exceptions.entry)
 .exceptions.entry
                0x0000000000000020       0x60 C:/Git/ArrowESC/Cyclone10GX_Rev2_Demo/software/C10GX_SoM_Rev2_Demo_bsp/\libhal_bsp.a(alt_exception_entry.o)
 *(.exceptions.irqtest.user)
 *(.exceptions.irqtest)
 .exceptions.irqtest
                0x0000000000000080       0x10 C:/Git/ArrowESC/Cyclone10GX_Rev2_Demo/software/C10GX_SoM_Rev2_Demo_bsp/\libhal_bsp.a(alt_irq_entry.o)
 *(.exceptions.irqhandler.user)
 *(.exceptions.irqhandler)
 .exceptions.irqhandler
                0x0000000000000090        0x4 C:/Git/ArrowESC/Cyclone10GX_Rev2_Demo/software/C10GX_SoM_Rev2_Demo_bsp/\libhal_bsp.a(alt_irq_entry.o)
 *(.exceptions.irqreturn.user)
 *(.exceptions.irqreturn)
 .exceptions.irqreturn
                0x0000000000000094        0x4 C:/Git/ArrowESC/Cyclone10GX_Rev2_Demo/software/C10GX_SoM_Rev2_Demo_bsp/\libhal_bsp.a(alt_irq_entry.o)
 *(.exceptions.notirq.label)
 .exceptions.notirq.label
                0x0000000000000098        0x0 C:/Git/ArrowESC/Cyclone10GX_Rev2_Demo/software/C10GX_SoM_Rev2_Demo_bsp/\libhal_bsp.a(alt_irq_entry.o)
 *(.exceptions.notirq.user)
 *(.exceptions.notirq)
 .exceptions.notirq
                0x0000000000000098        0x8 C:/Git/ArrowESC/Cyclone10GX_Rev2_Demo/software/C10GX_SoM_Rev2_Demo_bsp/\libhal_bsp.a(alt_exception_entry.o)
 *(.exceptions.soft.user)
 *(.exceptions.soft)
 *(.exceptions.unknown.user)
 *(.exceptions.unknown)
 .exceptions.unknown
                0x00000000000000a0       0x14 C:/Git/ArrowESC/Cyclone10GX_Rev2_Demo/software/C10GX_SoM_Rev2_Demo_bsp/\libhal_bsp.a(alt_exception_entry.o)
 *(.exceptions.exit.label)
 .exceptions.exit.label
                0x00000000000000b4        0x0 C:/Git/ArrowESC/Cyclone10GX_Rev2_Demo/software/C10GX_SoM_Rev2_Demo_bsp/\libhal_bsp.a(alt_irq_entry.o)
 .exceptions.exit.label
                0x00000000000000b4        0x0 C:/Git/ArrowESC/Cyclone10GX_Rev2_Demo/software/C10GX_SoM_Rev2_Demo_bsp/\libhal_bsp.a(alt_exception_entry.o)
 *(.exceptions.exit.user)
 *(.exceptions.exit)
 .exceptions.exit
                0x00000000000000b4       0x54 C:/Git/ArrowESC/Cyclone10GX_Rev2_Demo/software/C10GX_SoM_Rev2_Demo_bsp/\libhal_bsp.a(alt_exception_entry.o)
 *(.exceptions)
 .exceptions    0x0000000000000108       0xc8 C:/Git/ArrowESC/Cyclone10GX_Rev2_Demo/software/C10GX_SoM_Rev2_Demo_bsp/\libhal_bsp.a(alt_irq_handler.o)
                0x0000000000000108                alt_irq_handler
 .exceptions    0x00000000000001d0       0x74 C:/Git/ArrowESC/Cyclone10GX_Rev2_Demo/software/C10GX_SoM_Rev2_Demo_bsp/\libhal_bsp.a(alt_instruction_exception_entry.o)
                0x00000000000001d0                alt_instruction_exception_entry
                0x0000000000000244                PROVIDE (__ram_exceptions_end, ABSOLUTE (.))
                0x0000000000000020                PROVIDE (__flash_exceptions_start, LOADADDR (.exceptions))

.text           0x0000000000000244    0x31448
                [!provide]                        PROVIDE (stext, ABSOLUTE (.))
 *(.interp)
 *(.hash)
 *(.dynsym)
 *(.dynstr)
 *(.gnu.version)
 *(.gnu.version_d)
 *(.gnu.version_r)
 *(.rel.init)
 *(.rela.init)
 *(.rel.text .rel.text.* .rel.gnu.linkonce.t.*)
 *(.rela.text .rela.text.* .rela.gnu.linkonce.t.*)
 *(.rel.fini)
 *(.rela.fini)
 *(.rel.rodata .rel.rodata.* .rel.gnu.linkonce.r.*)
 *(.rela.rodata .rela.rodata.* .rela.gnu.linkonce.r.*)
 *(.rel.data .rel.data.* .rel.gnu.linkonce.d.*)
 *(.rela.data .rela.data.* .rela.gnu.linkonce.d.*)
 *(.rel.tdata .rel.tdata.* .rel.gnu.linkonce.td.*)
 *(.rela.tdata .rela.tdata.* .rela.gnu.linkonce.td.*)
 *(.rel.tbss .rel.tbss.* .rel.gnu.linkonce.tb.*)
 *(.rela.tbss .rela.tbss.* .rela.gnu.linkonce.tb.*)
 *(.rel.ctors)
 *(.rela.ctors)
 *(.rel.dtors)
 *(.rela.dtors)
 *(.rel.got)
 *(.rela.got)
 *(.rel.sdata .rel.sdata.* .rel.gnu.linkonce.s.*)
 *(.rela.sdata .rela.sdata.* .rela.gnu.linkonce.s.*)
 *(.rel.sbss .rel.sbss.* .rel.gnu.linkonce.sb.*)
 *(.rela.sbss .rela.sbss.* .rela.gnu.linkonce.sb.*)
 *(.rel.sdata2 .rel.sdata2.* .rel.gnu.linkonce.s2.*)
 *(.rela.sdata2 .rela.sdata2.* .rela.gnu.linkonce.s2.*)
 *(.rel.sbss2 .rel.sbss2.* .rel.gnu.linkonce.sb2.*)
 *(.rela.sbss2 .rela.sbss2.* .rela.gnu.linkonce.sb2.*)
 *(.rel.bss .rel.bss.* .rel.gnu.linkonce.b.*)
 *(.rela.bss .rela.bss.* .rela.gnu.linkonce.b.*)
 *(.rel.plt)
 *(.rela.plt)
 *(.rel.dyn)
 *(.init)
 *(.plt)
 *(.text .stub .text.* .gnu.linkonce.t.*)
 .text          0x0000000000000244       0x4c C:/Git/ArrowESC/Cyclone10GX_Rev2_Demo/software/C10GX_SoM_Rev2_Demo_bsp//obj/HAL/src/crt0.o
                0x0000000000000244                _start
 .text          0x0000000000000290       0xd8 obj/default/crc.o
                0x0000000000000290                fcs_crc32
 .text          0x0000000000000368     0x3f18 obj/default/ethernet.o
                0x0000000000000368                swap16
                0x00000000000003a4                swap32
                0x00000000000003e8                tse_mmd_writereg
                0x000000000000048c                tse_mmd_readreg
                0x0000000000000534                phy_ethernet_reset
                0x0000000000000680                phy_cfg
                0x0000000000000710                hw_ethernet_reset
                0x000000000000079c                ethernet_configure
                0x00000000000007c0                tx_ethernet_isr
                0x00000000000007e4                rx_ethernet_isr
                0x0000000000000808                rx_dma_rearm
                0x0000000000000a0c                tx_dma_rearm
                0x0000000000000a84                arp_initialise
                0x0000000000000aec                udp_initialise
                0x0000000000000bec                tcp_ip_process_stack
                0x00000000000010ac                net_deinitialize
                0x00000000000010d0                net_initialize
                0x0000000000001824                icmp_checksum
                0x00000000000021a8                udp_checksum
                0x0000000000002478                udp_send
                0x0000000000002e74                get_free_port
                0x0000000000002e98                ip_task
                0x0000000000002fd8                open_socket
                0x00000000000033e0                close_socket
                0x0000000000003494                close_all_sockets
                0x00000000000034d0                get_net_context
                0x00000000000034f4                register_rx_dma
                0x0000000000003528                register_tx_dma
                0x000000000000355c                ethernet_enable
                0x0000000000003604                ethernet_init
                0x0000000000003938                phy_init
                0x0000000000003a44                network_init
                0x0000000000003f60                network_task
 .text          0x0000000000004280     0x156c obj/default/fmc/ad9144/ad9144.o
                0x0000000000004280                ad9144_spi_read
                0x0000000000004308                ad9144_spi_write
                0x0000000000004384                ad9144_spi_check_status
                0x0000000000004430                ad9144_spi_write_seq
                0x00000000000044c4                ad9144_setup_jesd204_link
                0x0000000000004aa0                ad9144_setup
                0x0000000000005094                ad9144_dac_calibrate
                0x00000000000051d0                ad9144_remove
                0x0000000000005218                ad9144_status
                0x0000000000005448                ad9144_short_pattern_test
                0x0000000000005670                ad9144_datapath_prbs_test
 .text          0x00000000000057ec     0x16dc obj/default/fmc/ad9523/ad9523.o
                0x00000000000057ec                ad9523_spi_read
                0x00000000000058dc                ad9523_spi_write
                0x00000000000059b0                ad9523_io_update
                0x00000000000059ec                ad9523_vco_out_map
                0x0000000000005c3c                ad9523_calibrate
                0x0000000000005d18                ad9523_status
                0x0000000000005e6c                ad9523_sync
                0x0000000000005f50                ad9523_init
                0x0000000000006220                ad9523_setup
                0x0000000000006e80                ad9523_remove
 .text          0x0000000000006ec8      0x500 obj/default/fmc/ad9680/ad9680.o
                0x0000000000006ec8                ad9680_spi_read
                0x0000000000006f50                ad9680_spi_write
                0x0000000000006fcc                ad9680_check_pdwn
                0x0000000000007080                ad9680_test
                0x0000000000007144                ad9680_setup
                0x0000000000007380                ad9680_remove
 .text          0x00000000000073c8      0xdfc obj/default/fmc/common_drivers/adc_core/adc_core.o
                0x00000000000073c8                adc_read
                0x0000000000007430                adc_write
                0x0000000000007478                adc_setup
                0x00000000000075fc                adc_set_delay
                0x0000000000007718                adc_delay_calibrate
                0x0000000000007a98                adc_set_pnsel
                0x0000000000007b50                adc_pn_mon
                0x0000000000007cd4                adc_ramp_test
 .text          0x00000000000081c4      0x160 obj/default/fmc/common_drivers/communication/generic/Communication.o
                0x00000000000081c4                I2C_Init
                0x00000000000081e8                I2C_Write
                0x000000000000822c                I2C_Read
                0x0000000000008270                SPI_Init
                0x00000000000082b4                SPI_Read
                0x00000000000082ec                SPI_Write
 .text          0x0000000000008324      0x26c obj/default/fmc/common_drivers/dac_buffer/dac_buffer.o
                0x0000000000008324                dac_buffer_load
 .text          0x0000000000008590      0x974 obj/default/fmc/common_drivers/dac_core/dac_core.o
                0x0000000000008590                dac_read
                0x00000000000085fc                dac_write
                0x0000000000008648                dds_set_frequency
                0x00000000000087fc                dds_set_phase
                0x0000000000008964                dds_set_scale
                0x0000000000008ae4                dac_data_src_sel
                0x0000000000008bf8                dac_setup
                0x0000000000008cf8                dac_data_setup
 .text          0x0000000000008f04      0x420 obj/default/fmc/common_drivers/dmac_core/dmac_core.o
                0x0000000000008f04                dmac_read
                0x0000000000008f50                dmac_write
                0x0000000000008f98                dmac_start_transaction
 .text          0x0000000000009324     0x2038 obj/default/fmc/common_drivers/fru_tools/fru_tools.o
                0x0000000000009324                calc_zero_checksum
                0x000000000000938c                min2date
                0x0000000000009400                ascii2six
                0x00000000000096e4                six2ascii
                0x000000000000992c                parse_string
                0x0000000000009cdc                parse_board_area
                0x000000000000a184                parse_multiboard_area
                0x000000000000a660                parse_FRU
                0x000000000000a834                free_FRU
                0x000000000000ac00                build_FRU_blob
 .text          0x000000000000b35c      0xaac obj/default/fmc/common_drivers/jesd_core/jesd_core.o
                0x000000000000b35c                jesd_read
                0x000000000000b3a8                jesd_write
                0x000000000000b3f0                jesd_setup
                0x000000000000b490                jesd_sysref_control
                0x000000000000b52c                jesd_status
                0x000000000000b630                axi_jesd204_rx_status_read
                0x000000000000b828                axi_jesd204_tx_status_read
                0x000000000000ba30                axi_jesd204_rx_laneinfo_read
 .text          0x000000000000be08      0x920 obj/default/fmc/common_drivers/platform_drivers/platform_drivers.o
                0x000000000000be08                i2c_init
                0x000000000000be30                i2c_remove
                0x000000000000be54                i2c_write
                0x000000000000be90                i2c_read
                0x000000000000becc                spi_init
                0x000000000000bf90                spi_remove
                0x000000000000bfc4                spi_write_and_read
                0x000000000000c0b0                gpio_get
                0x000000000000c160                gpio_remove
                0x000000000000c194                gpio_direction_input
                0x000000000000c1b8                gpio_direction_output
                0x000000000000c1e4                gpio_get_direction
                0x000000000000c20c                gpio_set_value
                0x000000000000c2f4                gpio_get_value
                0x000000000000c37c                ad_gpio_set_range
                0x000000000000c43c                ad_gpio_get_range
                0x000000000000c4e4                do_div
                0x000000000000c5a0                ad_reg_write_16
                0x000000000000c630                ad_platform_init
                0x000000000000c650                ad_platform_close
                0x000000000000c688                ad_uart_read
                0x000000000000c6c8                ad_pow2
 .text          0x000000000000c728      0x8f4 obj/default/fmc/common_drivers/xcvr_core/xcvr_core.o
                0x000000000000c728                xcvr_read
                0x000000000000c774                xcvr_write
                0x000000000000c7bc                xcvr_setup
                0x000000000000c938                xcvr_getconfig
                0x000000000000ca28                xcvr_reset
                0x000000000000cae8                dump_registers
                0x000000000000ceac                xcvr_finalize_lane_rate_change
 .text          0x000000000000d01c      0xc34 obj/default/fmc/common_drivers/xcvr_core/xcvr_modules/altera_a10_atx_pll.o
                0x000000000000d01c                atx_lookup_band
                0x000000000000d0a8                atx_lookup_tank
                0x000000000000d0fc                atx_lookup_cp_current
                0x000000000000d310                atx_lookup_lf_resistance
                0x000000000000d494                atx_calc_params
                0x000000000000d6b4                atx_pll_round_rate
                0x000000000000d7ec                atx_pll_set_rate
                0x000000000000daa0                atx_pll_recalc_rate
 .text          0x000000000000dc50      0xea8 obj/default/fmc/common_drivers/xcvr_core/xcvr_modules/altera_a10_fpll.o
                0x000000000000dc50                fpll_lookup_lf_resistance
                0x000000000000dd48                fpll_lookup_cp_current
                0x000000000000e2a4                fpll_calc_params
                0x000000000000e618                fpll_round_rate
                0x000000000000e744                fpll_set_rate
                0x000000000000e92c                fpll_recalc_rate
 .text          0x000000000000eaf8     0x11b0 obj/default/fmc/common_drivers/xcvr_core/xcvr_modules/altera_a10_xcvr_channel.o
                0x000000000000eaf8                altera_a10_cdr_lookup_vco_speed
                0x000000000000eb4c                altera_a10_cdr_lookup_vco_speed_fix
                0x000000000000ec00                altera_a10_cdr_lookup_cp_current_pd
                0x000000000000ec4c                altera_a10_cdr_lookup_clklow_div
                0x000000000000ec88                altera_a10_cdr_lookup_fastlock
                0x000000000000ecc0                altera_a10_cdr_lookup_lf_resistor_pd
                0x000000000000ed4c                altera_a10_cdr_lookup_lf_resistor_pfd
                0x000000000000eec0                altera_a10_cdr_lookup_cp_current_pfd
                0x000000000000f25c                altera_a10_cdr_calc_params
                0x000000000000f504                altera_a10_cdr_pll_round_rate
                0x000000000000f654                altera_a10_cdr_pll_set_rate
                0x000000000000fb94                altera_a10_calib_tx_pll
 .text          0x000000000000fca8      0x584 obj/default/fmc/common_drivers/xcvr_core/xcvr_modules/altera_pll_common.o
                0x000000000000fca8                a10_pll_read
                0x000000000000fcf8                a10_pll_write
                0x000000000000fd44                pll_update
                0x000000000000fdc8                altera_a10_acquire_arbitration
                0x000000000000feb0                altera_a10_release_arbitration
                0x000000000000ff08                pll_calibration_check
                0x0000000000010070                pll_is_enabled
                0x000000000001010c                pll_enable
                0x000000000001019c                pll_disable
 .text          0x000000000001022c        0x0 obj/default/fmc/common_drivers/xcvr_core/xcvr_modules/xilinx_qpll.o
 .text          0x000000000001022c        0x0 obj/default/fmc/common_drivers/xcvr_core/xcvr_modules/xilinx_xcvr_channel.o
 .text          0x000000000001022c      0x28c obj/default/iioscope.o
                0x000000000001022c                iioscope_init
                0x00000000000102f0                iioscope_process_rx
                0x000000000001032c                iioscope_process_ctrl_rx
                0x0000000000010368                iioscope_process
 .text          0x00000000000104b8     0x169c obj/default/jesd204b.o
                0x00000000000104b8                get_adc_buffer
                0x00000000000104dc                memory_testing
                0x00000000000106d8                fmcdaq2_reconfig
                0x0000000000010b54                daq2_deinit
                0x0000000000010bec                daq2_init
                0x000000000001179c                daq2_transaction_adc
                0x0000000000011908                daq2_transaction_dac
                0x0000000000011988                mem_writing
                0x0000000000011a08                mem_reading
                0x0000000000011a84                mem_testing
 .text          0x0000000000011b54       0x98 obj/default/main.o
                0x0000000000011b54                exception_handler
                0x0000000000011b84                main
 .text          0x0000000000011bec       0xf0 obj/default/support.o
                0x0000000000011bec                cmp_s
 .text          0x0000000000011cdc       0x60 c:/intelfpga_pro/18.1/nios2eds/bin/gnu/h-x86_64-mingw32/bin/../lib/gcc/nios2-elf/7.3.1\libgcc.a(_muldi3.o)
                0x0000000000011cdc                __muldi3
 .text          0x0000000000011d3c       0x28 c:/intelfpga_pro/18.1/nios2eds/bin/gnu/h-x86_64-mingw32/bin/../lib/gcc/nios2-elf/7.3.1\libgcc.a(_bswapsi2.o)
                0x0000000000011d3c                __bswapsi2
 .text          0x0000000000011d64       0x74 c:/intelfpga_pro/18.1/nios2eds/bin/gnu/h-x86_64-mingw32/bin/../lib/gcc/nios2-elf/7.3.1\libgcc.a(_fixunsdfsi.o)
                0x0000000000011d64                __fixunsdfsi
 .text          0x0000000000011dd8       0x90 c:/intelfpga_pro/18.1/nios2eds/bin/gnu/h-x86_64-mingw32/bin/../lib/gcc/nios2-elf/7.3.1\libgcc.a(_fixunsdfdi.o)
                0x0000000000011dd8                __fixunsdfdi
 .text          0x0000000000011e68      0x598 c:/intelfpga_pro/18.1/nios2eds/bin/gnu/h-x86_64-mingw32/bin/../lib/gcc/nios2-elf/7.3.1\libgcc.a(_udivdi3.o)
                0x0000000000011e68                __udivdi3
 .text          0x0000000000012400      0x554 c:/intelfpga_pro/18.1/nios2eds/bin/gnu/h-x86_64-mingw32/bin/../lib/gcc/nios2-elf/7.3.1\libgcc.a(_umoddi3.o)
                0x0000000000012400                __umoddi3
 .text          0x0000000000012954      0x1bc c:/intelfpga_pro/18.1/nios2eds/bin/gnu/h-x86_64-mingw32/bin/../lib/gcc/nios2-elf/7.3.1\libgcc.a(lib2-divmod.o)
                0x0000000000012954                __divsi3
                0x00000000000129dc                __modsi3
                0x0000000000012a54                __udivsi3
                0x0000000000012ab8                __umodsi3
 .text          0x0000000000012b10      0x8c0 c:/intelfpga_pro/18.1/nios2eds/bin/gnu/h-x86_64-mingw32/bin/../lib/gcc/nios2-elf/7.3.1\libgcc.a(adddf3.o)
                0x0000000000012b10                __adddf3
 .text          0x00000000000133d0      0x8cc c:/intelfpga_pro/18.1/nios2eds/bin/gnu/h-x86_64-mingw32/bin/../lib/gcc/nios2-elf/7.3.1\libgcc.a(divdf3.o)
                0x00000000000133d0                __divdf3
 .text          0x0000000000013c9c       0xe0 c:/intelfpga_pro/18.1/nios2eds/bin/gnu/h-x86_64-mingw32/bin/../lib/gcc/nios2-elf/7.3.1\libgcc.a(gedf2.o)
                0x0000000000013c9c                __gedf2
                0x0000000000013c9c                __gtdf2
 .text          0x0000000000013d7c      0x6dc c:/intelfpga_pro/18.1/nios2eds/bin/gnu/h-x86_64-mingw32/bin/../lib/gcc/nios2-elf/7.3.1\libgcc.a(muldf3.o)
                0x0000000000013d7c                __muldf3
 .text          0x0000000000014458      0x8d4 c:/intelfpga_pro/18.1/nios2eds/bin/gnu/h-x86_64-mingw32/bin/../lib/gcc/nios2-elf/7.3.1\libgcc.a(subdf3.o)
                0x0000000000014458                __subdf3
 .text          0x0000000000014d2c       0x80 c:/intelfpga_pro/18.1/nios2eds/bin/gnu/h-x86_64-mingw32/bin/../lib/gcc/nios2-elf/7.3.1\libgcc.a(fixdfsi.o)
                0x0000000000014d2c                __fixdfsi
 .text          0x0000000000014dac       0x9c c:/intelfpga_pro/18.1/nios2eds/bin/gnu/h-x86_64-mingw32/bin/../lib/gcc/nios2-elf/7.3.1\libgcc.a(floatunsidf.o)
                0x0000000000014dac                __floatunsidf
 .text          0x0000000000014e48      0x10c c:/intelfpga_pro/18.1/nios2eds/bin/gnu/h-x86_64-mingw32/bin/../lib/gcc/nios2-elf/7.3.1\libgcc.a(extendsfdf2.o)
                0x0000000000014e48                __extendsfdf2
 .text          0x0000000000014f54        0x0 c:/intelfpga_pro/18.1/nios2eds/bin/gnu/h-x86_64-mingw32/bin/../lib/gcc/nios2-elf/7.3.1\libgcc.a(_clz.o)
 .text          0x0000000000014f54       0x54 c:/intelfpga_pro/18.1/nios2eds/bin/gnu/h-x86_64-mingw32/bin/../lib/gcc/nios2-elf/7.3.1\libgcc.a(_clzsi2.o)
                0x0000000000014f54                __clzsi2
 .text          0x0000000000014fa8        0x0 c:/intelfpga_pro/18.1/nios2eds/bin/gnu/h-x86_64-mingw32/bin/../lib/gcc/nios2-elf/7.3.1/../../../../../H-x86_64-mingw32/nios2-elf/lib\libc.a(lib_a-calloc.o)
 .text.calloc   0x0000000000014fa8       0x14 c:/intelfpga_pro/18.1/nios2eds/bin/gnu/h-x86_64-mingw32/bin/../lib/gcc/nios2-elf/7.3.1/../../../../../H-x86_64-mingw32/nios2-elf/lib\libc.a(lib_a-calloc.o)
                0x0000000000014fa8                calloc
 .text          0x0000000000014fbc        0x0 c:/intelfpga_pro/18.1/nios2eds/bin/gnu/h-x86_64-mingw32/bin/../lib/gcc/nios2-elf/7.3.1/../../../../../H-x86_64-mingw32/nios2-elf/lib\libc.a(lib_a-callocr.o)
 .text._calloc_r
                0x0000000000014fbc       0xbc c:/intelfpga_pro/18.1/nios2eds/bin/gnu/h-x86_64-mingw32/bin/../lib/gcc/nios2-elf/7.3.1/../../../../../H-x86_64-mingw32/nios2-elf/lib\libc.a(lib_a-callocr.o)
                0x0000000000014fbc                _calloc_r
 .text          0x0000000000015078        0x0 c:/intelfpga_pro/18.1/nios2eds/bin/gnu/h-x86_64-mingw32/bin/../lib/gcc/nios2-elf/7.3.1/../../../../../H-x86_64-mingw32/nios2-elf/lib\libc.a(lib_a-getc.o)
 .text._getc_r  0x0000000000015078       0x7c c:/intelfpga_pro/18.1/nios2eds/bin/gnu/h-x86_64-mingw32/bin/../lib/gcc/nios2-elf/7.3.1/../../../../../H-x86_64-mingw32/nios2-elf/lib\libc.a(lib_a-getc.o)
                0x0000000000015078                _getc_r
 .text.getc     0x00000000000150f4       0x90 c:/intelfpga_pro/18.1/nios2eds/bin/gnu/h-x86_64-mingw32/bin/../lib/gcc/nios2-elf/7.3.1/../../../../../H-x86_64-mingw32/nios2-elf/lib\libc.a(lib_a-getc.o)
                0x00000000000150f4                getc
 .text          0x0000000000015184        0x0 c:/intelfpga_pro/18.1/nios2eds/bin/gnu/h-x86_64-mingw32/bin/../lib/gcc/nios2-elf/7.3.1/../../../../../H-x86_64-mingw32/nios2-elf/lib\libc.a(lib_a-impure.o)
 .text          0x0000000000015184        0x0 c:/intelfpga_pro/18.1/nios2eds/bin/gnu/h-x86_64-mingw32/bin/../lib/gcc/nios2-elf/7.3.1/../../../../../H-x86_64-mingw32/nios2-elf/lib\libc.a(lib_a-locale.o)
 .text._setlocale_r
                0x0000000000015184       0x7c c:/intelfpga_pro/18.1/nios2eds/bin/gnu/h-x86_64-mingw32/bin/../lib/gcc/nios2-elf/7.3.1/../../../../../H-x86_64-mingw32/nios2-elf/lib\libc.a(lib_a-locale.o)
                0x0000000000015184                _setlocale_r
 .text.__locale_mb_cur_max
                0x0000000000015200       0x20 c:/intelfpga_pro/18.1/nios2eds/bin/gnu/h-x86_64-mingw32/bin/../lib/gcc/nios2-elf/7.3.1/../../../../../H-x86_64-mingw32/nios2-elf/lib\libc.a(lib_a-locale.o)
                0x0000000000015200                __locale_mb_cur_max
 .text.__locale_ctype_ptr_l
                0x0000000000015220        0x8 c:/intelfpga_pro/18.1/nios2eds/bin/gnu/h-x86_64-mingw32/bin/../lib/gcc/nios2-elf/7.3.1/../../../../../H-x86_64-mingw32/nios2-elf/lib\libc.a(lib_a-locale.o)
                0x0000000000015220                __locale_ctype_ptr_l
 .text.__locale_ctype_ptr
                0x0000000000015228       0x20 c:/intelfpga_pro/18.1/nios2eds/bin/gnu/h-x86_64-mingw32/bin/../lib/gcc/nios2-elf/7.3.1/../../../../../H-x86_64-mingw32/nios2-elf/lib\libc.a(lib_a-locale.o)
                0x0000000000015228                __locale_ctype_ptr
 .text.setlocale
                0x0000000000015248       0x14 c:/intelfpga_pro/18.1/nios2eds/bin/gnu/h-x86_64-mingw32/bin/../lib/gcc/nios2-elf/7.3.1/../../../../../H-x86_64-mingw32/nios2-elf/lib\libc.a(lib_a-locale.o)
                0x0000000000015248                setlocale
 .text          0x000000000001525c        0x0 c:/intelfpga_pro/18.1/nios2eds/bin/gnu/h-x86_64-mingw32/bin/../lib/gcc/nios2-elf/7.3.1/../../../../../H-x86_64-mingw32/nios2-elf/lib\libc.a(lib_a-malloc.o)
 .text.malloc   0x000000000001525c       0x10 c:/intelfpga_pro/18.1/nios2eds/bin/gnu/h-x86_64-mingw32/bin/../lib/gcc/nios2-elf/7.3.1/../../../../../H-x86_64-mingw32/nios2-elf/lib\libc.a(lib_a-malloc.o)
                0x000000000001525c                malloc
 .text.free     0x000000000001526c       0x10 c:/intelfpga_pro/18.1/nios2eds/bin/gnu/h-x86_64-mingw32/bin/../lib/gcc/nios2-elf/7.3.1/../../../../../H-x86_64-mingw32/nios2-elf/lib\libc.a(lib_a-malloc.o)
                0x000000000001526c                free
 .text          0x000000000001527c        0x0 c:/intelfpga_pro/18.1/nios2eds/bin/gnu/h-x86_64-mingw32/bin/../lib/gcc/nios2-elf/7.3.1/../../../../../H-x86_64-mingw32/nios2-elf/lib\libc.a(lib_a-mallocr.o)
 .text._malloc_r
                0x000000000001527c      0x7d8 c:/intelfpga_pro/18.1/nios2eds/bin/gnu/h-x86_64-mingw32/bin/../lib/gcc/nios2-elf/7.3.1/../../../../../H-x86_64-mingw32/nios2-elf/lib\libc.a(lib_a-mallocr.o)
                0x000000000001527c                _malloc_r
 .text          0x0000000000015a54        0x0 c:/intelfpga_pro/18.1/nios2eds/bin/gnu/h-x86_64-mingw32/bin/../lib/gcc/nios2-elf/7.3.1/../../../../../H-x86_64-mingw32/nios2-elf/lib\libc.a(lib_a-mbtowc_r.o)
 .text._mbtowc_r
                0x0000000000015a54       0x28 c:/intelfpga_pro/18.1/nios2eds/bin/gnu/h-x86_64-mingw32/bin/../lib/gcc/nios2-elf/7.3.1/../../../../../H-x86_64-mingw32/nios2-elf/lib\libc.a(lib_a-mbtowc_r.o)
                0x0000000000015a54                _mbtowc_r
 .text.__ascii_mbtowc
                0x0000000000015a7c       0x44 c:/intelfpga_pro/18.1/nios2eds/bin/gnu/h-x86_64-mingw32/bin/../lib/gcc/nios2-elf/7.3.1/../../../../../H-x86_64-mingw32/nios2-elf/lib\libc.a(lib_a-mbtowc_r.o)
                0x0000000000015a7c                __ascii_mbtowc
 .text          0x0000000000015ac0        0x0 c:/intelfpga_pro/18.1/nios2eds/bin/gnu/h-x86_64-mingw32/bin/../lib/gcc/nios2-elf/7.3.1/../../../../../H-x86_64-mingw32/nios2-elf/lib\libc.a(lib_a-memcpy.o)
 .text.memcpy   0x0000000000015ac0       0xf0 c:/intelfpga_pro/18.1/nios2eds/bin/gnu/h-x86_64-mingw32/bin/../lib/gcc/nios2-elf/7.3.1/../../../../../H-x86_64-mingw32/nios2-elf/lib\libc.a(lib_a-memcpy.o)
                0x0000000000015ac0                memcpy
 .text          0x0000000000015bb0        0x0 c:/intelfpga_pro/18.1/nios2eds/bin/gnu/h-x86_64-mingw32/bin/../lib/gcc/nios2-elf/7.3.1/../../../../../H-x86_64-mingw32/nios2-elf/lib\libc.a(lib_a-memset.o)
 .text.memset   0x0000000000015bb0       0xfc c:/intelfpga_pro/18.1/nios2eds/bin/gnu/h-x86_64-mingw32/bin/../lib/gcc/nios2-elf/7.3.1/../../../../../H-x86_64-mingw32/nios2-elf/lib\libc.a(lib_a-memset.o)
                0x0000000000015bb0                memset
 .text          0x0000000000015cac        0x0 c:/intelfpga_pro/18.1/nios2eds/bin/gnu/h-x86_64-mingw32/bin/../lib/gcc/nios2-elf/7.3.1/../../../../../H-x86_64-mingw32/nios2-elf/lib\libc.a(lib_a-mktime.o)
 .text.validate_structure
                0x0000000000015cac      0x2b0 c:/intelfpga_pro/18.1/nios2eds/bin/gnu/h-x86_64-mingw32/bin/../lib/gcc/nios2-elf/7.3.1/../../../../../H-x86_64-mingw32/nios2-elf/lib\libc.a(lib_a-mktime.o)
 .text.mktime   0x0000000000015f5c      0x3c0 c:/intelfpga_pro/18.1/nios2eds/bin/gnu/h-x86_64-mingw32/bin/../lib/gcc/nios2-elf/7.3.1/../../../../../H-x86_64-mingw32/nios2-elf/lib\libc.a(lib_a-mktime.o)
                0x0000000000015f5c                mktime
 .text          0x000000000001631c        0x0 c:/intelfpga_pro/18.1/nios2eds/bin/gnu/h-x86_64-mingw32/bin/../lib/gcc/nios2-elf/7.3.1/../../../../../H-x86_64-mingw32/nios2-elf/lib\libc.a(lib_a-printf.o)
 .text._printf_r
                0x000000000001631c       0x30 c:/intelfpga_pro/18.1/nios2eds/bin/gnu/h-x86_64-mingw32/bin/../lib/gcc/nios2-elf/7.3.1/../../../../../H-x86_64-mingw32/nios2-elf/lib\libc.a(lib_a-printf.o)
                0x000000000001631c                _printf_r
 .text.printf   0x000000000001634c       0x38 c:/intelfpga_pro/18.1/nios2eds/bin/gnu/h-x86_64-mingw32/bin/../lib/gcc/nios2-elf/7.3.1/../../../../../H-x86_64-mingw32/nios2-elf/lib\libc.a(lib_a-printf.o)
                0x000000000001634c                printf
 .text          0x0000000000016384        0x0 c:/intelfpga_pro/18.1/nios2eds/bin/gnu/h-x86_64-mingw32/bin/../lib/gcc/nios2-elf/7.3.1/../../../../../H-x86_64-mingw32/nios2-elf/lib\libc.a(lib_a-putchar.o)
 .text._putchar_r
                0x0000000000016384        0x8 c:/intelfpga_pro/18.1/nios2eds/bin/gnu/h-x86_64-mingw32/bin/../lib/gcc/nios2-elf/7.3.1/../../../../../H-x86_64-mingw32/nios2-elf/lib\libc.a(lib_a-putchar.o)
                0x0000000000016384                _putchar_r
 .text.putchar  0x000000000001638c       0x18 c:/intelfpga_pro/18.1/nios2eds/bin/gnu/h-x86_64-mingw32/bin/../lib/gcc/nios2-elf/7.3.1/../../../../../H-x86_64-mingw32/nios2-elf/lib\libc.a(lib_a-putchar.o)
                0x000000000001638c                putchar
 .text          0x00000000000163a4        0x0 c:/intelfpga_pro/18.1/nios2eds/bin/gnu/h-x86_64-mingw32/bin/../lib/gcc/nios2-elf/7.3.1/../../../../../H-x86_64-mingw32/nios2-elf/lib\libc.a(lib_a-puts.o)
 .text._puts_r  0x00000000000163a4       0xcc c:/intelfpga_pro/18.1/nios2eds/bin/gnu/h-x86_64-mingw32/bin/../lib/gcc/nios2-elf/7.3.1/../../../../../H-x86_64-mingw32/nios2-elf/lib\libc.a(lib_a-puts.o)
                0x00000000000163a4                _puts_r
 .text.puts     0x0000000000016470       0x10 c:/intelfpga_pro/18.1/nios2eds/bin/gnu/h-x86_64-mingw32/bin/../lib/gcc/nios2-elf/7.3.1/../../../../../H-x86_64-mingw32/nios2-elf/lib\libc.a(lib_a-puts.o)
                0x0000000000016470                puts
 .text          0x0000000000016480        0x0 c:/intelfpga_pro/18.1/nios2eds/bin/gnu/h-x86_64-mingw32/bin/../lib/gcc/nios2-elf/7.3.1/../../../../../H-x86_64-mingw32/nios2-elf/lib\libc.a(lib_a-rget.o)
 .text.__srget_r
                0x0000000000016480       0x74 c:/intelfpga_pro/18.1/nios2eds/bin/gnu/h-x86_64-mingw32/bin/../lib/gcc/nios2-elf/7.3.1/../../../../../H-x86_64-mingw32/nios2-elf/lib\libc.a(lib_a-rget.o)
                0x0000000000016480                __srget_r
 .text.__srget  0x00000000000164f4       0x10 c:/intelfpga_pro/18.1/nios2eds/bin/gnu/h-x86_64-mingw32/bin/../lib/gcc/nios2-elf/7.3.1/../../../../../H-x86_64-mingw32/nios2-elf/lib\libc.a(lib_a-rget.o)
                0x00000000000164f4                __srget
 .text          0x0000000000016504        0x0 c:/intelfpga_pro/18.1/nios2eds/bin/gnu/h-x86_64-mingw32/bin/../lib/gcc/nios2-elf/7.3.1/../../../../../H-x86_64-mingw32/nios2-elf/lib\libc.a(lib_a-sbrkr.o)
 .text._sbrk_r  0x0000000000016504       0x58 c:/intelfpga_pro/18.1/nios2eds/bin/gnu/h-x86_64-mingw32/bin/../lib/gcc/nios2-elf/7.3.1/../../../../../H-x86_64-mingw32/nios2-elf/lib\libc.a(lib_a-sbrkr.o)
                0x0000000000016504                _sbrk_r
 .text          0x000000000001655c        0x0 c:/intelfpga_pro/18.1/nios2eds/bin/gnu/h-x86_64-mingw32/bin/../lib/gcc/nios2-elf/7.3.1/../../../../../H-x86_64-mingw32/nios2-elf/lib\libc.a(lib_a-sprintf.o)
 .text._sprintf_r
                0x000000000001655c       0x54 c:/intelfpga_pro/18.1/nios2eds/bin/gnu/h-x86_64-mingw32/bin/../lib/gcc/nios2-elf/7.3.1/../../../../../H-x86_64-mingw32/nios2-elf/lib\libc.a(lib_a-sprintf.o)
                0x000000000001655c                _sprintf_r
 .text.sprintf  0x00000000000165b0       0x64 c:/intelfpga_pro/18.1/nios2eds/bin/gnu/h-x86_64-mingw32/bin/../lib/gcc/nios2-elf/7.3.1/../../../../../H-x86_64-mingw32/nios2-elf/lib\libc.a(lib_a-sprintf.o)
                0x00000000000165b0                sprintf
 .text          0x0000000000016614        0x0 c:/intelfpga_pro/18.1/nios2eds/bin/gnu/h-x86_64-mingw32/bin/../lib/gcc/nios2-elf/7.3.1/../../../../../H-x86_64-mingw32/nios2-elf/lib\libc.a(lib_a-strcmp.o)
 .text.strcmp   0x0000000000016614       0xcc c:/intelfpga_pro/18.1/nios2eds/bin/gnu/h-x86_64-mingw32/bin/../lib/gcc/nios2-elf/7.3.1/../../../../../H-x86_64-mingw32/nios2-elf/lib\libc.a(lib_a-strcmp.o)
                0x0000000000016614                strcmp
 .text          0x00000000000166e0        0x0 c:/intelfpga_pro/18.1/nios2eds/bin/gnu/h-x86_64-mingw32/bin/../lib/gcc/nios2-elf/7.3.1/../../../../../H-x86_64-mingw32/nios2-elf/lib\libc.a(lib_a-strcpy.o)
 .text.strcpy   0x00000000000166e0       0x8c c:/intelfpga_pro/18.1/nios2eds/bin/gnu/h-x86_64-mingw32/bin/../lib/gcc/nios2-elf/7.3.1/../../../../../H-x86_64-mingw32/nios2-elf/lib\libc.a(lib_a-strcpy.o)
                0x00000000000166e0                strcpy
 .text          0x000000000001676c        0x0 c:/intelfpga_pro/18.1/nios2eds/bin/gnu/h-x86_64-mingw32/bin/../lib/gcc/nios2-elf/7.3.1/../../../../../H-x86_64-mingw32/nios2-elf/lib\libc.a(lib_a-strlen.o)
 .text.strlen   0x000000000001676c       0x90 c:/intelfpga_pro/18.1/nios2eds/bin/gnu/h-x86_64-mingw32/bin/../lib/gcc/nios2-elf/7.3.1/../../../../../H-x86_64-mingw32/nios2-elf/lib\libc.a(lib_a-strlen.o)
                0x000000000001676c                strlen
 .text          0x00000000000167fc        0x0 c:/intelfpga_pro/18.1/nios2eds/bin/gnu/h-x86_64-mingw32/bin/../lib/gcc/nios2-elf/7.3.1/../../../../../H-x86_64-mingw32/nios2-elf/lib\libc.a(lib_a-svfprintf.o)
 .text.___svfprintf_internal_r
                0x00000000000167fc     0x1fb4 c:/intelfpga_pro/18.1/nios2eds/bin/gnu/h-x86_64-mingw32/bin/../lib/gcc/nios2-elf/7.3.1/../../../../../H-x86_64-mingw32/nios2-elf/lib\libc.a(lib_a-svfprintf.o)
                0x00000000000167fc                ___svfprintf_internal_r
 .text          0x00000000000187b0        0x0 c:/intelfpga_pro/18.1/nios2eds/bin/gnu/h-x86_64-mingw32/bin/../lib/gcc/nios2-elf/7.3.1/../../../../../H-x86_64-mingw32/nios2-elf/lib\libc.a(lib_a-tzcalc_limits.o)
 .text.__tzcalc_limits
                0x00000000000187b0      0x228 c:/intelfpga_pro/18.1/nios2eds/bin/gnu/h-x86_64-mingw32/bin/../lib/gcc/nios2-elf/7.3.1/../../../../../H-x86_64-mingw32/nios2-elf/lib\libc.a(lib_a-tzcalc_limits.o)
                0x00000000000187b0                __tzcalc_limits
 .text          0x00000000000189d8        0x0 c:/intelfpga_pro/18.1/nios2eds/bin/gnu/h-x86_64-mingw32/bin/../lib/gcc/nios2-elf/7.3.1/../../../../../H-x86_64-mingw32/nios2-elf/lib\libc.a(lib_a-tzlock.o)
 .text.__tz_lock
                0x00000000000189d8        0x4 c:/intelfpga_pro/18.1/nios2eds/bin/gnu/h-x86_64-mingw32/bin/../lib/gcc/nios2-elf/7.3.1/../../../../../H-x86_64-mingw32/nios2-elf/lib\libc.a(lib_a-tzlock.o)
                0x00000000000189d8                __tz_lock
 .text.__tz_unlock
                0x00000000000189dc        0x4 c:/intelfpga_pro/18.1/nios2eds/bin/gnu/h-x86_64-mingw32/bin/../lib/gcc/nios2-elf/7.3.1/../../../../../H-x86_64-mingw32/nios2-elf/lib\libc.a(lib_a-tzlock.o)
                0x00000000000189dc                __tz_unlock
 .text          0x00000000000189e0        0x0 c:/intelfpga_pro/18.1/nios2eds/bin/gnu/h-x86_64-mingw32/bin/../lib/gcc/nios2-elf/7.3.1/../../../../../H-x86_64-mingw32/nios2-elf/lib\libc.a(lib_a-tzset.o)
 .text._tzset_unlocked
                0x00000000000189e0        0xc c:/intelfpga_pro/18.1/nios2eds/bin/gnu/h-x86_64-mingw32/bin/../lib/gcc/nios2-elf/7.3.1/../../../../../H-x86_64-mingw32/nios2-elf/lib\libc.a(lib_a-tzset.o)
                0x00000000000189e0                _tzset_unlocked
 .text.tzset    0x00000000000189ec       0x24 c:/intelfpga_pro/18.1/nios2eds/bin/gnu/h-x86_64-mingw32/bin/../lib/gcc/nios2-elf/7.3.1/../../../../../H-x86_64-mingw32/nios2-elf/lib\libc.a(lib_a-tzset.o)
                0x00000000000189ec                tzset
 .text          0x0000000000018a10        0x0 c:/intelfpga_pro/18.1/nios2eds/bin/gnu/h-x86_64-mingw32/bin/../lib/gcc/nios2-elf/7.3.1/../../../../../H-x86_64-mingw32/nios2-elf/lib\libc.a(lib_a-tzset_r.o)
 .text._tzset_unlocked_r
                0x0000000000018a10      0x4e8 c:/intelfpga_pro/18.1/nios2eds/bin/gnu/h-x86_64-mingw32/bin/../lib/gcc/nios2-elf/7.3.1/../../../../../H-x86_64-mingw32/nios2-elf/lib\libc.a(lib_a-tzset_r.o)
                0x0000000000018a10                _tzset_unlocked_r
 .text._tzset_r
                0x0000000000018ef8       0x24 c:/intelfpga_pro/18.1/nios2eds/bin/gnu/h-x86_64-mingw32/bin/../lib/gcc/nios2-elf/7.3.1/../../../../../H-x86_64-mingw32/nios2-elf/lib\libc.a(lib_a-tzset_r.o)
                0x0000000000018ef8                _tzset_r
 .text          0x0000000000018f1c        0x0 c:/intelfpga_pro/18.1/nios2eds/bin/gnu/h-x86_64-mingw32/bin/../lib/gcc/nios2-elf/7.3.1/../../../../../H-x86_64-mingw32/nios2-elf/lib\libc.a(lib_a-tzvars.o)
 .text          0x0000000000018f1c        0x0 c:/intelfpga_pro/18.1/nios2eds/bin/gnu/h-x86_64-mingw32/bin/../lib/gcc/nios2-elf/7.3.1/../../../../../H-x86_64-mingw32/nios2-elf/lib\libc.a(lib_a-vfprintf.o)
 .text.___vfprintf_internal_r
                0x0000000000018f1c     0x1fb4 c:/intelfpga_pro/18.1/nios2eds/bin/gnu/h-x86_64-mingw32/bin/../lib/gcc/nios2-elf/7.3.1/../../../../../H-x86_64-mingw32/nios2-elf/lib\libc.a(lib_a-vfprintf.o)
                0x0000000000018f1c                ___vfprintf_internal_r
 .text.__vfprintf_internal
                0x000000000001aed0       0x18 c:/intelfpga_pro/18.1/nios2eds/bin/gnu/h-x86_64-mingw32/bin/../lib/gcc/nios2-elf/7.3.1/../../../../../H-x86_64-mingw32/nios2-elf/lib\libc.a(lib_a-vfprintf.o)
                0x000000000001aed0                __vfprintf_internal
 .text.__sbprintf
                0x000000000001aee8       0xc0 c:/intelfpga_pro/18.1/nios2eds/bin/gnu/h-x86_64-mingw32/bin/../lib/gcc/nios2-elf/7.3.1/../../../../../H-x86_64-mingw32/nios2-elf/lib\libc.a(lib_a-vfprintf.o)
 .text          0x000000000001afa8        0x0 c:/intelfpga_pro/18.1/nios2eds/bin/gnu/h-x86_64-mingw32/bin/../lib/gcc/nios2-elf/7.3.1/../../../../../H-x86_64-mingw32/nios2-elf/lib\libc.a(lib_a-wctomb_r.o)
 .text._wctomb_r
                0x000000000001afa8       0x20 c:/intelfpga_pro/18.1/nios2eds/bin/gnu/h-x86_64-mingw32/bin/../lib/gcc/nios2-elf/7.3.1/../../../../../H-x86_64-mingw32/nios2-elf/lib\libc.a(lib_a-wctomb_r.o)
                0x000000000001afa8                _wctomb_r
 .text.__ascii_wctomb
                0x000000000001afc8       0x30 c:/intelfpga_pro/18.1/nios2eds/bin/gnu/h-x86_64-mingw32/bin/../lib/gcc/nios2-elf/7.3.1/../../../../../H-x86_64-mingw32/nios2-elf/lib\libc.a(lib_a-wctomb_r.o)
                0x000000000001afc8                __ascii_wctomb
 .text          0x000000000001aff8        0x0 c:/intelfpga_pro/18.1/nios2eds/bin/gnu/h-x86_64-mingw32/bin/../lib/gcc/nios2-elf/7.3.1/../../../../../H-x86_64-mingw32/nios2-elf/lib\libc.a(lib_a-wsetup.o)
 .text.__swsetup_r
                0x000000000001aff8      0x158 c:/intelfpga_pro/18.1/nios2eds/bin/gnu/h-x86_64-mingw32/bin/../lib/gcc/nios2-elf/7.3.1/../../../../../H-x86_64-mingw32/nios2-elf/lib\libc.a(lib_a-wsetup.o)
                0x000000000001aff8                __swsetup_r
 .text          0x000000000001b150        0x0 c:/intelfpga_pro/18.1/nios2eds/bin/gnu/h-x86_64-mingw32/bin/../lib/gcc/nios2-elf/7.3.1/../../../../../H-x86_64-mingw32/nios2-elf/lib\libc.a(lib_a-ctype_.o)
 .text          0x000000000001b150        0x0 c:/intelfpga_pro/18.1/nios2eds/bin/gnu/h-x86_64-mingw32/bin/../lib/gcc/nios2-elf/7.3.1/../../../../../H-x86_64-mingw32/nios2-elf/lib\libc.a(lib_a-div.o)
 .text.div      0x000000000001b150       0x74 c:/intelfpga_pro/18.1/nios2eds/bin/gnu/h-x86_64-mingw32/bin/../lib/gcc/nios2-elf/7.3.1/../../../../../H-x86_64-mingw32/nios2-elf/lib\libc.a(lib_a-div.o)
                0x000000000001b150                div
 .text          0x000000000001b1c4        0x0 c:/intelfpga_pro/18.1/nios2eds/bin/gnu/h-x86_64-mingw32/bin/../lib/gcc/nios2-elf/7.3.1/../../../../../H-x86_64-mingw32/nios2-elf/lib\libc.a(lib_a-dtoa.o)
 .text.quorem   0x000000000001b1c4      0x1f8 c:/intelfpga_pro/18.1/nios2eds/bin/gnu/h-x86_64-mingw32/bin/../lib/gcc/nios2-elf/7.3.1/../../../../../H-x86_64-mingw32/nios2-elf/lib\libc.a(lib_a-dtoa.o)
 .text._dtoa_r  0x000000000001b3bc     0x16a8 c:/intelfpga_pro/18.1/nios2eds/bin/gnu/h-x86_64-mingw32/bin/../lib/gcc/nios2-elf/7.3.1/../../../../../H-x86_64-mingw32/nios2-elf/lib\libc.a(lib_a-dtoa.o)
                0x000000000001b3bc                _dtoa_r
 .text          0x000000000001ca64        0x0 c:/intelfpga_pro/18.1/nios2eds/bin/gnu/h-x86_64-mingw32/bin/../lib/gcc/nios2-elf/7.3.1/../../../../../H-x86_64-mingw32/nios2-elf/lib\libc.a(lib_a-fflush.o)
 .text.__sflush_r
                0x000000000001ca64      0x220 c:/intelfpga_pro/18.1/nios2eds/bin/gnu/h-x86_64-mingw32/bin/../lib/gcc/nios2-elf/7.3.1/../../../../../H-x86_64-mingw32/nios2-elf/lib\libc.a(lib_a-fflush.o)
                0x000000000001ca64                __sflush_r
 .text._fflush_r
                0x000000000001cc84       0x60 c:/intelfpga_pro/18.1/nios2eds/bin/gnu/h-x86_64-mingw32/bin/../lib/gcc/nios2-elf/7.3.1/../../../../../H-x86_64-mingw32/nios2-elf/lib\libc.a(lib_a-fflush.o)
                0x000000000001cc84                _fflush_r
 .text.fflush   0x000000000001cce4       0x28 c:/intelfpga_pro/18.1/nios2eds/bin/gnu/h-x86_64-mingw32/bin/../lib/gcc/nios2-elf/7.3.1/../../../../../H-x86_64-mingw32/nios2-elf/lib\libc.a(lib_a-fflush.o)
                0x000000000001cce4                fflush
 .text          0x000000000001cd0c        0x0 c:/intelfpga_pro/18.1/nios2eds/bin/gnu/h-x86_64-mingw32/bin/../lib/gcc/nios2-elf/7.3.1/../../../../../H-x86_64-mingw32/nios2-elf/lib\libc.a(lib_a-findfp.o)
 .text.__fp_lock
                0x000000000001cd0c        0x8 c:/intelfpga_pro/18.1/nios2eds/bin/gnu/h-x86_64-mingw32/bin/../lib/gcc/nios2-elf/7.3.1/../../../../../H-x86_64-mingw32/nios2-elf/lib\libc.a(lib_a-findfp.o)
 .text._cleanup_r
                0x000000000001cd14        0xc c:/intelfpga_pro/18.1/nios2eds/bin/gnu/h-x86_64-mingw32/bin/../lib/gcc/nios2-elf/7.3.1/../../../../../H-x86_64-mingw32/nios2-elf/lib\libc.a(lib_a-findfp.o)
                0x000000000001cd14                _cleanup_r
 .text.__sinit.part.0
                0x000000000001cd20      0x184 c:/intelfpga_pro/18.1/nios2eds/bin/gnu/h-x86_64-mingw32/bin/../lib/gcc/nios2-elf/7.3.1/../../../../../H-x86_64-mingw32/nios2-elf/lib\libc.a(lib_a-findfp.o)
 .text.__fp_unlock
                0x000000000001cea4        0x8 c:/intelfpga_pro/18.1/nios2eds/bin/gnu/h-x86_64-mingw32/bin/../lib/gcc/nios2-elf/7.3.1/../../../../../H-x86_64-mingw32/nios2-elf/lib\libc.a(lib_a-findfp.o)
 .text.__sfmoreglue
                0x000000000001ceac       0x68 c:/intelfpga_pro/18.1/nios2eds/bin/gnu/h-x86_64-mingw32/bin/../lib/gcc/nios2-elf/7.3.1/../../../../../H-x86_64-mingw32/nios2-elf/lib\libc.a(lib_a-findfp.o)
                0x000000000001ceac                __sfmoreglue
 .text.__sfp    0x000000000001cf14       0xfc c:/intelfpga_pro/18.1/nios2eds/bin/gnu/h-x86_64-mingw32/bin/../lib/gcc/nios2-elf/7.3.1/../../../../../H-x86_64-mingw32/nios2-elf/lib\libc.a(lib_a-findfp.o)
                0x000000000001cf14                __sfp
 .text._cleanup
                0x000000000001d010       0x14 c:/intelfpga_pro/18.1/nios2eds/bin/gnu/h-x86_64-mingw32/bin/../lib/gcc/nios2-elf/7.3.1/../../../../../H-x86_64-mingw32/nios2-elf/lib\libc.a(lib_a-findfp.o)
                0x000000000001d010                _cleanup
 .text.__sinit  0x000000000001d024       0x10 c:/intelfpga_pro/18.1/nios2eds/bin/gnu/h-x86_64-mingw32/bin/../lib/gcc/nios2-elf/7.3.1/../../../../../H-x86_64-mingw32/nios2-elf/lib\libc.a(lib_a-findfp.o)
                0x000000000001d024                __sinit
 .text.__sfp_lock_acquire
                0x000000000001d034        0x4 c:/intelfpga_pro/18.1/nios2eds/bin/gnu/h-x86_64-mingw32/bin/../lib/gcc/nios2-elf/7.3.1/../../../../../H-x86_64-mingw32/nios2-elf/lib\libc.a(lib_a-findfp.o)
                0x000000000001d034                __sfp_lock_acquire
 .text.__sfp_lock_release
                0x000000000001d038        0x4 c:/intelfpga_pro/18.1/nios2eds/bin/gnu/h-x86_64-mingw32/bin/../lib/gcc/nios2-elf/7.3.1/../../../../../H-x86_64-mingw32/nios2-elf/lib\libc.a(lib_a-findfp.o)
                0x000000000001d038                __sfp_lock_release
 .text.__sinit_lock_acquire
                0x000000000001d03c        0x4 c:/intelfpga_pro/18.1/nios2eds/bin/gnu/h-x86_64-mingw32/bin/../lib/gcc/nios2-elf/7.3.1/../../../../../H-x86_64-mingw32/nios2-elf/lib\libc.a(lib_a-findfp.o)
                0x000000000001d03c                __sinit_lock_acquire
 .text.__sinit_lock_release
                0x000000000001d040        0x4 c:/intelfpga_pro/18.1/nios2eds/bin/gnu/h-x86_64-mingw32/bin/../lib/gcc/nios2-elf/7.3.1/../../../../../H-x86_64-mingw32/nios2-elf/lib\libc.a(lib_a-findfp.o)
                0x000000000001d040                __sinit_lock_release
 .text.__fp_lock_all
                0x000000000001d044       0x14 c:/intelfpga_pro/18.1/nios2eds/bin/gnu/h-x86_64-mingw32/bin/../lib/gcc/nios2-elf/7.3.1/../../../../../H-x86_64-mingw32/nios2-elf/lib\libc.a(lib_a-findfp.o)
                0x000000000001d044                __fp_lock_all
 .text.__fp_unlock_all
                0x000000000001d058       0x14 c:/intelfpga_pro/18.1/nios2eds/bin/gnu/h-x86_64-mingw32/bin/../lib/gcc/nios2-elf/7.3.1/../../../../../H-x86_64-mingw32/nios2-elf/lib\libc.a(lib_a-findfp.o)
                0x000000000001d058                __fp_unlock_all
 .text          0x000000000001d06c        0x0 c:/intelfpga_pro/18.1/nios2eds/bin/gnu/h-x86_64-mingw32/bin/../lib/gcc/nios2-elf/7.3.1/../../../../../H-x86_64-mingw32/nios2-elf/lib\libc.a(lib_a-freer.o)
 .text._malloc_trim_r
                0x000000000001d06c      0x11c c:/intelfpga_pro/18.1/nios2eds/bin/gnu/h-x86_64-mingw32/bin/../lib/gcc/nios2-elf/7.3.1/../../../../../H-x86_64-mingw32/nios2-elf/lib\libc.a(lib_a-freer.o)
                0x000000000001d06c                _malloc_trim_r
 .text._free_r  0x000000000001d188      0x2f0 c:/intelfpga_pro/18.1/nios2eds/bin/gnu/h-x86_64-mingw32/bin/../lib/gcc/nios2-elf/7.3.1/../../../../../H-x86_64-mingw32/nios2-elf/lib\libc.a(lib_a-freer.o)
                0x000000000001d188                _free_r
 .text          0x000000000001d478        0x0 c:/intelfpga_pro/18.1/nios2eds/bin/gnu/h-x86_64-mingw32/bin/../lib/gcc/nios2-elf/7.3.1/../../../../../H-x86_64-mingw32/nios2-elf/lib\libc.a(lib_a-fvwrite.o)
 .text.__sfvwrite_r
                0x000000000001d478      0x4a0 c:/intelfpga_pro/18.1/nios2eds/bin/gnu/h-x86_64-mingw32/bin/../lib/gcc/nios2-elf/7.3.1/../../../../../H-x86_64-mingw32/nios2-elf/lib\libc.a(lib_a-fvwrite.o)
                0x000000000001d478                __sfvwrite_r
 .text          0x000000000001d918        0x0 c:/intelfpga_pro/18.1/nios2eds/bin/gnu/h-x86_64-mingw32/bin/../lib/gcc/nios2-elf/7.3.1/../../../../../H-x86_64-mingw32/nios2-elf/lib\libc.a(lib_a-fwalk.o)
 .text._fwalk   0x000000000001d918       0xa4 c:/intelfpga_pro/18.1/nios2eds/bin/gnu/h-x86_64-mingw32/bin/../lib/gcc/nios2-elf/7.3.1/../../../../../H-x86_64-mingw32/nios2-elf/lib\libc.a(lib_a-fwalk.o)
                0x000000000001d918                _fwalk
 .text._fwalk_reent
                0x000000000001d9bc       0xb4 c:/intelfpga_pro/18.1/nios2eds/bin/gnu/h-x86_64-mingw32/bin/../lib/gcc/nios2-elf/7.3.1/../../../../../H-x86_64-mingw32/nios2-elf/lib\libc.a(lib_a-fwalk.o)
                0x000000000001d9bc                _fwalk_reent
 .text          0x000000000001da70        0x0 c:/intelfpga_pro/18.1/nios2eds/bin/gnu/h-x86_64-mingw32/bin/../lib/gcc/nios2-elf/7.3.1/../../../../../H-x86_64-mingw32/nios2-elf/lib\libc.a(lib_a-getenv_r.o)
 .text._findenv_r
                0x000000000001da70      0x100 c:/intelfpga_pro/18.1/nios2eds/bin/gnu/h-x86_64-mingw32/bin/../lib/gcc/nios2-elf/7.3.1/../../../../../H-x86_64-mingw32/nios2-elf/lib\libc.a(lib_a-getenv_r.o)
                0x000000000001da70                _findenv_r
 .text._getenv_r
                0x000000000001db70       0x1c c:/intelfpga_pro/18.1/nios2eds/bin/gnu/h-x86_64-mingw32/bin/../lib/gcc/nios2-elf/7.3.1/../../../../../H-x86_64-mingw32/nios2-elf/lib\libc.a(lib_a-getenv_r.o)
                0x000000000001db70                _getenv_r
 .text          0x000000000001db8c        0x0 c:/intelfpga_pro/18.1/nios2eds/bin/gnu/h-x86_64-mingw32/bin/../lib/gcc/nios2-elf/7.3.1/../../../../../H-x86_64-mingw32/nios2-elf/lib\libc.a(lib_a-gettzinfo.o)
 .text.__gettzinfo
                0x000000000001db8c        0xc c:/intelfpga_pro/18.1/nios2eds/bin/gnu/h-x86_64-mingw32/bin/../lib/gcc/nios2-elf/7.3.1/../../../../../H-x86_64-mingw32/nios2-elf/lib\libc.a(lib_a-gettzinfo.o)
                0x000000000001db8c                __gettzinfo
 .text          0x000000000001db98        0x0 c:/intelfpga_pro/18.1/nios2eds/bin/gnu/h-x86_64-mingw32/bin/../lib/gcc/nios2-elf/7.3.1/../../../../../H-x86_64-mingw32/nios2-elf/lib\libc.a(lib_a-int_errno.o)
 .text          0x000000000001db98        0x0 c:/intelfpga_pro/18.1/nios2eds/bin/gnu/h-x86_64-mingw32/bin/../lib/gcc/nios2-elf/7.3.1/../../../../../H-x86_64-mingw32/nios2-elf/lib\libc.a(lib_a-localeconv.o)
 .text.__localeconv_l
                0x000000000001db98        0x8 c:/intelfpga_pro/18.1/nios2eds/bin/gnu/h-x86_64-mingw32/bin/../lib/gcc/nios2-elf/7.3.1/../../../../../H-x86_64-mingw32/nios2-elf/lib\libc.a(lib_a-localeconv.o)
                0x000000000001db98                __localeconv_l
 .text._localeconv_r
                0x000000000001dba0       0x20 c:/intelfpga_pro/18.1/nios2eds/bin/gnu/h-x86_64-mingw32/bin/../lib/gcc/nios2-elf/7.3.1/../../../../../H-x86_64-mingw32/nios2-elf/lib\libc.a(lib_a-localeconv.o)
                0x000000000001dba0                _localeconv_r
 .text.localeconv
                0x000000000001dbc0       0x20 c:/intelfpga_pro/18.1/nios2eds/bin/gnu/h-x86_64-mingw32/bin/../lib/gcc/nios2-elf/7.3.1/../../../../../H-x86_64-mingw32/nios2-elf/lib\libc.a(lib_a-localeconv.o)
                0x000000000001dbc0                localeconv
 .text          0x000000000001dbe0        0x0 c:/intelfpga_pro/18.1/nios2eds/bin/gnu/h-x86_64-mingw32/bin/../lib/gcc/nios2-elf/7.3.1/../../../../../H-x86_64-mingw32/nios2-elf/lib\libc.a(lib_a-makebuf.o)
 .text.__swhatbuf_r
                0x000000000001dbe0       0x94 c:/intelfpga_pro/18.1/nios2eds/bin/gnu/h-x86_64-mingw32/bin/../lib/gcc/nios2-elf/7.3.1/../../../../../H-x86_64-mingw32/nios2-elf/lib\libc.a(lib_a-makebuf.o)
                0x000000000001dbe0                __swhatbuf_r
 .text.__smakebuf_r
                0x000000000001dc74      0x13c c:/intelfpga_pro/18.1/nios2eds/bin/gnu/h-x86_64-mingw32/bin/../lib/gcc/nios2-elf/7.3.1/../../../../../H-x86_64-mingw32/nios2-elf/lib\libc.a(lib_a-makebuf.o)
                0x000000000001dc74                __smakebuf_r
 .text          0x000000000001ddb0        0x0 c:/intelfpga_pro/18.1/nios2eds/bin/gnu/h-x86_64-mingw32/bin/../lib/gcc/nios2-elf/7.3.1/../../../../../H-x86_64-mingw32/nios2-elf/lib\libc.a(lib_a-memchr.o)
 .text.memchr   0x000000000001ddb0       0xe8 c:/intelfpga_pro/18.1/nios2eds/bin/gnu/h-x86_64-mingw32/bin/../lib/gcc/nios2-elf/7.3.1/../../../../../H-x86_64-mingw32/nios2-elf/lib\libc.a(lib_a-memchr.o)
                0x000000000001ddb0                memchr
 .text          0x000000000001de98        0x0 c:/intelfpga_pro/18.1/nios2eds/bin/gnu/h-x86_64-mingw32/bin/../lib/gcc/nios2-elf/7.3.1/../../../../../H-x86_64-mingw32/nios2-elf/lib\libc.a(lib_a-memmove.o)
 .text.memmove  0x000000000001de98      0x11c c:/intelfpga_pro/18.1/nios2eds/bin/gnu/h-x86_64-mingw32/bin/../lib/gcc/nios2-elf/7.3.1/../../../../../H-x86_64-mingw32/nios2-elf/lib\libc.a(lib_a-memmove.o)
                0x000000000001de98                memmove
 .text          0x000000000001dfb4        0x0 c:/intelfpga_pro/18.1/nios2eds/bin/gnu/h-x86_64-mingw32/bin/../lib/gcc/nios2-elf/7.3.1/../../../../../H-x86_64-mingw32/nios2-elf/lib\libc.a(lib_a-month_lengths.o)
 .text          0x000000000001dfb4        0x0 c:/intelfpga_pro/18.1/nios2eds/bin/gnu/h-x86_64-mingw32/bin/../lib/gcc/nios2-elf/7.3.1/../../../../../H-x86_64-mingw32/nios2-elf/lib\libc.a(lib_a-mprec.o)
 .text._Balloc  0x000000000001dfb4       0xa4 c:/intelfpga_pro/18.1/nios2eds/bin/gnu/h-x86_64-mingw32/bin/../lib/gcc/nios2-elf/7.3.1/../../../../../H-x86_64-mingw32/nios2-elf/lib\libc.a(lib_a-mprec.o)
                0x000000000001dfb4                _Balloc
 .text._Bfree   0x000000000001e058       0x24 c:/intelfpga_pro/18.1/nios2eds/bin/gnu/h-x86_64-mingw32/bin/../lib/gcc/nios2-elf/7.3.1/../../../../../H-x86_64-mingw32/nios2-elf/lib\libc.a(lib_a-mprec.o)
                0x000000000001e058                _Bfree
 .text.__multadd
                0x000000000001e07c      0x114 c:/intelfpga_pro/18.1/nios2eds/bin/gnu/h-x86_64-mingw32/bin/../lib/gcc/nios2-elf/7.3.1/../../../../../H-x86_64-mingw32/nios2-elf/lib\libc.a(lib_a-mprec.o)
                0x000000000001e07c                __multadd
 .text.__s2b    0x000000000001e190      0x110 c:/intelfpga_pro/18.1/nios2eds/bin/gnu/h-x86_64-mingw32/bin/../lib/gcc/nios2-elf/7.3.1/../../../../../H-x86_64-mingw32/nios2-elf/lib\libc.a(lib_a-mprec.o)
                0x000000000001e190                __s2b
 .text.__hi0bits
                0x000000000001e2a0       0x64 c:/intelfpga_pro/18.1/nios2eds/bin/gnu/h-x86_64-mingw32/bin/../lib/gcc/nios2-elf/7.3.1/../../../../../H-x86_64-mingw32/nios2-elf/lib\libc.a(lib_a-mprec.o)
                0x000000000001e2a0                __hi0bits
 .text.__lo0bits
                0x000000000001e304       0xb0 c:/intelfpga_pro/18.1/nios2eds/bin/gnu/h-x86_64-mingw32/bin/../lib/gcc/nios2-elf/7.3.1/../../../../../H-x86_64-mingw32/nios2-elf/lib\libc.a(lib_a-mprec.o)
                0x000000000001e304                __lo0bits
 .text.__i2b    0x000000000001e3b4       0x34 c:/intelfpga_pro/18.1/nios2eds/bin/gnu/h-x86_64-mingw32/bin/../lib/gcc/nios2-elf/7.3.1/../../../../../H-x86_64-mingw32/nios2-elf/lib\libc.a(lib_a-mprec.o)
                0x000000000001e3b4                __i2b
 .text.__multiply
                0x000000000001e3e8      0x1fc c:/intelfpga_pro/18.1/nios2eds/bin/gnu/h-x86_64-mingw32/bin/../lib/gcc/nios2-elf/7.3.1/../../../../../H-x86_64-mingw32/nios2-elf/lib\libc.a(lib_a-mprec.o)
                0x000000000001e3e8                __multiply
 .text.__pow5mult
                0x000000000001e5e4      0x124 c:/intelfpga_pro/18.1/nios2eds/bin/gnu/h-x86_64-mingw32/bin/../lib/gcc/nios2-elf/7.3.1/../../../../../H-x86_64-mingw32/nios2-elf/lib\libc.a(lib_a-mprec.o)
                0x000000000001e5e4                __pow5mult
 .text.__lshift
                0x000000000001e708      0x144 c:/intelfpga_pro/18.1/nios2eds/bin/gnu/h-x86_64-mingw32/bin/../lib/gcc/nios2-elf/7.3.1/../../../../../H-x86_64-mingw32/nios2-elf/lib\libc.a(lib_a-mprec.o)
                0x000000000001e708                __lshift
 .text.__mcmp   0x000000000001e84c       0x58 c:/intelfpga_pro/18.1/nios2eds/bin/gnu/h-x86_64-mingw32/bin/../lib/gcc/nios2-elf/7.3.1/../../../../../H-x86_64-mingw32/nios2-elf/lib\libc.a(lib_a-mprec.o)
                0x000000000001e84c                __mcmp
 .text.__mdiff  0x000000000001e8a4      0x1c0 c:/intelfpga_pro/18.1/nios2eds/bin/gnu/h-x86_64-mingw32/bin/../lib/gcc/nios2-elf/7.3.1/../../../../../H-x86_64-mingw32/nios2-elf/lib\libc.a(lib_a-mprec.o)
                0x000000000001e8a4                __mdiff
 .text.__ulp    0x000000000001ea64       0x64 c:/intelfpga_pro/18.1/nios2eds/bin/gnu/h-x86_64-mingw32/bin/../lib/gcc/nios2-elf/7.3.1/../../../../../H-x86_64-mingw32/nios2-elf/lib\libc.a(lib_a-mprec.o)
                0x000000000001ea64                __ulp
 .text.__b2d    0x000000000001eac8      0x104 c:/intelfpga_pro/18.1/nios2eds/bin/gnu/h-x86_64-mingw32/bin/../lib/gcc/nios2-elf/7.3.1/../../../../../H-x86_64-mingw32/nios2-elf/lib\libc.a(lib_a-mprec.o)
                0x000000000001eac8                __b2d
 .text.__d2b    0x000000000001ebcc      0x148 c:/intelfpga_pro/18.1/nios2eds/bin/gnu/h-x86_64-mingw32/bin/../lib/gcc/nios2-elf/7.3.1/../../../../../H-x86_64-mingw32/nios2-elf/lib\libc.a(lib_a-mprec.o)
                0x000000000001ebcc                __d2b
 .text.__ratio  0x000000000001ed14       0xa8 c:/intelfpga_pro/18.1/nios2eds/bin/gnu/h-x86_64-mingw32/bin/../lib/gcc/nios2-elf/7.3.1/../../../../../H-x86_64-mingw32/nios2-elf/lib\libc.a(lib_a-mprec.o)
                0x000000000001ed14                __ratio
 .text._mprec_log10
                0x000000000001edbc       0x74 c:/intelfpga_pro/18.1/nios2eds/bin/gnu/h-x86_64-mingw32/bin/../lib/gcc/nios2-elf/7.3.1/../../../../../H-x86_64-mingw32/nios2-elf/lib\libc.a(lib_a-mprec.o)
                0x000000000001edbc                _mprec_log10
 .text.__copybits
                0x000000000001ee30       0x6c c:/intelfpga_pro/18.1/nios2eds/bin/gnu/h-x86_64-mingw32/bin/../lib/gcc/nios2-elf/7.3.1/../../../../../H-x86_64-mingw32/nios2-elf/lib\libc.a(lib_a-mprec.o)
                0x000000000001ee30                __copybits
 .text.__any_on
                0x000000000001ee9c       0x74 c:/intelfpga_pro/18.1/nios2eds/bin/gnu/h-x86_64-mingw32/bin/../lib/gcc/nios2-elf/7.3.1/../../../../../H-x86_64-mingw32/nios2-elf/lib\libc.a(lib_a-mprec.o)
                0x000000000001ee9c                __any_on
 .text          0x000000000001ef10        0x0 c:/intelfpga_pro/18.1/nios2eds/bin/gnu/h-x86_64-mingw32/bin/../lib/gcc/nios2-elf/7.3.1/../../../../../H-x86_64-mingw32/nios2-elf/lib\libc.a(lib_a-putc.o)
 .text._putc_r  0x000000000001ef10       0xcc c:/intelfpga_pro/18.1/nios2eds/bin/gnu/h-x86_64-mingw32/bin/../lib/gcc/nios2-elf/7.3.1/../../../../../H-x86_64-mingw32/nios2-elf/lib\libc.a(lib_a-putc.o)
                0x000000000001ef10                _putc_r
 .text.putc     0x000000000001efdc       0xe0 c:/intelfpga_pro/18.1/nios2eds/bin/gnu/h-x86_64-mingw32/bin/../lib/gcc/nios2-elf/7.3.1/../../../../../H-x86_64-mingw32/nios2-elf/lib\libc.a(lib_a-putc.o)
                0x000000000001efdc                putc
 .text          0x000000000001f0bc        0x0 c:/intelfpga_pro/18.1/nios2eds/bin/gnu/h-x86_64-mingw32/bin/../lib/gcc/nios2-elf/7.3.1/../../../../../H-x86_64-mingw32/nios2-elf/lib\libc.a(lib_a-reallocr.o)
 .text._realloc_r
                0x000000000001f0bc      0x578 c:/intelfpga_pro/18.1/nios2eds/bin/gnu/h-x86_64-mingw32/bin/../lib/gcc/nios2-elf/7.3.1/../../../../../H-x86_64-mingw32/nios2-elf/lib\libc.a(lib_a-reallocr.o)
                0x000000000001f0bc                _realloc_r
 .text          0x000000000001f634        0x0 c:/intelfpga_pro/18.1/nios2eds/bin/gnu/h-x86_64-mingw32/bin/../lib/gcc/nios2-elf/7.3.1/../../../../../H-x86_64-mingw32/nios2-elf/lib\libc.a(lib_a-refill.o)
 .text.lflush   0x000000000001f634       0x1c c:/intelfpga_pro/18.1/nios2eds/bin/gnu/h-x86_64-mingw32/bin/../lib/gcc/nios2-elf/7.3.1/../../../../../H-x86_64-mingw32/nios2-elf/lib\libc.a(lib_a-refill.o)
 .text.__srefill_r
                0x000000000001f650      0x1c8 c:/intelfpga_pro/18.1/nios2eds/bin/gnu/h-x86_64-mingw32/bin/../lib/gcc/nios2-elf/7.3.1/../../../../../H-x86_64-mingw32/nios2-elf/lib\libc.a(lib_a-refill.o)
                0x000000000001f650                __srefill_r
 .text          0x000000000001f818        0x0 c:/intelfpga_pro/18.1/nios2eds/bin/gnu/h-x86_64-mingw32/bin/../lib/gcc/nios2-elf/7.3.1/../../../../../H-x86_64-mingw32/nios2-elf/lib\libc.a(lib_a-siscanf.o)
 .text.siscanf  0x000000000001f818       0x78 c:/intelfpga_pro/18.1/nios2eds/bin/gnu/h-x86_64-mingw32/bin/../lib/gcc/nios2-elf/7.3.1/../../../../../H-x86_64-mingw32/nios2-elf/lib\libc.a(lib_a-siscanf.o)
                0x000000000001f818                siscanf
 .text._siscanf_r
                0x000000000001f890       0x78 c:/intelfpga_pro/18.1/nios2eds/bin/gnu/h-x86_64-mingw32/bin/../lib/gcc/nios2-elf/7.3.1/../../../../../H-x86_64-mingw32/nios2-elf/lib\libc.a(lib_a-siscanf.o)
                0x000000000001f890                _siscanf_r
 .text          0x000000000001f908        0x0 c:/intelfpga_pro/18.1/nios2eds/bin/gnu/h-x86_64-mingw32/bin/../lib/gcc/nios2-elf/7.3.1/../../../../../H-x86_64-mingw32/nios2-elf/lib\libc.a(lib_a-stdio.o)
 .text.__sread  0x000000000001f908       0x54 c:/intelfpga_pro/18.1/nios2eds/bin/gnu/h-x86_64-mingw32/bin/../lib/gcc/nios2-elf/7.3.1/../../../../../H-x86_64-mingw32/nios2-elf/lib\libc.a(lib_a-stdio.o)
                0x000000000001f908                __sread
 .text.__seofread
                0x000000000001f95c        0x8 c:/intelfpga_pro/18.1/nios2eds/bin/gnu/h-x86_64-mingw32/bin/../lib/gcc/nios2-elf/7.3.1/../../../../../H-x86_64-mingw32/nios2-elf/lib\libc.a(lib_a-stdio.o)
                0x000000000001f95c                __seofread
 .text.__swrite
                0x000000000001f964       0x7c c:/intelfpga_pro/18.1/nios2eds/bin/gnu/h-x86_64-mingw32/bin/../lib/gcc/nios2-elf/7.3.1/../../../../../H-x86_64-mingw32/nios2-elf/lib\libc.a(lib_a-stdio.o)
                0x000000000001f964                __swrite
 .text.__sseek  0x000000000001f9e0       0x5c c:/intelfpga_pro/18.1/nios2eds/bin/gnu/h-x86_64-mingw32/bin/../lib/gcc/nios2-elf/7.3.1/../../../../../H-x86_64-mingw32/nios2-elf/lib\libc.a(lib_a-stdio.o)
                0x000000000001f9e0                __sseek
 .text.__sclose
                0x000000000001fa3c        0x8 c:/intelfpga_pro/18.1/nios2eds/bin/gnu/h-x86_64-mingw32/bin/../lib/gcc/nios2-elf/7.3.1/../../../../../H-x86_64-mingw32/nios2-elf/lib\libc.a(lib_a-stdio.o)
                0x000000000001fa3c                __sclose
 .text          0x000000000001fa44        0x0 c:/intelfpga_pro/18.1/nios2eds/bin/gnu/h-x86_64-mingw32/bin/../lib/gcc/nios2-elf/7.3.1/../../../../../H-x86_64-mingw32/nios2-elf/lib\libc.a(lib_a-strncmp.o)
 .text.strncmp  0x000000000001fa44       0xc4 c:/intelfpga_pro/18.1/nios2eds/bin/gnu/h-x86_64-mingw32/bin/../lib/gcc/nios2-elf/7.3.1/../../../../../H-x86_64-mingw32/nios2-elf/lib\libc.a(lib_a-strncmp.o)
                0x000000000001fa44                strncmp
 .text          0x000000000001fb08        0x0 c:/intelfpga_pro/18.1/nios2eds/bin/gnu/h-x86_64-mingw32/bin/../lib/gcc/nios2-elf/7.3.1/../../../../../H-x86_64-mingw32/nios2-elf/lib\libc.a(lib_a-strtoul.o)
 .text._strtoul_l.isra.0
                0x000000000001fb08      0x254 c:/intelfpga_pro/18.1/nios2eds/bin/gnu/h-x86_64-mingw32/bin/../lib/gcc/nios2-elf/7.3.1/../../../../../H-x86_64-mingw32/nios2-elf/lib\libc.a(lib_a-strtoul.o)
 .text._strtoul_r
                0x000000000001fd5c       0x34 c:/intelfpga_pro/18.1/nios2eds/bin/gnu/h-x86_64-mingw32/bin/../lib/gcc/nios2-elf/7.3.1/../../../../../H-x86_64-mingw32/nios2-elf/lib\libc.a(lib_a-strtoul.o)
                0x000000000001fd5c                _strtoul_r
 .text.strtoul_l
                0x000000000001fd90       0x30 c:/intelfpga_pro/18.1/nios2eds/bin/gnu/h-x86_64-mingw32/bin/../lib/gcc/nios2-elf/7.3.1/../../../../../H-x86_64-mingw32/nios2-elf/lib\libc.a(lib_a-strtoul.o)
                0x000000000001fd90                strtoul_l
 .text.strtoul  0x000000000001fdc0       0x44 c:/intelfpga_pro/18.1/nios2eds/bin/gnu/h-x86_64-mingw32/bin/../lib/gcc/nios2-elf/7.3.1/../../../../../H-x86_64-mingw32/nios2-elf/lib\libc.a(lib_a-strtoul.o)
                0x000000000001fdc0                strtoul
 .text          0x000000000001fe04        0x0 c:/intelfpga_pro/18.1/nios2eds/bin/gnu/h-x86_64-mingw32/bin/../lib/gcc/nios2-elf/7.3.1/../../../../../H-x86_64-mingw32/nios2-elf/lib\libc.a(lib_a-svfiprintf.o)
 .text.__ssprint_r
                0x000000000001fe04      0x1c0 c:/intelfpga_pro/18.1/nios2eds/bin/gnu/h-x86_64-mingw32/bin/../lib/gcc/nios2-elf/7.3.1/../../../../../H-x86_64-mingw32/nios2-elf/lib\libc.a(lib_a-svfiprintf.o)
                0x000000000001fe04                __ssprint_r
 .text.___svfiprintf_internal_r
                0x000000000001ffc4     0x1024 c:/intelfpga_pro/18.1/nios2eds/bin/gnu/h-x86_64-mingw32/bin/../lib/gcc/nios2-elf/7.3.1/../../../../../H-x86_64-mingw32/nios2-elf/lib\libc.a(lib_a-svfiprintf.o)
                0x000000000001ffc4                ___svfiprintf_internal_r
 .text          0x0000000000020fe8        0x0 c:/intelfpga_pro/18.1/nios2eds/bin/gnu/h-x86_64-mingw32/bin/../lib/gcc/nios2-elf/7.3.1/../../../../../H-x86_64-mingw32/nios2-elf/lib\libc.a(lib_a-svfiscanf.o)
 .text._sungetc_r
                0x0000000000020fe8       0xf0 c:/intelfpga_pro/18.1/nios2eds/bin/gnu/h-x86_64-mingw32/bin/../lib/gcc/nios2-elf/7.3.1/../../../../../H-x86_64-mingw32/nios2-elf/lib\libc.a(lib_a-svfiscanf.o)
                0x0000000000020fe8                _sungetc_r
 .text.__ssrefill_r
                0x00000000000210d8       0x70 c:/intelfpga_pro/18.1/nios2eds/bin/gnu/h-x86_64-mingw32/bin/../lib/gcc/nios2-elf/7.3.1/../../../../../H-x86_64-mingw32/nios2-elf/lib\libc.a(lib_a-svfiscanf.o)
                0x00000000000210d8                __ssrefill_r
 .text._sfread_r
                0x0000000000021148       0xf8 c:/intelfpga_pro/18.1/nios2eds/bin/gnu/h-x86_64-mingw32/bin/../lib/gcc/nios2-elf/7.3.1/../../../../../H-x86_64-mingw32/nios2-elf/lib\libc.a(lib_a-svfiscanf.o)
                0x0000000000021148                _sfread_r
 .text.__ssvfiscanf_r
                0x0000000000021240      0xf40 c:/intelfpga_pro/18.1/nios2eds/bin/gnu/h-x86_64-mingw32/bin/../lib/gcc/nios2-elf/7.3.1/../../../../../H-x86_64-mingw32/nios2-elf/lib\libc.a(lib_a-svfiscanf.o)
                0x0000000000021240                __ssvfiscanf_r
 .text          0x0000000000022180        0x0 c:/intelfpga_pro/18.1/nios2eds/bin/gnu/h-x86_64-mingw32/bin/../lib/gcc/nios2-elf/7.3.1/../../../../../H-x86_64-mingw32/nios2-elf/lib\libc.a(lib_a-ungetc.o)
 .text.__submore
                0x0000000000022180       0xd4 c:/intelfpga_pro/18.1/nios2eds/bin/gnu/h-x86_64-mingw32/bin/../lib/gcc/nios2-elf/7.3.1/../../../../../H-x86_64-mingw32/nios2-elf/lib\libc.a(lib_a-ungetc.o)
                0x0000000000022180                __submore
 .text._ungetc_r
                0x0000000000022254      0x184 c:/intelfpga_pro/18.1/nios2eds/bin/gnu/h-x86_64-mingw32/bin/../lib/gcc/nios2-elf/7.3.1/../../../../../H-x86_64-mingw32/nios2-elf/lib\libc.a(lib_a-ungetc.o)
                0x0000000000022254                _ungetc_r
 .text.ungetc   0x00000000000223d8       0x14 c:/intelfpga_pro/18.1/nios2eds/bin/gnu/h-x86_64-mingw32/bin/../lib/gcc/nios2-elf/7.3.1/../../../../../H-x86_64-mingw32/nios2-elf/lib\libc.a(lib_a-ungetc.o)
                0x00000000000223d8                ungetc
 .text          0x00000000000223ec        0x0 c:/intelfpga_pro/18.1/nios2eds/bin/gnu/h-x86_64-mingw32/bin/../lib/gcc/nios2-elf/7.3.1/../../../../../H-x86_64-mingw32/nios2-elf/lib\libc.a(lib_a-vfiprintf.o)
 .text.__sprint_r.part.0
                0x00000000000223ec       0xf4 c:/intelfpga_pro/18.1/nios2eds/bin/gnu/h-x86_64-mingw32/bin/../lib/gcc/nios2-elf/7.3.1/../../../../../H-x86_64-mingw32/nios2-elf/lib\libc.a(lib_a-vfiprintf.o)
 .text.__sprint_r
                0x00000000000224e0       0x18 c:/intelfpga_pro/18.1/nios2eds/bin/gnu/h-x86_64-mingw32/bin/../lib/gcc/nios2-elf/7.3.1/../../../../../H-x86_64-mingw32/nios2-elf/lib\libc.a(lib_a-vfiprintf.o)
                0x00000000000224e0                __sprint_r
 .text.___vfiprintf_internal_r
                0x00000000000224f8     0x1220 c:/intelfpga_pro/18.1/nios2eds/bin/gnu/h-x86_64-mingw32/bin/../lib/gcc/nios2-elf/7.3.1/../../../../../H-x86_64-mingw32/nios2-elf/lib\libc.a(lib_a-vfiprintf.o)
                0x00000000000224f8                ___vfiprintf_internal_r
 .text.__vfiprintf_internal
                0x0000000000023718       0x18 c:/intelfpga_pro/18.1/nios2eds/bin/gnu/h-x86_64-mingw32/bin/../lib/gcc/nios2-elf/7.3.1/../../../../../H-x86_64-mingw32/nios2-elf/lib\libc.a(lib_a-vfiprintf.o)
                0x0000000000023718                __vfiprintf_internal
 .text.__sbprintf
                0x0000000000023730       0xc0 c:/intelfpga_pro/18.1/nios2eds/bin/gnu/h-x86_64-mingw32/bin/../lib/gcc/nios2-elf/7.3.1/../../../../../H-x86_64-mingw32/nios2-elf/lib\libc.a(lib_a-vfiprintf.o)
 .text          0x00000000000237f0        0x0 c:/intelfpga_pro/18.1/nios2eds/bin/gnu/h-x86_64-mingw32/bin/../lib/gcc/nios2-elf/7.3.1/../../../../../H-x86_64-mingw32/nios2-elf/lib\libc.a(lib_a-wbuf.o)
 .text.__swbuf_r
                0x00000000000237f0      0x148 c:/intelfpga_pro/18.1/nios2eds/bin/gnu/h-x86_64-mingw32/bin/../lib/gcc/nios2-elf/7.3.1/../../../../../H-x86_64-mingw32/nios2-elf/lib\libc.a(lib_a-wbuf.o)
                0x00000000000237f0                __swbuf_r
 .text.__swbuf  0x0000000000023938       0x14 c:/intelfpga_pro/18.1/nios2eds/bin/gnu/h-x86_64-mingw32/bin/../lib/gcc/nios2-elf/7.3.1/../../../../../H-x86_64-mingw32/nios2-elf/lib\libc.a(lib_a-wbuf.o)
                0x0000000000023938                __swbuf
 .text          0x000000000002394c        0x0 c:/intelfpga_pro/18.1/nios2eds/bin/gnu/h-x86_64-mingw32/bin/../lib/gcc/nios2-elf/7.3.1/../../../../../H-x86_64-mingw32/nios2-elf/lib\libc.a(lib_a-writer.o)
 .text._write_r
                0x000000000002394c       0x64 c:/intelfpga_pro/18.1/nios2eds/bin/gnu/h-x86_64-mingw32/bin/../lib/gcc/nios2-elf/7.3.1/../../../../../H-x86_64-mingw32/nios2-elf/lib\libc.a(lib_a-writer.o)
                0x000000000002394c                _write_r
 .text          0x00000000000239b0        0x0 c:/intelfpga_pro/18.1/nios2eds/bin/gnu/h-x86_64-mingw32/bin/../lib/gcc/nios2-elf/7.3.1/../../../../../H-x86_64-mingw32/nios2-elf/lib\libc.a(closer.o)
 .text._close_r
                0x00000000000239b0       0x58 c:/intelfpga_pro/18.1/nios2eds/bin/gnu/h-x86_64-mingw32/bin/../lib/gcc/nios2-elf/7.3.1/../../../../../H-x86_64-mingw32/nios2-elf/lib\libc.a(closer.o)
                0x00000000000239b0                _close_r
 .text          0x0000000000023a08        0x0 c:/intelfpga_pro/18.1/nios2eds/bin/gnu/h-x86_64-mingw32/bin/../lib/gcc/nios2-elf/7.3.1/../../../../../H-x86_64-mingw32/nios2-elf/lib\libc.a(lib_a-environ.o)
 .text          0x0000000000023a08        0x0 c:/intelfpga_pro/18.1/nios2eds/bin/gnu/h-x86_64-mingw32/bin/../lib/gcc/nios2-elf/7.3.1/../../../../../H-x86_64-mingw32/nios2-elf/lib\libc.a(lib_a-fclose.o)
 .text._fclose_r
                0x0000000000023a08       0xf0 c:/intelfpga_pro/18.1/nios2eds/bin/gnu/h-x86_64-mingw32/bin/../lib/gcc/nios2-elf/7.3.1/../../../../../H-x86_64-mingw32/nios2-elf/lib\libc.a(lib_a-fclose.o)
                0x0000000000023a08                _fclose_r
 .text.fclose   0x0000000000023af8       0x10 c:/intelfpga_pro/18.1/nios2eds/bin/gnu/h-x86_64-mingw32/bin/../lib/gcc/nios2-elf/7.3.1/../../../../../H-x86_64-mingw32/nios2-elf/lib\libc.a(lib_a-fclose.o)
                0x0000000000023af8                fclose
 .text          0x0000000000023b08        0x0 c:/intelfpga_pro/18.1/nios2eds/bin/gnu/h-x86_64-mingw32/bin/../lib/gcc/nios2-elf/7.3.1/../../../../../H-x86_64-mingw32/nios2-elf/lib\libc.a(lib_a-fputwc.o)
 .text.__fputwc
                0x0000000000023b08      0x164 c:/intelfpga_pro/18.1/nios2eds/bin/gnu/h-x86_64-mingw32/bin/../lib/gcc/nios2-elf/7.3.1/../../../../../H-x86_64-mingw32/nios2-elf/lib\libc.a(lib_a-fputwc.o)
                0x0000000000023b08                __fputwc
 .text._fputwc_r
                0x0000000000023c6c       0x24 c:/intelfpga_pro/18.1/nios2eds/bin/gnu/h-x86_64-mingw32/bin/../lib/gcc/nios2-elf/7.3.1/../../../../../H-x86_64-mingw32/nios2-elf/lib\libc.a(lib_a-fputwc.o)
                0x0000000000023c6c                _fputwc_r
 .text.fputwc   0x0000000000023c90       0x7c c:/intelfpga_pro/18.1/nios2eds/bin/gnu/h-x86_64-mingw32/bin/../lib/gcc/nios2-elf/7.3.1/../../../../../H-x86_64-mingw32/nios2-elf/lib\libc.a(lib_a-fputwc.o)
                0x0000000000023c90                fputwc
 .text          0x0000000000023d0c        0x0 c:/intelfpga_pro/18.1/nios2eds/bin/gnu/h-x86_64-mingw32/bin/../lib/gcc/nios2-elf/7.3.1/../../../../../H-x86_64-mingw32/nios2-elf/lib\libc.a(lib_a-fstatr.o)
 .text._fstat_r
                0x0000000000023d0c       0x60 c:/intelfpga_pro/18.1/nios2eds/bin/gnu/h-x86_64-mingw32/bin/../lib/gcc/nios2-elf/7.3.1/../../../../../H-x86_64-mingw32/nios2-elf/lib\libc.a(lib_a-fstatr.o)
                0x0000000000023d0c                _fstat_r
 .text          0x0000000000023d6c        0x0 c:/intelfpga_pro/18.1/nios2eds/bin/gnu/h-x86_64-mingw32/bin/../lib/gcc/nios2-elf/7.3.1/../../../../../H-x86_64-mingw32/nios2-elf/lib\libc.a(lib_a-isattyr.o)
 .text._isatty_r
                0x0000000000023d6c       0x58 c:/intelfpga_pro/18.1/nios2eds/bin/gnu/h-x86_64-mingw32/bin/../lib/gcc/nios2-elf/7.3.1/../../../../../H-x86_64-mingw32/nios2-elf/lib\libc.a(lib_a-isattyr.o)
                0x0000000000023d6c                _isatty_r
 .text          0x0000000000023dc4        0x0 c:/intelfpga_pro/18.1/nios2eds/bin/gnu/h-x86_64-mingw32/bin/../lib/gcc/nios2-elf/7.3.1/../../../../../H-x86_64-mingw32/nios2-elf/lib\libc.a(lib_a-iswspace.o)
 .text.iswspace
                0x0000000000023dc4       0x40 c:/intelfpga_pro/18.1/nios2eds/bin/gnu/h-x86_64-mingw32/bin/../lib/gcc/nios2-elf/7.3.1/../../../../../H-x86_64-mingw32/nios2-elf/lib\libc.a(lib_a-iswspace.o)
                0x0000000000023dc4                iswspace
 .text          0x0000000000023e04        0x0 c:/intelfpga_pro/18.1/nios2eds/bin/gnu/h-x86_64-mingw32/bin/../lib/gcc/nios2-elf/7.3.1/../../../../../H-x86_64-mingw32/nios2-elf/lib\libc.a(lib_a-lseekr.o)
 .text._lseek_r
                0x0000000000023e04       0x64 c:/intelfpga_pro/18.1/nios2eds/bin/gnu/h-x86_64-mingw32/bin/../lib/gcc/nios2-elf/7.3.1/../../../../../H-x86_64-mingw32/nios2-elf/lib\libc.a(lib_a-lseekr.o)
                0x0000000000023e04                _lseek_r
 .text          0x0000000000023e68        0x0 c:/intelfpga_pro/18.1/nios2eds/bin/gnu/h-x86_64-mingw32/bin/../lib/gcc/nios2-elf/7.3.1/../../../../../H-x86_64-mingw32/nios2-elf/lib\libc.a(lib_a-mbrtowc.o)
 .text._mbrtowc_r
                0x0000000000023e68       0xb0 c:/intelfpga_pro/18.1/nios2eds/bin/gnu/h-x86_64-mingw32/bin/../lib/gcc/nios2-elf/7.3.1/../../../../../H-x86_64-mingw32/nios2-elf/lib\libc.a(lib_a-mbrtowc.o)
                0x0000000000023e68                _mbrtowc_r
 .text.mbrtowc  0x0000000000023f18       0xb8 c:/intelfpga_pro/18.1/nios2eds/bin/gnu/h-x86_64-mingw32/bin/../lib/gcc/nios2-elf/7.3.1/../../../../../H-x86_64-mingw32/nios2-elf/lib\libc.a(lib_a-mbrtowc.o)
                0x0000000000023f18                mbrtowc
 .text          0x0000000000023fd0        0x0 c:/intelfpga_pro/18.1/nios2eds/bin/gnu/h-x86_64-mingw32/bin/../lib/gcc/nios2-elf/7.3.1/../../../../../H-x86_64-mingw32/nios2-elf/lib\libc.a(lib_a-readr.o)
 .text._read_r  0x0000000000023fd0       0x64 c:/intelfpga_pro/18.1/nios2eds/bin/gnu/h-x86_64-mingw32/bin/../lib/gcc/nios2-elf/7.3.1/../../../../../H-x86_64-mingw32/nios2-elf/lib\libc.a(lib_a-readr.o)
                0x0000000000023fd0                _read_r
 .text          0x0000000000024034        0x0 c:/intelfpga_pro/18.1/nios2eds/bin/gnu/h-x86_64-mingw32/bin/../lib/gcc/nios2-elf/7.3.1/../../../../../H-x86_64-mingw32/nios2-elf/lib\libc.a(lib_a-sccl.o)
 .text.__sccl   0x0000000000024034       0xd0 c:/intelfpga_pro/18.1/nios2eds/bin/gnu/h-x86_64-mingw32/bin/../lib/gcc/nios2-elf/7.3.1/../../../../../H-x86_64-mingw32/nios2-elf/lib\libc.a(lib_a-sccl.o)
                0x0000000000024034                __sccl
 .text          0x0000000000024104        0x0 c:/intelfpga_pro/18.1/nios2eds/bin/gnu/h-x86_64-mingw32/bin/../lib/gcc/nios2-elf/7.3.1/../../../../../H-x86_64-mingw32/nios2-elf/lib\libc.a(lib_a-strtol.o)
 .text._strtol_l.isra.0
                0x0000000000024104      0x230 c:/intelfpga_pro/18.1/nios2eds/bin/gnu/h-x86_64-mingw32/bin/../lib/gcc/nios2-elf/7.3.1/../../../../../H-x86_64-mingw32/nios2-elf/lib\libc.a(lib_a-strtol.o)
 .text._strtol_r
                0x0000000000024334       0x34 c:/intelfpga_pro/18.1/nios2eds/bin/gnu/h-x86_64-mingw32/bin/../lib/gcc/nios2-elf/7.3.1/../../../../../H-x86_64-mingw32/nios2-elf/lib\libc.a(lib_a-strtol.o)
                0x0000000000024334                _strtol_r
 .text.strtol_l
                0x0000000000024368       0x30 c:/intelfpga_pro/18.1/nios2eds/bin/gnu/h-x86_64-mingw32/bin/../lib/gcc/nios2-elf/7.3.1/../../../../../H-x86_64-mingw32/nios2-elf/lib\libc.a(lib_a-strtol.o)
                0x0000000000024368                strtol_l
 .text.strtol   0x0000000000024398       0x44 c:/intelfpga_pro/18.1/nios2eds/bin/gnu/h-x86_64-mingw32/bin/../lib/gcc/nios2-elf/7.3.1/../../../../../H-x86_64-mingw32/nios2-elf/lib\libc.a(lib_a-strtol.o)
                0x0000000000024398                strtol
 .text          0x00000000000243dc        0x0 c:/intelfpga_pro/18.1/nios2eds/bin/gnu/h-x86_64-mingw32/bin/../lib/gcc/nios2-elf/7.3.1/../../../../../H-x86_64-mingw32/nios2-elf/lib\libc.a(lib_a-strtoll.o)
 .text._strtoll_l.isra.0
                0x00000000000243dc      0x2f4 c:/intelfpga_pro/18.1/nios2eds/bin/gnu/h-x86_64-mingw32/bin/../lib/gcc/nios2-elf/7.3.1/../../../../../H-x86_64-mingw32/nios2-elf/lib\libc.a(lib_a-strtoll.o)
 .text._strtoll_r
                0x00000000000246d0       0x34 c:/intelfpga_pro/18.1/nios2eds/bin/gnu/h-x86_64-mingw32/bin/../lib/gcc/nios2-elf/7.3.1/../../../../../H-x86_64-mingw32/nios2-elf/lib\libc.a(lib_a-strtoll.o)
                0x00000000000246d0                _strtoll_r
 .text.strtoll_l
                0x0000000000024704       0x30 c:/intelfpga_pro/18.1/nios2eds/bin/gnu/h-x86_64-mingw32/bin/../lib/gcc/nios2-elf/7.3.1/../../../../../H-x86_64-mingw32/nios2-elf/lib\libc.a(lib_a-strtoll.o)
                0x0000000000024704                strtoll_l
 .text.strtoll  0x0000000000024734       0x44 c:/intelfpga_pro/18.1/nios2eds/bin/gnu/h-x86_64-mingw32/bin/../lib/gcc/nios2-elf/7.3.1/../../../../../H-x86_64-mingw32/nios2-elf/lib\libc.a(lib_a-strtoll.o)
                0x0000000000024734                strtoll
 .text          0x0000000000024778        0x0 c:/intelfpga_pro/18.1/nios2eds/bin/gnu/h-x86_64-mingw32/bin/../lib/gcc/nios2-elf/7.3.1/../../../../../H-x86_64-mingw32/nios2-elf/lib\libc.a(lib_a-strtoull.o)
 .text._strtoull_l.isra.0
                0x0000000000024778      0x324 c:/intelfpga_pro/18.1/nios2eds/bin/gnu/h-x86_64-mingw32/bin/../lib/gcc/nios2-elf/7.3.1/../../../../../H-x86_64-mingw32/nios2-elf/lib\libc.a(lib_a-strtoull.o)
 .text._strtoull_r
                0x0000000000024a9c       0x34 c:/intelfpga_pro/18.1/nios2eds/bin/gnu/h-x86_64-mingw32/bin/../lib/gcc/nios2-elf/7.3.1/../../../../../H-x86_64-mingw32/nios2-elf/lib\libc.a(lib_a-strtoull.o)
                0x0000000000024a9c                _strtoull_r
 .text.strtoull_l
                0x0000000000024ad0       0x30 c:/intelfpga_pro/18.1/nios2eds/bin/gnu/h-x86_64-mingw32/bin/../lib/gcc/nios2-elf/7.3.1/../../../../../H-x86_64-mingw32/nios2-elf/lib\libc.a(lib_a-strtoull.o)
                0x0000000000024ad0                strtoull_l
 .text.strtoull
                0x0000000000024b00       0x44 c:/intelfpga_pro/18.1/nios2eds/bin/gnu/h-x86_64-mingw32/bin/../lib/gcc/nios2-elf/7.3.1/../../../../../H-x86_64-mingw32/nios2-elf/lib\libc.a(lib_a-strtoull.o)
                0x0000000000024b00                strtoull
 .text          0x0000000000024b44        0x0 c:/intelfpga_pro/18.1/nios2eds/bin/gnu/h-x86_64-mingw32/bin/../lib/gcc/nios2-elf/7.3.1/../../../../../H-x86_64-mingw32/nios2-elf/lib\libc.a(lib_a-wcrtomb.o)
 .text._wcrtomb_r
                0x0000000000024b44       0xa8 c:/intelfpga_pro/18.1/nios2eds/bin/gnu/h-x86_64-mingw32/bin/../lib/gcc/nios2-elf/7.3.1/../../../../../H-x86_64-mingw32/nios2-elf/lib\libc.a(lib_a-wcrtomb.o)
                0x0000000000024b44                _wcrtomb_r
 .text.wcrtomb  0x0000000000024bec       0xac c:/intelfpga_pro/18.1/nios2eds/bin/gnu/h-x86_64-mingw32/bin/../lib/gcc/nios2-elf/7.3.1/../../../../../H-x86_64-mingw32/nios2-elf/lib\libc.a(lib_a-wcrtomb.o)
                0x0000000000024bec                wcrtomb
 .text          0x0000000000024c98       0x80 c:/intelfpga_pro/18.1/nios2eds/bin/gnu/h-x86_64-mingw32/bin/../lib/gcc/nios2-elf/7.3.1\libgcc.a(eqdf2.o)
                0x0000000000024c98                __nedf2
                0x0000000000024c98                __eqdf2
 .text          0x0000000000024d18       0xe0 c:/intelfpga_pro/18.1/nios2eds/bin/gnu/h-x86_64-mingw32/bin/../lib/gcc/nios2-elf/7.3.1\libgcc.a(ledf2.o)
                0x0000000000024d18                __ledf2
                0x0000000000024d18                __ltdf2
 .text          0x0000000000024df8       0x54 c:/intelfpga_pro/18.1/nios2eds/bin/gnu/h-x86_64-mingw32/bin/../lib/gcc/nios2-elf/7.3.1\libgcc.a(unorddf2.o)
                0x0000000000024df8                __unorddf2
 .text          0x0000000000024e4c       0xc8 c:/intelfpga_pro/18.1/nios2eds/bin/gnu/h-x86_64-mingw32/bin/../lib/gcc/nios2-elf/7.3.1\libgcc.a(floatsidf.o)
                0x0000000000024e4c                __floatsidf
 .text          0x0000000000024f14      0x10c C:/Git/ArrowESC/Cyclone10GX_Rev2_Demo/software/C10GX_SoM_Rev2_Demo_bsp/\libhal_bsp.a(alt_close.o)
                0x0000000000024f50                close
 .text          0x0000000000025020       0x78 C:/Git/ArrowESC/Cyclone10GX_Rev2_Demo/software/C10GX_SoM_Rev2_Demo_bsp/\libhal_bsp.a(alt_dcache_flush.o)
                0x0000000000025020                alt_dcache_flush
 .text          0x0000000000025098       0x60 C:/Git/ArrowESC/Cyclone10GX_Rev2_Demo/software/C10GX_SoM_Rev2_Demo_bsp/\libhal_bsp.a(alt_dev.o)
                0x00000000000250c4                alt_dev_reg
 .text          0x00000000000250f8       0xe0 C:/Git/ArrowESC/Cyclone10GX_Rev2_Demo/software/C10GX_SoM_Rev2_Demo_bsp/\libhal_bsp.a(alt_dev_llist_insert.o)
                0x0000000000025134                alt_dev_llist_insert
 .text          0x00000000000251d8       0x48 C:/Git/ArrowESC/Cyclone10GX_Rev2_Demo/software/C10GX_SoM_Rev2_Demo_bsp/\libhal_bsp.a(alt_env_lock.o)
                0x00000000000251d8                __env_lock
                0x00000000000251fc                __env_unlock
 .text          0x0000000000025220        0x0 C:/Git/ArrowESC/Cyclone10GX_Rev2_Demo/software/C10GX_SoM_Rev2_Demo_bsp/\libhal_bsp.a(alt_errno.o)
 .text          0x0000000000025220       0xec C:/Git/ArrowESC/Cyclone10GX_Rev2_Demo/software/C10GX_SoM_Rev2_Demo_bsp/\libhal_bsp.a(alt_fstat.o)
                0x000000000002525c                fstat
 .text          0x000000000002530c       0x34 C:/Git/ArrowESC/Cyclone10GX_Rev2_Demo/software/C10GX_SoM_Rev2_Demo_bsp/\libhal_bsp.a(alt_icache_flush_all.o)
                0x000000000002530c                alt_icache_flush_all
 .text          0x0000000000025340      0x1b0 C:/Git/ArrowESC/Cyclone10GX_Rev2_Demo/software/C10GX_SoM_Rev2_Demo_bsp/\libhal_bsp.a(alt_iic.o)
                0x0000000000025340                alt_ic_isr_register
                0x0000000000025390                alt_ic_irq_enable
                0x0000000000025418                alt_ic_irq_disable
                0x00000000000254a4                alt_ic_irq_enabled
 .text          0x00000000000254f0       0xe4 C:/Git/ArrowESC/Cyclone10GX_Rev2_Demo/software/C10GX_SoM_Rev2_Demo_bsp/\libhal_bsp.a(alt_iic_isr_register.o)
                0x00000000000254f0                alt_iic_isr_register
 .text          0x00000000000255d4       0x2c C:/Git/ArrowESC/Cyclone10GX_Rev2_Demo/software/C10GX_SoM_Rev2_Demo_bsp/\libhal_bsp.a(alt_instruction_exception_register.o)
                0x00000000000255d4                alt_instruction_exception_register
 .text          0x0000000000025600        0x0 C:/Git/ArrowESC/Cyclone10GX_Rev2_Demo/software/C10GX_SoM_Rev2_Demo_bsp/\libhal_bsp.a(alt_irq_entry.o)
 .text          0x0000000000025600        0x0 C:/Git/ArrowESC/Cyclone10GX_Rev2_Demo/software/C10GX_SoM_Rev2_Demo_bsp/\libhal_bsp.a(alt_irq_handler.o)
 .text          0x0000000000025600        0x0 C:/Git/ArrowESC/Cyclone10GX_Rev2_Demo/software/C10GX_SoM_Rev2_Demo_bsp/\libhal_bsp.a(alt_irq_vars.o)
 .text          0x0000000000025600       0xe4 C:/Git/ArrowESC/Cyclone10GX_Rev2_Demo/software/C10GX_SoM_Rev2_Demo_bsp/\libhal_bsp.a(alt_isatty.o)
                0x000000000002563c                isatty
 .text          0x00000000000256e4       0xec C:/Git/ArrowESC/Cyclone10GX_Rev2_Demo/software/C10GX_SoM_Rev2_Demo_bsp/\libhal_bsp.a(alt_load.o)
                0x000000000002574c                alt_load
 .text          0x00000000000257d0      0x110 C:/Git/ArrowESC/Cyclone10GX_Rev2_Demo/software/C10GX_SoM_Rev2_Demo_bsp/\libhal_bsp.a(alt_lseek.o)
                0x000000000002580c                lseek
 .text          0x00000000000258e0       0x7c C:/Git/ArrowESC/Cyclone10GX_Rev2_Demo/software/C10GX_SoM_Rev2_Demo_bsp/\libhal_bsp.a(alt_main.o)
                0x00000000000258e0                alt_main
 .text          0x000000000002595c       0x48 C:/Git/ArrowESC/Cyclone10GX_Rev2_Demo/software/C10GX_SoM_Rev2_Demo_bsp/\libhal_bsp.a(alt_malloc_lock.o)
                0x000000000002595c                __malloc_lock
                0x0000000000025980                __malloc_unlock
 .text          0x00000000000259a4      0x22c C:/Git/ArrowESC/Cyclone10GX_Rev2_Demo/software/C10GX_SoM_Rev2_Demo_bsp/\libhal_bsp.a(alt_printf.o)
                0x00000000000259a4                alt_printf
 .text          0x0000000000025bd0       0x30 C:/Git/ArrowESC/Cyclone10GX_Rev2_Demo/software/C10GX_SoM_Rev2_Demo_bsp/\libhal_bsp.a(alt_putchar.o)
                0x0000000000025bd0                alt_putchar
 .text          0x0000000000025c00      0x138 C:/Git/ArrowESC/Cyclone10GX_Rev2_Demo/software/C10GX_SoM_Rev2_Demo_bsp/\libhal_bsp.a(alt_read.o)
                0x0000000000025c3c                read
 .text          0x0000000000025d38       0x58 C:/Git/ArrowESC/Cyclone10GX_Rev2_Demo/software/C10GX_SoM_Rev2_Demo_bsp/\libhal_bsp.a(alt_release_fd.o)
                0x0000000000025d38                alt_release_fd
 .text          0x0000000000025d90       0xb0 C:/Git/ArrowESC/Cyclone10GX_Rev2_Demo/software/C10GX_SoM_Rev2_Demo_bsp/\libhal_bsp.a(alt_sbrk.o)
                0x0000000000025d90                sbrk
 .text          0x0000000000025e40       0x30 C:/Git/ArrowESC/Cyclone10GX_Rev2_Demo/software/C10GX_SoM_Rev2_Demo_bsp/\libhal_bsp.a(alt_usleep.o)
                0x0000000000025e40                usleep
 .text          0x0000000000025e70      0x134 C:/Git/ArrowESC/Cyclone10GX_Rev2_Demo/software/C10GX_SoM_Rev2_Demo_bsp/\libhal_bsp.a(alt_write.o)
                0x0000000000025eac                write
 .text          0x0000000000025fa4      0x118 C:/Git/ArrowESC/Cyclone10GX_Rev2_Demo/software/C10GX_SoM_Rev2_Demo_bsp/\libhal_bsp.a(alt_sys_init.o)
                0x0000000000025fa4                alt_irq_init
                0x0000000000025fdc                alt_sys_init
 .text          0x00000000000260bc     0x1c10 C:/Git/ArrowESC/Cyclone10GX_Rev2_Demo/software/C10GX_SoM_Rev2_Demo_bsp/\libhal_bsp.a(altera_avalon_i2c.o)
                0x00000000000261cc                alt_avalon_i2c_register_optional_irq_handler
                0x00000000000262b8                alt_avalon_i2c_register_callback
                0x000000000002630c                alt_avalon_i2c_init
                0x00000000000263f8                alt_avalon_i2c_open
                0x0000000000026438                alt_avalon_i2c_enable
                0x00000000000264d0                alt_avalon_i2c_disable
                0x000000000002651c                alt_avalon_i2c_master_config_get
                0x00000000000265cc                alt_avalon_i2c_master_config_set
                0x0000000000026698                alt_avalon_i2c_master_config_speed_get
                0x000000000002672c                alt_avalon_i2c_master_config_speed_set
                0x0000000000026828                alt_avalon_i2c_is_busy
                0x000000000002686c                alt_avalon_i2c_rx_read_available
                0x0000000000026918                alt_avalon_i2c_rx_read
                0x00000000000269c0                alt_avalon_i2c_cmd_write
                0x0000000000026aac                alt_avalon_i2c_send_address
                0x0000000000026b9c                alt_avalon_i2c_master_target_get
                0x0000000000026bd4                alt_avalon_i2c_master_target_set
                0x0000000000026c08                alt_avalon_i2c_check_nack
                0x0000000000026c54                alt_avalon_i2c_check_arblost
                0x0000000000026ca0                alt_avalon_i2c_interrupt_transaction_status
                0x0000000000026dd4                alt_avalon_i2c_master_tx
                0x0000000000026ebc                alt_avalon_i2c_master_rx
                0x0000000000026ff8                alt_avalon_i2c_master_tx_rx
                0x00000000000271c0                alt_avalon_i2c_master_transmit
                0x000000000002737c                alt_avalon_i2c_master_transmit_using_interrupts
                0x0000000000027584                alt_avalon_i2c_master_receive
                0x0000000000027790                alt_avalon_i2c_master_receive_using_interrupts
                0x000000000002797c                alt_avalon_i2c_int_status_get
                0x00000000000279d4                alt_avalon_i2c_int_raw_status_get
                0x0000000000027a18                alt_avalon_i2c_int_clear
                0x0000000000027a54                alt_avalon_i2c_int_disable
                0x0000000000027ac0                alt_avalon_i2c_int_enable
                0x0000000000027b28                alt_avalon_i2c_enabled_ints_get
                0x0000000000027b6c                alt_avalon_i2c_rx_fifo_threshold_get
                0x0000000000027bb8                alt_avalon_i2c_rx_fifo_threshold_set
                0x0000000000027c1c                alt_avalon_i2c_tfr_cmd_fifo_threshold_get
                0x0000000000027c68                alt_avalon_i2c_tfr_cmd_fifo_threshold_set
 .text          0x0000000000027ccc      0x164 C:/Git/ArrowESC/Cyclone10GX_Rev2_Demo/software/C10GX_SoM_Rev2_Demo_bsp/\libhal_bsp.a(altera_avalon_jtag_uart_fd.o)
                0x0000000000027ccc                altera_avalon_jtag_uart_read_fd
                0x0000000000027d2c                altera_avalon_jtag_uart_write_fd
                0x0000000000027d8c                altera_avalon_jtag_uart_close_fd
                0x0000000000027ddc                altera_avalon_jtag_uart_ioctl_fd
 .text          0x0000000000027e30      0x3e0 C:/Git/ArrowESC/Cyclone10GX_Rev2_Demo/software/C10GX_SoM_Rev2_Demo_bsp/\libhal_bsp.a(altera_avalon_jtag_uart_init.o)
                0x0000000000027e30                altera_avalon_jtag_uart_init
                0x00000000000281a8                altera_avalon_jtag_uart_close
 .text          0x0000000000028210       0xf0 C:/Git/ArrowESC/Cyclone10GX_Rev2_Demo/software/C10GX_SoM_Rev2_Demo_bsp/\libhal_bsp.a(altera_avalon_jtag_uart_ioctl.o)
                0x0000000000028210                altera_avalon_jtag_uart_ioctl
 .text          0x0000000000028300      0x21c C:/Git/ArrowESC/Cyclone10GX_Rev2_Demo/software/C10GX_SoM_Rev2_Demo_bsp/\libhal_bsp.a(altera_avalon_jtag_uart_read.o)
                0x0000000000028300                altera_avalon_jtag_uart_read
 .text          0x000000000002851c      0x224 C:/Git/ArrowESC/Cyclone10GX_Rev2_Demo/software/C10GX_SoM_Rev2_Demo_bsp/\libhal_bsp.a(altera_avalon_jtag_uart_write.o)
                0x000000000002851c                altera_avalon_jtag_uart_write
 .text          0x0000000000028740       0xf4 C:/Git/ArrowESC/Cyclone10GX_Rev2_Demo/software/C10GX_SoM_Rev2_Demo_bsp/\libhal_bsp.a(altera_avalon_timer_sc.o)
                0x00000000000287b8                alt_avalon_timer_sc_init
 .text          0x0000000000028834      0x264 C:/Git/ArrowESC/Cyclone10GX_Rev2_Demo/software/C10GX_SoM_Rev2_Demo_bsp/\libhal_bsp.a(altera_avalon_timer_ts.o)
                0x0000000000028834                alt_timestamp_start
                0x00000000000288cc                alt_timestamp
                0x0000000000028a78                alt_timestamp_freq
 .text          0x0000000000028a98        0x0 C:/Git/ArrowESC/Cyclone10GX_Rev2_Demo/software/C10GX_SoM_Rev2_Demo_bsp/\libhal_bsp.a(altera_avalon_timer_vars.o)
 .text          0x0000000000028a98     0x4f28 C:/Git/ArrowESC/Cyclone10GX_Rev2_Demo/software/C10GX_SoM_Rev2_Demo_bsp/\libhal_bsp.a(altera_avalon_tse.o)
                0x0000000000028a98                no_printf
                0x0000000000028ac8                tse_mac_initTransInfo2
                0x0000000000028b28                tse_mac_sTxWrite
                0x0000000000028bf0                tse_mac_aRxRead
                0x0000000000028c60                tse_mac_aTxWrite
                0x0000000000028cd0                tse_mac_SwReset
                0x0000000000028d58                tse_mac_setMIImode
                0x0000000000028dac                tse_mac_setGMIImode
                0x0000000000028dfc                alt_tse_phy_add_profile
                0x0000000000028fb0                alt_tse_system_add_sys
                0x000000000002987c                alt_tse_sys_enable_mdio_sharing
                0x00000000000299c0                alt_tse_mac_get_common_speed
                0x0000000000029a00                alt_tse_mac_set_common_speed
                0x0000000000029a48                alt_tse_get_system_index
                0x0000000000029ab4                alt_tse_get_mac_group_index
                0x0000000000029b20                alt_tse_get_mac_info_index
                0x0000000000029b9c                alt_tse_get_mac_info
                0x0000000000029c68                alt_tse_mac_set_speed
                0x0000000000029d48                alt_tse_mac_set_duplex
                0x0000000000029dd4                getPHYSpeed
                0x000000000002a84c                alt_tse_phy_rd_mdio_addr
                0x000000000002a894                alt_tse_phy_wr_mdio_addr
                0x000000000002a8ec                alt_tse_phy_wr_mdio_reg
                0x000000000002aa18                alt_tse_phy_rd_mdio_reg
                0x000000000002aae8                alt_tse_phy_add_profile_default
                0x000000000002adb0                alt_tse_phy_print_profile
                0x000000000002af80                alt_tse_mac_group_init
                0x000000000002b618                alt_tse_mac_get_phy
                0x000000000002ba18                alt_tse_mac_associate_phy
                0x000000000002bc58                alt_tse_phy_cfg_pcs
                0x000000000002bd80                alt_tse_phy_init
                0x000000000002be8c                alt_tse_phy_restart_an
                0x000000000002c050                alt_tse_phy_check_link
                0x000000000002c1d8                alt_tse_phy_get_cap
                0x000000000002c76c                alt_tse_phy_set_adv_1000
                0x000000000002c930                alt_tse_phy_set_adv_100
                0x000000000002cb84                alt_tse_phy_set_adv_10
                0x000000000002cd2c                alt_tse_phy_get_common_speed
                0x000000000002d04c                alt_tse_phy_set_common_speed
                0x000000000002d4fc                marvell_phy_cfg
                0x000000000002d594                marvell_cfg_gmii
                0x000000000002d678                marvell_cfg_sgmii
                0x000000000002d75c                marvell_cfg_rgmii
                0x000000000002d84c                DP83848C_link_status_read
                0x000000000002d8c4                PEF7071_config
                0x000000000002d920                PEF7071_link_status_read
 .text          0x000000000002d9c0        0x0 C:/Git/ArrowESC/Cyclone10GX_Rev2_Demo/software/C10GX_SoM_Rev2_Demo_bsp/\libhal_bsp.a(altera_avalon_tse_system_info.o)
 .text          0x000000000002d9c0      0xb68 C:/Git/ArrowESC/Cyclone10GX_Rev2_Demo/software/C10GX_SoM_Rev2_Demo_bsp/\libhal_bsp.a(altera_generic_quad_spi_controller2.o)
                0x000000000002d9c0                alt_qspi_controller2_lock
                0x000000000002dabc                alt_qspi_controller2_get_info
                0x000000000002db48                alt_qspi_controller2_erase_block
                0x000000000002dcb8                alt_qspi_controller2_write_block
                0x000000000002df24                alt_qspi_controller2_write
                0x000000000002e10c                alt_qspi_controller2_read
                0x000000000002e1b8                altera_qspi_controller2_init
 .text          0x000000000002e528     0x1fbc C:/Git/ArrowESC/Cyclone10GX_Rev2_Demo/software/C10GX_SoM_Rev2_Demo_bsp/\libhal_bsp.a(altera_msgdma.o)
                0x000000000002f0dc                alt_msgdma_construct_standard_st_to_mm_descriptor
                0x000000000002f134                alt_msgdma_construct_standard_mm_to_st_descriptor
                0x000000000002f18c                alt_msgdma_construct_standard_mm_to_mm_descriptor
                0x000000000002f1e4                alt_msgdma_construct_extended_st_to_mm_descriptor
                0x000000000002f274                alt_msgdma_construct_extended_mm_to_st_descriptor
                0x000000000002f304                alt_msgdma_construct_extended_mm_to_mm_descriptor
                0x000000000002f5e4                alt_msgdma_construct_prefetcher_standard_mm_to_mm_descriptor
                0x000000000002f63c                alt_msgdma_construct_prefetcher_standard_st_to_mm_descriptor
                0x000000000002f694                alt_msgdma_construct_prefetcher_standard_mm_to_st_descriptor
                0x000000000002f6ec                alt_msgdma_construct_prefetcher_extended_st_to_mm_descriptor
                0x000000000002f78c                alt_msgdma_construct_prefetcher_extended_mm_to_st_descriptor
                0x000000000002f824                alt_msgdma_construct_prefetcher_extended_mm_to_mm_descriptor
                0x000000000002f8dc                alt_msgdma_prefetcher_add_standard_desc_to_list
                0x000000000002f9cc                alt_msgdma_prefetcher_add_extended_desc_to_list
                0x000000000002fb64                alt_msgdma_prefetcher_set_std_list_own_by_hw_bits
                0x000000000002fc74                alt_msgdma_prefetcher_set_extd_list_own_by_hw_bits
                0x000000000002fdc0                alt_msgdma_start_prefetcher_with_list_addr
                0x0000000000030080                alt_msgdma_start_prefetcher_with_std_desc_list
                0x0000000000030130                alt_msgdma_start_prefetcher_with_extd_desc_list
                0x00000000000301e0                alt_msgdma_open
                0x0000000000030238                alt_msgdma_init
                0x00000000000303a0                alt_msgdma_register_callback
                0x00000000000303f4                alt_msgdma_standard_descriptor_async_transfer
                0x0000000000030430                alt_msgdma_extended_descriptor_async_transfer
                0x000000000003046c                alt_msgdma_standard_descriptor_sync_transfer
                0x00000000000304a8                alt_msgdma_extended_descriptor_sync_transfer
 .text          0x00000000000304e4      0x158 C:/Git/ArrowESC/Cyclone10GX_Rev2_Demo/software/C10GX_SoM_Rev2_Demo_bsp/\libhal_bsp.a(alt_alarm_start.o)
                0x00000000000304e4                alt_alarm_start
 .text          0x000000000003063c      0x158 C:/Git/ArrowESC/Cyclone10GX_Rev2_Demo/software/C10GX_SoM_Rev2_Demo_bsp/\libhal_bsp.a(alt_busy_sleep.o)
                0x000000000003063c                alt_busy_sleep
 .text          0x0000000000030794       0x48 C:/Git/ArrowESC/Cyclone10GX_Rev2_Demo/software/C10GX_SoM_Rev2_Demo_bsp/\libhal_bsp.a(alt_dcache_flush_all.o)
                0x0000000000030794                alt_dcache_flush_all
 .text          0x00000000000307dc       0x60 C:/Git/ArrowESC/Cyclone10GX_Rev2_Demo/software/C10GX_SoM_Rev2_Demo_bsp/\libhal_bsp.a(alt_do_ctors.o)
                0x00000000000307dc                _do_ctors
 .text          0x000000000003083c       0x60 C:/Git/ArrowESC/Cyclone10GX_Rev2_Demo/software/C10GX_SoM_Rev2_Demo_bsp/\libhal_bsp.a(alt_do_dtors.o)
                0x000000000003083c                _do_dtors
 .text          0x000000000003089c        0x0 C:/Git/ArrowESC/Cyclone10GX_Rev2_Demo/software/C10GX_SoM_Rev2_Demo_bsp/\libhal_bsp.a(alt_exception_entry.o)
 .text          0x000000000003089c      0x160 C:/Git/ArrowESC/Cyclone10GX_Rev2_Demo/software/C10GX_SoM_Rev2_Demo_bsp/\libhal_bsp.a(alt_find_dev.o)
                0x000000000003089c                alt_find_dev
 .text          0x00000000000309fc       0xf0 C:/Git/ArrowESC/Cyclone10GX_Rev2_Demo/software/C10GX_SoM_Rev2_Demo_bsp/\libhal_bsp.a(alt_flash_dev.o)
                0x00000000000309fc                alt_flash_open_dev
                0x0000000000030a64                alt_flash_close_dev
                0x0000000000030ab8                alt_flash_device_register
 .text          0x0000000000030aec       0x90 C:/Git/ArrowESC/Cyclone10GX_Rev2_Demo/software/C10GX_SoM_Rev2_Demo_bsp/\libhal_bsp.a(alt_icache_flush.o)
                0x0000000000030aec                alt_icache_flush
 .text          0x0000000000030b7c       0x98 C:/Git/ArrowESC/Cyclone10GX_Rev2_Demo/software/C10GX_SoM_Rev2_Demo_bsp/\libhal_bsp.a(alt_instruction_exception_entry.o)
                0x0000000000030b7c                alt_exception_cause_generated_bad_addr
 .text          0x0000000000030c14      0x12c C:/Git/ArrowESC/Cyclone10GX_Rev2_Demo/software/C10GX_SoM_Rev2_Demo_bsp/\libhal_bsp.a(alt_io_redirect.o)
                0x0000000000030cc4                alt_io_redirect
 .text          0x0000000000030d40      0x248 C:/Git/ArrowESC/Cyclone10GX_Rev2_Demo/software/C10GX_SoM_Rev2_Demo_bsp/\libhal_bsp.a(alt_open.o)
                0x0000000000030e34                open
 .text          0x0000000000030f88      0x1c8 C:/Git/ArrowESC/Cyclone10GX_Rev2_Demo/software/C10GX_SoM_Rev2_Demo_bsp/\libhal_bsp.a(alt_tick.o)
                0x0000000000030f88                alt_alarm_stop
                0x0000000000031024                alt_tick
 .text          0x0000000000031150       0x24 C:/Git/ArrowESC/Cyclone10GX_Rev2_Demo/software/C10GX_SoM_Rev2_Demo_bsp/\libhal_bsp.a(altera_nios2_gen2_irq.o)
                0x0000000000031150                altera_nios2_gen2_irq_init
 .text          0x0000000000031174      0x184 C:/Git/ArrowESC/Cyclone10GX_Rev2_Demo/software/C10GX_SoM_Rev2_Demo_bsp/\libhal_bsp.a(alt_find_file.o)
                0x0000000000031174                alt_find_file
 .text          0x00000000000312f8       0xa0 C:/Git/ArrowESC/Cyclone10GX_Rev2_Demo/software/C10GX_SoM_Rev2_Demo_bsp/\libhal_bsp.a(alt_get_fd.o)
                0x00000000000312f8                alt_get_fd
 .text          0x0000000000031398        0x0 c:/intelfpga_pro/18.1/nios2eds/bin/gnu/h-x86_64-mingw32/bin/../lib/gcc/nios2-elf/7.3.1/../../../../../H-x86_64-mingw32/nios2-elf/lib\libc.a(lib_a-atexit.o)
 .text.atexit   0x0000000000031398       0x14 c:/intelfpga_pro/18.1/nios2eds/bin/gnu/h-x86_64-mingw32/bin/../lib/gcc/nios2-elf/7.3.1/../../../../../H-x86_64-mingw32/nios2-elf/lib\libc.a(lib_a-atexit.o)
                0x0000000000031398                atexit
 .text          0x00000000000313ac        0x0 c:/intelfpga_pro/18.1/nios2eds/bin/gnu/h-x86_64-mingw32/bin/../lib/gcc/nios2-elf/7.3.1/../../../../../H-x86_64-mingw32/nios2-elf/lib\libc.a(lib_a-exit.o)
 .text.exit     0x00000000000313ac       0x34 c:/intelfpga_pro/18.1/nios2eds/bin/gnu/h-x86_64-mingw32/bin/../lib/gcc/nios2-elf/7.3.1/../../../../../H-x86_64-mingw32/nios2-elf/lib\libc.a(lib_a-exit.o)
                0x00000000000313ac                exit
 .text          0x00000000000313e0        0x0 c:/intelfpga_pro/18.1/nios2eds/bin/gnu/h-x86_64-mingw32/bin/../lib/gcc/nios2-elf/7.3.1/../../../../../H-x86_64-mingw32/nios2-elf/lib\libc.a(lib_a-__atexit.o)
 .text.__register_exitproc
                0x00000000000313e0      0x10c c:/intelfpga_pro/18.1/nios2eds/bin/gnu/h-x86_64-mingw32/bin/../lib/gcc/nios2-elf/7.3.1/../../../../../H-x86_64-mingw32/nios2-elf/lib\libc.a(lib_a-__atexit.o)
                0x00000000000313e0                __register_exitproc
 .text          0x00000000000314ec        0x0 c:/intelfpga_pro/18.1/nios2eds/bin/gnu/h-x86_64-mingw32/bin/../lib/gcc/nios2-elf/7.3.1/../../../../../H-x86_64-mingw32/nios2-elf/lib\libc.a(lib_a-__call_atexit.o)
 .text.__call_exitprocs
                0x00000000000314ec      0x16c c:/intelfpga_pro/18.1/nios2eds/bin/gnu/h-x86_64-mingw32/bin/../lib/gcc/nios2-elf/7.3.1/../../../../../H-x86_64-mingw32/nios2-elf/lib\libc.a(lib_a-__call_atexit.o)
                0x00000000000314ec                __call_exitprocs
 .text          0x0000000000031658       0x34 C:/Git/ArrowESC/Cyclone10GX_Rev2_Demo/software/C10GX_SoM_Rev2_Demo_bsp/\libhal_bsp.a(alt_exit.o)
                0x0000000000031658                _exit
 *(.gnu.warning.*)
 *(.fini)
                [!provide]                        PROVIDE (__etext, ABSOLUTE (.))
                [!provide]                        PROVIDE (_etext, ABSOLUTE (.))
                [!provide]                        PROVIDE (etext, ABSOLUTE (.))
 *(.eh_frame_hdr)
                0x000000000003168c                . = ALIGN (0x4)
                [!provide]                        PROVIDE (__preinit_array_start, ABSOLUTE (.))
 *(.preinit_array)
                [!provide]                        PROVIDE (__preinit_array_end, ABSOLUTE (.))
                [!provide]                        PROVIDE (__init_array_start, ABSOLUTE (.))
 *(.init_array)
                [!provide]                        PROVIDE (__init_array_end, ABSOLUTE (.))
                [!provide]                        PROVIDE (__fini_array_start, ABSOLUTE (.))
 *(.fini_array)
                [!provide]                        PROVIDE (__fini_array_end, ABSOLUTE (.))
 *(.eh_frame)
 *(.gcc_except_table .gcc_except_table.*)
 *(.dynamic)
                0x000000000003168c                PROVIDE (__CTOR_LIST__, ABSOLUTE (.))
 *(.ctors)
 *(SORT(.ctors.*))
                0x000000000003168c                PROVIDE (__CTOR_END__, ABSOLUTE (.))
                0x000000000003168c                PROVIDE (__DTOR_LIST__, ABSOLUTE (.))
 *(.dtors)
 *(SORT(.dtors.*))
                0x000000000003168c                PROVIDE (__DTOR_END__, ABSOLUTE (.))
 *(.jcr)
                0x000000000003168c                . = ALIGN (0x4)

.rodata         0x000000000003168c     0x4524
                0x000000000003168c                PROVIDE (__ram_rodata_start, ABSOLUTE (.))
                0x000000000003168c                . = ALIGN (0x4)
 *(.rodata .rodata.* .gnu.linkonce.r.*)
 .rodata        0x000000000003168c       0x9d obj/default/ethernet.o
 *fill*         0x0000000000031729        0x3 
 .rodata        0x000000000003172c      0x31e obj/default/fmc/ad9144/ad9144.o
 *fill*         0x0000000000031a4a        0x2 
 .rodata        0x0000000000031a4c       0x96 obj/default/fmc/ad9523/ad9523.o
 *fill*         0x0000000000031ae2        0x2 
 .rodata        0x0000000000031ae4       0x3f obj/default/fmc/ad9680/ad9680.o
 *fill*         0x0000000000031b23        0x1 
 .rodata        0x0000000000031b24      0x156 obj/default/fmc/common_drivers/adc_core/adc_core.o
 *fill*         0x0000000000031c7a        0x2 
 .rodata        0x0000000000031c7c      0x814 obj/default/fmc/common_drivers/dac_buffer/dac_buffer.o
 .rodata        0x0000000000032490       0x8e obj/default/fmc/common_drivers/dac_core/dac_core.o
 *fill*         0x000000000003251e        0x2 
 .rodata        0x0000000000032520       0x37 obj/default/fmc/common_drivers/dmac_core/dmac_core.o
 *fill*         0x0000000000032557        0x1 
 .rodata        0x0000000000032558      0x5e2 obj/default/fmc/common_drivers/fru_tools/fru_tools.o
 *fill*         0x0000000000032b3a        0x2 
 .rodata        0x0000000000032b3c      0x2ec obj/default/fmc/common_drivers/jesd_core/jesd_core.o
 .rodata        0x0000000000032e28        0x3 obj/default/fmc/common_drivers/platform_drivers/platform_drivers.o
 *fill*         0x0000000000032e2b        0x1 
 .rodata        0x0000000000032e2c      0x257 obj/default/fmc/common_drivers/xcvr_core/xcvr_core.o
 *fill*         0x0000000000033083        0x1 
 .rodata        0x0000000000033084       0x50 obj/default/fmc/common_drivers/xcvr_core/xcvr_modules/altera_a10_atx_pll.o
                0x0000000000033084                atx_bands
 .rodata        0x00000000000330d4      0x154 obj/default/fmc/common_drivers/xcvr_core/xcvr_modules/altera_pll_common.o
 .rodata        0x0000000000033228      0x34a obj/default/jesd204b.o
 *fill*         0x0000000000033572        0x2 
 .rodata        0x0000000000033574       0x37 obj/default/main.o
 .rodata        0x00000000000335ab      0x100 c:/intelfpga_pro/18.1/nios2eds/bin/gnu/h-x86_64-mingw32/bin/../lib/gcc/nios2-elf/7.3.1\libgcc.a(_clz.o)
                0x00000000000335ab                __clz_tab
 *fill*         0x00000000000336ab        0x1 
 .rodata._setlocale_r.str1.4
                0x00000000000336ac        0xa c:/intelfpga_pro/18.1/nios2eds/bin/gnu/h-x86_64-mingw32/bin/../lib/gcc/nios2-elf/7.3.1/../../../../../H-x86_64-mingw32/nios2-elf/lib\libc.a(lib_a-locale.o)
                                          0xd (size before relaxing)
 *fill*         0x00000000000336b6        0x2 
 .rodata.str1.4
                0x00000000000336b8        0x2 c:/intelfpga_pro/18.1/nios2eds/bin/gnu/h-x86_64-mingw32/bin/../lib/gcc/nios2-elf/7.3.1/../../../../../H-x86_64-mingw32/nios2-elf/lib\libc.a(lib_a-locale.o)
 *fill*         0x00000000000336ba        0x2 
 .rodata._DAYS_BEFORE_MONTH
                0x00000000000336bc       0x30 c:/intelfpga_pro/18.1/nios2eds/bin/gnu/h-x86_64-mingw32/bin/../lib/gcc/nios2-elf/7.3.1/../../../../../H-x86_64-mingw32/nios2-elf/lib\libc.a(lib_a-mktime.o)
 .rodata.DAYS_IN_MONTH
                0x00000000000336ec       0x30 c:/intelfpga_pro/18.1/nios2eds/bin/gnu/h-x86_64-mingw32/bin/../lib/gcc/nios2-elf/7.3.1/../../../../../H-x86_64-mingw32/nios2-elf/lib\libc.a(lib_a-mktime.o)
 .rodata._puts_r.str1.4
                0x000000000003371c        0x2 c:/intelfpga_pro/18.1/nios2eds/bin/gnu/h-x86_64-mingw32/bin/../lib/gcc/nios2-elf/7.3.1/../../../../../H-x86_64-mingw32/nios2-elf/lib\libc.a(lib_a-puts.o)
 *fill*         0x000000000003371e        0x2 
 .rodata.___svfprintf_internal_r.str1.4
                0x0000000000033720       0x42 c:/intelfpga_pro/18.1/nios2eds/bin/gnu/h-x86_64-mingw32/bin/../lib/gcc/nios2-elf/7.3.1/../../../../../H-x86_64-mingw32/nios2-elf/lib\libc.a(lib_a-svfprintf.o)
 .rodata.zeroes.4637
                0x0000000000033762       0x10 c:/intelfpga_pro/18.1/nios2eds/bin/gnu/h-x86_64-mingw32/bin/../lib/gcc/nios2-elf/7.3.1/../../../../../H-x86_64-mingw32/nios2-elf/lib\libc.a(lib_a-svfprintf.o)
 .rodata.blanks.4636
                0x0000000000033772       0x10 c:/intelfpga_pro/18.1/nios2eds/bin/gnu/h-x86_64-mingw32/bin/../lib/gcc/nios2-elf/7.3.1/../../../../../H-x86_64-mingw32/nios2-elf/lib\libc.a(lib_a-svfprintf.o)
 *fill*         0x0000000000033782        0x2 
 .rodata._tzset_unlocked_r.str1.4
                0x0000000000033784       0x53 c:/intelfpga_pro/18.1/nios2eds/bin/gnu/h-x86_64-mingw32/bin/../lib/gcc/nios2-elf/7.3.1/../../../../../H-x86_64-mingw32/nios2-elf/lib\libc.a(lib_a-tzset_r.o)
 .rodata.str1.4
                0x00000000000337d7        0x4 c:/intelfpga_pro/18.1/nios2eds/bin/gnu/h-x86_64-mingw32/bin/../lib/gcc/nios2-elf/7.3.1/../../../../../H-x86_64-mingw32/nios2-elf/lib\libc.a(lib_a-tzvars.o)
 .rodata.___vfprintf_internal_r.str1.4
                0x00000000000337d7       0x42 c:/intelfpga_pro/18.1/nios2eds/bin/gnu/h-x86_64-mingw32/bin/../lib/gcc/nios2-elf/7.3.1/../../../../../H-x86_64-mingw32/nios2-elf/lib\libc.a(lib_a-vfprintf.o)
 .rodata.zeroes.4652
                0x00000000000337d7       0x10 c:/intelfpga_pro/18.1/nios2eds/bin/gnu/h-x86_64-mingw32/bin/../lib/gcc/nios2-elf/7.3.1/../../../../../H-x86_64-mingw32/nios2-elf/lib\libc.a(lib_a-vfprintf.o)
 .rodata.blanks.4651
                0x00000000000337e7       0x10 c:/intelfpga_pro/18.1/nios2eds/bin/gnu/h-x86_64-mingw32/bin/../lib/gcc/nios2-elf/7.3.1/../../../../../H-x86_64-mingw32/nios2-elf/lib\libc.a(lib_a-vfprintf.o)
 .rodata._ctype_
                0x00000000000337f7      0x101 c:/intelfpga_pro/18.1/nios2eds/bin/gnu/h-x86_64-mingw32/bin/../lib/gcc/nios2-elf/7.3.1/../../../../../H-x86_64-mingw32/nios2-elf/lib\libc.a(lib_a-ctype_.o)
                0x00000000000337f7                _ctype_
 .rodata._ctype_b
                0x00000000000338f8      0x180 c:/intelfpga_pro/18.1/nios2eds/bin/gnu/h-x86_64-mingw32/bin/../lib/gcc/nios2-elf/7.3.1/../../../../../H-x86_64-mingw32/nios2-elf/lib\libc.a(lib_a-ctype_.o)
                0x00000000000338f8                _ctype_b
 .rodata._dtoa_r.str1.4
                0x0000000000033a78       0x10 c:/intelfpga_pro/18.1/nios2eds/bin/gnu/h-x86_64-mingw32/bin/../lib/gcc/nios2-elf/7.3.1/../../../../../H-x86_64-mingw32/nios2-elf/lib\libc.a(lib_a-dtoa.o)
                                         0x12 (size before relaxing)
 .rodata.__month_lengths
                0x0000000000033a88       0x60 c:/intelfpga_pro/18.1/nios2eds/bin/gnu/h-x86_64-mingw32/bin/../lib/gcc/nios2-elf/7.3.1/../../../../../H-x86_64-mingw32/nios2-elf/lib\libc.a(lib_a-month_lengths.o)
                0x0000000000033a88                __month_lengths
 .rodata.p05.3456
                0x0000000000033ae8        0xc c:/intelfpga_pro/18.1/nios2eds/bin/gnu/h-x86_64-mingw32/bin/../lib/gcc/nios2-elf/7.3.1/../../../../../H-x86_64-mingw32/nios2-elf/lib\libc.a(lib_a-mprec.o)
 .rodata.__mprec_tinytens
                0x0000000000033af4       0x28 c:/intelfpga_pro/18.1/nios2eds/bin/gnu/h-x86_64-mingw32/bin/../lib/gcc/nios2-elf/7.3.1/../../../../../H-x86_64-mingw32/nios2-elf/lib\libc.a(lib_a-mprec.o)
                0x0000000000033af4                __mprec_tinytens
 .rodata.__mprec_bigtens
                0x0000000000033b1c       0x28 c:/intelfpga_pro/18.1/nios2eds/bin/gnu/h-x86_64-mingw32/bin/../lib/gcc/nios2-elf/7.3.1/../../../../../H-x86_64-mingw32/nios2-elf/lib\libc.a(lib_a-mprec.o)
                0x0000000000033b1c                __mprec_bigtens
 .rodata.__mprec_tens
                0x0000000000033b44       0xc8 c:/intelfpga_pro/18.1/nios2eds/bin/gnu/h-x86_64-mingw32/bin/../lib/gcc/nios2-elf/7.3.1/../../../../../H-x86_64-mingw32/nios2-elf/lib\libc.a(lib_a-mprec.o)
                0x0000000000033b44                __mprec_tens
 .rodata.___svfiprintf_internal_r.str1.4
                0x0000000000033c0c       0x2f c:/intelfpga_pro/18.1/nios2eds/bin/gnu/h-x86_64-mingw32/bin/../lib/gcc/nios2-elf/7.3.1/../../../../../H-x86_64-mingw32/nios2-elf/lib\libc.a(lib_a-svfiprintf.o)
 .rodata.zeroes.4617
                0x0000000000033c0c       0x10 c:/intelfpga_pro/18.1/nios2eds/bin/gnu/h-x86_64-mingw32/bin/../lib/gcc/nios2-elf/7.3.1/../../../../../H-x86_64-mingw32/nios2-elf/lib\libc.a(lib_a-svfiprintf.o)
 .rodata.blanks.4616
                0x0000000000033c1c       0x10 c:/intelfpga_pro/18.1/nios2eds/bin/gnu/h-x86_64-mingw32/bin/../lib/gcc/nios2-elf/7.3.1/../../../../../H-x86_64-mingw32/nios2-elf/lib\libc.a(lib_a-svfiprintf.o)
 .rodata.basefix.4209
                0x0000000000033c2c       0x22 c:/intelfpga_pro/18.1/nios2eds/bin/gnu/h-x86_64-mingw32/bin/../lib/gcc/nios2-elf/7.3.1/../../../../../H-x86_64-mingw32/nios2-elf/lib\libc.a(lib_a-svfiscanf.o)
 .rodata.___vfiprintf_internal_r.str1.4
                0x0000000000033c4e       0x2f c:/intelfpga_pro/18.1/nios2eds/bin/gnu/h-x86_64-mingw32/bin/../lib/gcc/nios2-elf/7.3.1/../../../../../H-x86_64-mingw32/nios2-elf/lib\libc.a(lib_a-vfiprintf.o)
 .rodata.zeroes.4633
                0x0000000000033c4e       0x10 c:/intelfpga_pro/18.1/nios2eds/bin/gnu/h-x86_64-mingw32/bin/../lib/gcc/nios2-elf/7.3.1/../../../../../H-x86_64-mingw32/nios2-elf/lib\libc.a(lib_a-vfiprintf.o)
 .rodata.blanks.4632
                0x0000000000033c5e       0x10 c:/intelfpga_pro/18.1/nios2eds/bin/gnu/h-x86_64-mingw32/bin/../lib/gcc/nios2-elf/7.3.1/../../../../../H-x86_64-mingw32/nios2-elf/lib\libc.a(lib_a-vfiprintf.o)
 .rodata._mbrtowc_r.str1.4
                0x0000000000033c6e        0x1 c:/intelfpga_pro/18.1/nios2eds/bin/gnu/h-x86_64-mingw32/bin/../lib/gcc/nios2-elf/7.3.1/../../../../../H-x86_64-mingw32/nios2-elf/lib\libc.a(lib_a-mbrtowc.o)
 *fill*         0x0000000000033c6e        0x2 
 .rodata        0x0000000000033c70        0xa C:/Git/ArrowESC/Cyclone10GX_Rev2_Demo/software/C10GX_SoM_Rev2_Demo_bsp/\libhal_bsp.a(alt_dev.o)
 *fill*         0x0000000000033c7a        0x2 
 .rodata        0x0000000000033c7c       0x11 C:/Git/ArrowESC/Cyclone10GX_Rev2_Demo/software/C10GX_SoM_Rev2_Demo_bsp/\libhal_bsp.a(alt_main.o)
 *fill*         0x0000000000033c8d        0x3 
 .rodata        0x0000000000033c90       0x89 C:/Git/ArrowESC/Cyclone10GX_Rev2_Demo/software/C10GX_SoM_Rev2_Demo_bsp/\libhal_bsp.a(alt_sys_init.o)
 *fill*         0x0000000000033d19        0x3 
 .rodata        0x0000000000033d1c       0x1d C:/Git/ArrowESC/Cyclone10GX_Rev2_Demo/software/C10GX_SoM_Rev2_Demo_bsp/\libhal_bsp.a(altera_avalon_i2c.o)
 *fill*         0x0000000000033d39        0x3 
 .rodata        0x0000000000033d3c     0x1c83 C:/Git/ArrowESC/Cyclone10GX_Rev2_Demo/software/C10GX_SoM_Rev2_Demo_bsp/\libhal_bsp.a(altera_avalon_tse.o)
 *fill*         0x00000000000359bf        0x1 
 .rodata        0x00000000000359c0      0x1ed C:/Git/ArrowESC/Cyclone10GX_Rev2_Demo/software/C10GX_SoM_Rev2_Demo_bsp/\libhal_bsp.a(altera_msgdma.o)
 *(.rodata1)
                0x0000000000035bb0                . = ALIGN (0x4)
 *fill*         0x0000000000035bad        0x3 
                0x0000000000035bb0                PROVIDE (__ram_rodata_end, ABSOLUTE (.))
                0x000000000003168c                PROVIDE (__flash_rodata_start, LOADADDR (.rodata))

.rwdata         0x0000000000035bb0     0x1e40 load address 0x00000000000379f0
                0x0000000000035bb0                PROVIDE (__ram_rwdata_start, ABSOLUTE (.))
                0x0000000000035bb0                . = ALIGN (0x4)
 *(.got.plt)
 *(.got)
 *(.data1)
 *(.data .data.* .gnu.linkonce.d.*)
 .data          0x0000000000035bb0        0x0 C:/Git/ArrowESC/Cyclone10GX_Rev2_Demo/software/C10GX_SoM_Rev2_Demo_bsp//obj/HAL/src/crt0.o
 .data          0x0000000000035bb0        0x0 obj/default/crc.o
 .data          0x0000000000035bb0        0x0 obj/default/ethernet.o
 .data          0x0000000000035bb0        0x0 obj/default/fmc/ad9144/ad9144.o
 .data          0x0000000000035bb0        0x0 obj/default/fmc/ad9523/ad9523.o
 .data          0x0000000000035bb0        0x0 obj/default/fmc/ad9680/ad9680.o
 .data          0x0000000000035bb0        0x0 obj/default/fmc/common_drivers/adc_core/adc_core.o
 .data          0x0000000000035bb0        0x0 obj/default/fmc/common_drivers/communication/generic/Communication.o
 .data          0x0000000000035bb0        0x0 obj/default/fmc/common_drivers/dac_buffer/dac_buffer.o
 .data          0x0000000000035bb0        0x0 obj/default/fmc/common_drivers/dac_core/dac_core.o
 .data          0x0000000000035bb0        0x0 obj/default/fmc/common_drivers/dmac_core/dmac_core.o
 .data          0x0000000000035bb0        0x0 obj/default/fmc/common_drivers/fru_tools/fru_tools.o
 .data          0x0000000000035bb0       0x30 obj/default/fmc/common_drivers/jesd_core/jesd_core.o
 .data          0x0000000000035be0        0x0 obj/default/fmc/common_drivers/platform_drivers/platform_drivers.o
 .data          0x0000000000035be0        0x0 obj/default/fmc/common_drivers/xcvr_core/xcvr_core.o
 .data          0x0000000000035be0        0x0 obj/default/fmc/common_drivers/xcvr_core/xcvr_modules/altera_a10_atx_pll.o
 .data          0x0000000000035be0        0x0 obj/default/fmc/common_drivers/xcvr_core/xcvr_modules/altera_a10_fpll.o
 .data          0x0000000000035be0        0x0 obj/default/fmc/common_drivers/xcvr_core/xcvr_modules/altera_a10_xcvr_channel.o
 .data          0x0000000000035be0        0x0 obj/default/fmc/common_drivers/xcvr_core/xcvr_modules/altera_pll_common.o
 .data          0x0000000000035be0        0x0 obj/default/fmc/common_drivers/xcvr_core/xcvr_modules/xilinx_qpll.o
 .data          0x0000000000035be0        0x0 obj/default/fmc/common_drivers/xcvr_core/xcvr_modules/xilinx_xcvr_channel.o
 .data          0x0000000000035be0        0x0 obj/default/iioscope.o
 .data          0x0000000000035be0        0x0 obj/default/jesd204b.o
 .data          0x0000000000035be0        0x0 obj/default/main.o
 .data          0x0000000000035be0        0x0 obj/default/support.o
 .data          0x0000000000035be0        0x0 c:/intelfpga_pro/18.1/nios2eds/bin/gnu/h-x86_64-mingw32/bin/../lib/gcc/nios2-elf/7.3.1\libgcc.a(_muldi3.o)
 .data          0x0000000000035be0        0x0 c:/intelfpga_pro/18.1/nios2eds/bin/gnu/h-x86_64-mingw32/bin/../lib/gcc/nios2-elf/7.3.1\libgcc.a(_bswapsi2.o)
 .data          0x0000000000035be0        0x0 c:/intelfpga_pro/18.1/nios2eds/bin/gnu/h-x86_64-mingw32/bin/../lib/gcc/nios2-elf/7.3.1\libgcc.a(_fixunsdfsi.o)
 .data          0x0000000000035be0        0x0 c:/intelfpga_pro/18.1/nios2eds/bin/gnu/h-x86_64-mingw32/bin/../lib/gcc/nios2-elf/7.3.1\libgcc.a(_fixunsdfdi.o)
 .data          0x0000000000035be0        0x0 c:/intelfpga_pro/18.1/nios2eds/bin/gnu/h-x86_64-mingw32/bin/../lib/gcc/nios2-elf/7.3.1\libgcc.a(_udivdi3.o)
 .data          0x0000000000035be0        0x0 c:/intelfpga_pro/18.1/nios2eds/bin/gnu/h-x86_64-mingw32/bin/../lib/gcc/nios2-elf/7.3.1\libgcc.a(_umoddi3.o)
 .data          0x0000000000035be0        0x0 c:/intelfpga_pro/18.1/nios2eds/bin/gnu/h-x86_64-mingw32/bin/../lib/gcc/nios2-elf/7.3.1\libgcc.a(lib2-divmod.o)
 .data          0x0000000000035be0        0x0 c:/intelfpga_pro/18.1/nios2eds/bin/gnu/h-x86_64-mingw32/bin/../lib/gcc/nios2-elf/7.3.1\libgcc.a(adddf3.o)
 .data          0x0000000000035be0        0x0 c:/intelfpga_pro/18.1/nios2eds/bin/gnu/h-x86_64-mingw32/bin/../lib/gcc/nios2-elf/7.3.1\libgcc.a(divdf3.o)
 .data          0x0000000000035be0        0x0 c:/intelfpga_pro/18.1/nios2eds/bin/gnu/h-x86_64-mingw32/bin/../lib/gcc/nios2-elf/7.3.1\libgcc.a(gedf2.o)
 .data          0x0000000000035be0        0x0 c:/intelfpga_pro/18.1/nios2eds/bin/gnu/h-x86_64-mingw32/bin/../lib/gcc/nios2-elf/7.3.1\libgcc.a(muldf3.o)
 .data          0x0000000000035be0        0x0 c:/intelfpga_pro/18.1/nios2eds/bin/gnu/h-x86_64-mingw32/bin/../lib/gcc/nios2-elf/7.3.1\libgcc.a(subdf3.o)
 .data          0x0000000000035be0        0x0 c:/intelfpga_pro/18.1/nios2eds/bin/gnu/h-x86_64-mingw32/bin/../lib/gcc/nios2-elf/7.3.1\libgcc.a(fixdfsi.o)
 .data          0x0000000000035be0        0x0 c:/intelfpga_pro/18.1/nios2eds/bin/gnu/h-x86_64-mingw32/bin/../lib/gcc/nios2-elf/7.3.1\libgcc.a(floatunsidf.o)
 .data          0x0000000000035be0        0x0 c:/intelfpga_pro/18.1/nios2eds/bin/gnu/h-x86_64-mingw32/bin/../lib/gcc/nios2-elf/7.3.1\libgcc.a(extendsfdf2.o)
 .data          0x0000000000035be0        0x0 c:/intelfpga_pro/18.1/nios2eds/bin/gnu/h-x86_64-mingw32/bin/../lib/gcc/nios2-elf/7.3.1\libgcc.a(_clz.o)
 .data          0x0000000000035be0        0x0 c:/intelfpga_pro/18.1/nios2eds/bin/gnu/h-x86_64-mingw32/bin/../lib/gcc/nios2-elf/7.3.1\libgcc.a(_clzsi2.o)
 .data          0x0000000000035be0        0x0 c:/intelfpga_pro/18.1/nios2eds/bin/gnu/h-x86_64-mingw32/bin/../lib/gcc/nios2-elf/7.3.1/../../../../../H-x86_64-mingw32/nios2-elf/lib\libc.a(lib_a-calloc.o)
 .data          0x0000000000035be0        0x0 c:/intelfpga_pro/18.1/nios2eds/bin/gnu/h-x86_64-mingw32/bin/../lib/gcc/nios2-elf/7.3.1/../../../../../H-x86_64-mingw32/nios2-elf/lib\libc.a(lib_a-callocr.o)
 .data          0x0000000000035be0        0x0 c:/intelfpga_pro/18.1/nios2eds/bin/gnu/h-x86_64-mingw32/bin/../lib/gcc/nios2-elf/7.3.1/../../../../../H-x86_64-mingw32/nios2-elf/lib\libc.a(lib_a-getc.o)
 .data          0x0000000000035be0        0x0 c:/intelfpga_pro/18.1/nios2eds/bin/gnu/h-x86_64-mingw32/bin/../lib/gcc/nios2-elf/7.3.1/../../../../../H-x86_64-mingw32/nios2-elf/lib\libc.a(lib_a-impure.o)
 .data.impure_data
                0x0000000000035be0      0x424 c:/intelfpga_pro/18.1/nios2eds/bin/gnu/h-x86_64-mingw32/bin/../lib/gcc/nios2-elf/7.3.1/../../../../../H-x86_64-mingw32/nios2-elf/lib\libc.a(lib_a-impure.o)
 .data          0x0000000000036004        0x0 c:/intelfpga_pro/18.1/nios2eds/bin/gnu/h-x86_64-mingw32/bin/../lib/gcc/nios2-elf/7.3.1/../../../../../H-x86_64-mingw32/nios2-elf/lib\libc.a(lib_a-locale.o)
 .data.__global_locale
                0x0000000000036004      0x16c c:/intelfpga_pro/18.1/nios2eds/bin/gnu/h-x86_64-mingw32/bin/../lib/gcc/nios2-elf/7.3.1/../../../../../H-x86_64-mingw32/nios2-elf/lib\libc.a(lib_a-locale.o)
                0x0000000000036004                __global_locale
 .data          0x0000000000036170        0x0 c:/intelfpga_pro/18.1/nios2eds/bin/gnu/h-x86_64-mingw32/bin/../lib/gcc/nios2-elf/7.3.1/../../../../../H-x86_64-mingw32/nios2-elf/lib\libc.a(lib_a-malloc.o)
 .data          0x0000000000036170        0x0 c:/intelfpga_pro/18.1/nios2eds/bin/gnu/h-x86_64-mingw32/bin/../lib/gcc/nios2-elf/7.3.1/../../../../../H-x86_64-mingw32/nios2-elf/lib\libc.a(lib_a-mallocr.o)
 .data.__malloc_av_
                0x0000000000036170      0x408 c:/intelfpga_pro/18.1/nios2eds/bin/gnu/h-x86_64-mingw32/bin/../lib/gcc/nios2-elf/7.3.1/../../../../../H-x86_64-mingw32/nios2-elf/lib\libc.a(lib_a-mallocr.o)
                0x0000000000036170                __malloc_av_
 .data          0x0000000000036578        0x0 c:/intelfpga_pro/18.1/nios2eds/bin/gnu/h-x86_64-mingw32/bin/../lib/gcc/nios2-elf/7.3.1/../../../../../H-x86_64-mingw32/nios2-elf/lib\libc.a(lib_a-mbtowc_r.o)
 .data          0x0000000000036578        0x0 c:/intelfpga_pro/18.1/nios2eds/bin/gnu/h-x86_64-mingw32/bin/../lib/gcc/nios2-elf/7.3.1/../../../../../H-x86_64-mingw32/nios2-elf/lib\libc.a(lib_a-memcpy.o)
 .data          0x0000000000036578        0x0 c:/intelfpga_pro/18.1/nios2eds/bin/gnu/h-x86_64-mingw32/bin/../lib/gcc/nios2-elf/7.3.1/../../../../../H-x86_64-mingw32/nios2-elf/lib\libc.a(lib_a-memset.o)
 .data          0x0000000000036578        0x0 c:/intelfpga_pro/18.1/nios2eds/bin/gnu/h-x86_64-mingw32/bin/../lib/gcc/nios2-elf/7.3.1/../../../../../H-x86_64-mingw32/nios2-elf/lib\libc.a(lib_a-mktime.o)
 .data          0x0000000000036578        0x0 c:/intelfpga_pro/18.1/nios2eds/bin/gnu/h-x86_64-mingw32/bin/../lib/gcc/nios2-elf/7.3.1/../../../../../H-x86_64-mingw32/nios2-elf/lib\libc.a(lib_a-printf.o)
 .data          0x0000000000036578        0x0 c:/intelfpga_pro/18.1/nios2eds/bin/gnu/h-x86_64-mingw32/bin/../lib/gcc/nios2-elf/7.3.1/../../../../../H-x86_64-mingw32/nios2-elf/lib\libc.a(lib_a-putchar.o)
 .data          0x0000000000036578        0x0 c:/intelfpga_pro/18.1/nios2eds/bin/gnu/h-x86_64-mingw32/bin/../lib/gcc/nios2-elf/7.3.1/../../../../../H-x86_64-mingw32/nios2-elf/lib\libc.a(lib_a-puts.o)
 .data          0x0000000000036578        0x0 c:/intelfpga_pro/18.1/nios2eds/bin/gnu/h-x86_64-mingw32/bin/../lib/gcc/nios2-elf/7.3.1/../../../../../H-x86_64-mingw32/nios2-elf/lib\libc.a(lib_a-rget.o)
 .data          0x0000000000036578        0x0 c:/intelfpga_pro/18.1/nios2eds/bin/gnu/h-x86_64-mingw32/bin/../lib/gcc/nios2-elf/7.3.1/../../../../../H-x86_64-mingw32/nios2-elf/lib\libc.a(lib_a-sbrkr.o)
 .data          0x0000000000036578        0x0 c:/intelfpga_pro/18.1/nios2eds/bin/gnu/h-x86_64-mingw32/bin/../lib/gcc/nios2-elf/7.3.1/../../../../../H-x86_64-mingw32/nios2-elf/lib\libc.a(lib_a-sprintf.o)
 .data          0x0000000000036578        0x0 c:/intelfpga_pro/18.1/nios2eds/bin/gnu/h-x86_64-mingw32/bin/../lib/gcc/nios2-elf/7.3.1/../../../../../H-x86_64-mingw32/nios2-elf/lib\libc.a(lib_a-strcmp.o)
 .data          0x0000000000036578        0x0 c:/intelfpga_pro/18.1/nios2eds/bin/gnu/h-x86_64-mingw32/bin/../lib/gcc/nios2-elf/7.3.1/../../../../../H-x86_64-mingw32/nios2-elf/lib\libc.a(lib_a-strcpy.o)
 .data          0x0000000000036578        0x0 c:/intelfpga_pro/18.1/nios2eds/bin/gnu/h-x86_64-mingw32/bin/../lib/gcc/nios2-elf/7.3.1/../../../../../H-x86_64-mingw32/nios2-elf/lib\libc.a(lib_a-strlen.o)
 .data          0x0000000000036578        0x0 c:/intelfpga_pro/18.1/nios2eds/bin/gnu/h-x86_64-mingw32/bin/../lib/gcc/nios2-elf/7.3.1/../../../../../H-x86_64-mingw32/nios2-elf/lib\libc.a(lib_a-svfprintf.o)
 .data          0x0000000000036578        0x0 c:/intelfpga_pro/18.1/nios2eds/bin/gnu/h-x86_64-mingw32/bin/../lib/gcc/nios2-elf/7.3.1/../../../../../H-x86_64-mingw32/nios2-elf/lib\libc.a(lib_a-tzcalc_limits.o)
 .data          0x0000000000036578        0x0 c:/intelfpga_pro/18.1/nios2eds/bin/gnu/h-x86_64-mingw32/bin/../lib/gcc/nios2-elf/7.3.1/../../../../../H-x86_64-mingw32/nios2-elf/lib\libc.a(lib_a-tzlock.o)
 .data          0x0000000000036578        0x0 c:/intelfpga_pro/18.1/nios2eds/bin/gnu/h-x86_64-mingw32/bin/../lib/gcc/nios2-elf/7.3.1/../../../../../H-x86_64-mingw32/nios2-elf/lib\libc.a(lib_a-tzset.o)
 .data          0x0000000000036578        0x0 c:/intelfpga_pro/18.1/nios2eds/bin/gnu/h-x86_64-mingw32/bin/../lib/gcc/nios2-elf/7.3.1/../../../../../H-x86_64-mingw32/nios2-elf/lib\libc.a(lib_a-tzset_r.o)
 .data          0x0000000000036578        0x0 c:/intelfpga_pro/18.1/nios2eds/bin/gnu/h-x86_64-mingw32/bin/../lib/gcc/nios2-elf/7.3.1/../../../../../H-x86_64-mingw32/nios2-elf/lib\libc.a(lib_a-tzvars.o)
 .data          0x0000000000036578        0x0 c:/intelfpga_pro/18.1/nios2eds/bin/gnu/h-x86_64-mingw32/bin/../lib/gcc/nios2-elf/7.3.1/../../../../../H-x86_64-mingw32/nios2-elf/lib\libc.a(lib_a-vfprintf.o)
 .data          0x0000000000036578        0x0 c:/intelfpga_pro/18.1/nios2eds/bin/gnu/h-x86_64-mingw32/bin/../lib/gcc/nios2-elf/7.3.1/../../../../../H-x86_64-mingw32/nios2-elf/lib\libc.a(lib_a-wctomb_r.o)
 .data          0x0000000000036578        0x0 c:/intelfpga_pro/18.1/nios2eds/bin/gnu/h-x86_64-mingw32/bin/../lib/gcc/nios2-elf/7.3.1/../../../../../H-x86_64-mingw32/nios2-elf/lib\libc.a(lib_a-wsetup.o)
 .data          0x0000000000036578        0x0 c:/intelfpga_pro/18.1/nios2eds/bin/gnu/h-x86_64-mingw32/bin/../lib/gcc/nios2-elf/7.3.1/../../../../../H-x86_64-mingw32/nios2-elf/lib\libc.a(lib_a-ctype_.o)
 .data          0x0000000000036578        0x0 c:/intelfpga_pro/18.1/nios2eds/bin/gnu/h-x86_64-mingw32/bin/../lib/gcc/nios2-elf/7.3.1/../../../../../H-x86_64-mingw32/nios2-elf/lib\libc.a(lib_a-div.o)
 .data          0x0000000000036578        0x0 c:/intelfpga_pro/18.1/nios2eds/bin/gnu/h-x86_64-mingw32/bin/../lib/gcc/nios2-elf/7.3.1/../../../../../H-x86_64-mingw32/nios2-elf/lib\libc.a(lib_a-dtoa.o)
 .data          0x0000000000036578        0x0 c:/intelfpga_pro/18.1/nios2eds/bin/gnu/h-x86_64-mingw32/bin/../lib/gcc/nios2-elf/7.3.1/../../../../../H-x86_64-mingw32/nios2-elf/lib\libc.a(lib_a-fflush.o)
 .data          0x0000000000036578        0x0 c:/intelfpga_pro/18.1/nios2eds/bin/gnu/h-x86_64-mingw32/bin/../lib/gcc/nios2-elf/7.3.1/../../../../../H-x86_64-mingw32/nios2-elf/lib\libc.a(lib_a-findfp.o)
 .data          0x0000000000036578        0x0 c:/intelfpga_pro/18.1/nios2eds/bin/gnu/h-x86_64-mingw32/bin/../lib/gcc/nios2-elf/7.3.1/../../../../../H-x86_64-mingw32/nios2-elf/lib\libc.a(lib_a-freer.o)
 .data          0x0000000000036578        0x0 c:/intelfpga_pro/18.1/nios2eds/bin/gnu/h-x86_64-mingw32/bin/../lib/gcc/nios2-elf/7.3.1/../../../../../H-x86_64-mingw32/nios2-elf/lib\libc.a(lib_a-fvwrite.o)
 .data          0x0000000000036578        0x0 c:/intelfpga_pro/18.1/nios2eds/bin/gnu/h-x86_64-mingw32/bin/../lib/gcc/nios2-elf/7.3.1/../../../../../H-x86_64-mingw32/nios2-elf/lib\libc.a(lib_a-fwalk.o)
 .data          0x0000000000036578        0x0 c:/intelfpga_pro/18.1/nios2eds/bin/gnu/h-x86_64-mingw32/bin/../lib/gcc/nios2-elf/7.3.1/../../../../../H-x86_64-mingw32/nios2-elf/lib\libc.a(lib_a-getenv_r.o)
 .data          0x0000000000036578        0x0 c:/intelfpga_pro/18.1/nios2eds/bin/gnu/h-x86_64-mingw32/bin/../lib/gcc/nios2-elf/7.3.1/../../../../../H-x86_64-mingw32/nios2-elf/lib\libc.a(lib_a-gettzinfo.o)
 .data.tzinfo   0x0000000000036578       0x40 c:/intelfpga_pro/18.1/nios2eds/bin/gnu/h-x86_64-mingw32/bin/../lib/gcc/nios2-elf/7.3.1/../../../../../H-x86_64-mingw32/nios2-elf/lib\libc.a(lib_a-gettzinfo.o)
 .data          0x00000000000365b8        0x0 c:/intelfpga_pro/18.1/nios2eds/bin/gnu/h-x86_64-mingw32/bin/../lib/gcc/nios2-elf/7.3.1/../../../../../H-x86_64-mingw32/nios2-elf/lib\libc.a(lib_a-int_errno.o)
 .data          0x00000000000365b8        0x0 c:/intelfpga_pro/18.1/nios2eds/bin/gnu/h-x86_64-mingw32/bin/../lib/gcc/nios2-elf/7.3.1/../../../../../H-x86_64-mingw32/nios2-elf/lib\libc.a(lib_a-localeconv.o)
 .data          0x00000000000365b8        0x0 c:/intelfpga_pro/18.1/nios2eds/bin/gnu/h-x86_64-mingw32/bin/../lib/gcc/nios2-elf/7.3.1/../../../../../H-x86_64-mingw32/nios2-elf/lib\libc.a(lib_a-makebuf.o)
 .data          0x00000000000365b8        0x0 c:/intelfpga_pro/18.1/nios2eds/bin/gnu/h-x86_64-mingw32/bin/../lib/gcc/nios2-elf/7.3.1/../../../../../H-x86_64-mingw32/nios2-elf/lib\libc.a(lib_a-memchr.o)
 .data          0x00000000000365b8        0x0 c:/intelfpga_pro/18.1/nios2eds/bin/gnu/h-x86_64-mingw32/bin/../lib/gcc/nios2-elf/7.3.1/../../../../../H-x86_64-mingw32/nios2-elf/lib\libc.a(lib_a-memmove.o)
 .data          0x00000000000365b8        0x0 c:/intelfpga_pro/18.1/nios2eds/bin/gnu/h-x86_64-mingw32/bin/../lib/gcc/nios2-elf/7.3.1/../../../../../H-x86_64-mingw32/nios2-elf/lib\libc.a(lib_a-month_lengths.o)
 .data          0x00000000000365b8        0x0 c:/intelfpga_pro/18.1/nios2eds/bin/gnu/h-x86_64-mingw32/bin/../lib/gcc/nios2-elf/7.3.1/../../../../../H-x86_64-mingw32/nios2-elf/lib\libc.a(lib_a-mprec.o)
 .data          0x00000000000365b8        0x0 c:/intelfpga_pro/18.1/nios2eds/bin/gnu/h-x86_64-mingw32/bin/../lib/gcc/nios2-elf/7.3.1/../../../../../H-x86_64-mingw32/nios2-elf/lib\libc.a(lib_a-putc.o)
 .data          0x00000000000365b8        0x0 c:/intelfpga_pro/18.1/nios2eds/bin/gnu/h-x86_64-mingw32/bin/../lib/gcc/nios2-elf/7.3.1/../../../../../H-x86_64-mingw32/nios2-elf/lib\libc.a(lib_a-reallocr.o)
 .data          0x00000000000365b8        0x0 c:/intelfpga_pro/18.1/nios2eds/bin/gnu/h-x86_64-mingw32/bin/../lib/gcc/nios2-elf/7.3.1/../../../../../H-x86_64-mingw32/nios2-elf/lib\libc.a(lib_a-refill.o)
 .data          0x00000000000365b8        0x0 c:/intelfpga_pro/18.1/nios2eds/bin/gnu/h-x86_64-mingw32/bin/../lib/gcc/nios2-elf/7.3.1/../../../../../H-x86_64-mingw32/nios2-elf/lib\libc.a(lib_a-siscanf.o)
 .data          0x00000000000365b8        0x0 c:/intelfpga_pro/18.1/nios2eds/bin/gnu/h-x86_64-mingw32/bin/../lib/gcc/nios2-elf/7.3.1/../../../../../H-x86_64-mingw32/nios2-elf/lib\libc.a(lib_a-stdio.o)
 .data          0x00000000000365b8        0x0 c:/intelfpga_pro/18.1/nios2eds/bin/gnu/h-x86_64-mingw32/bin/../lib/gcc/nios2-elf/7.3.1/../../../../../H-x86_64-mingw32/nios2-elf/lib\libc.a(lib_a-strncmp.o)
 .data          0x00000000000365b8        0x0 c:/intelfpga_pro/18.1/nios2eds/bin/gnu/h-x86_64-mingw32/bin/../lib/gcc/nios2-elf/7.3.1/../../../../../H-x86_64-mingw32/nios2-elf/lib\libc.a(lib_a-strtoul.o)
 .data          0x00000000000365b8        0x0 c:/intelfpga_pro/18.1/nios2eds/bin/gnu/h-x86_64-mingw32/bin/../lib/gcc/nios2-elf/7.3.1/../../../../../H-x86_64-mingw32/nios2-elf/lib\libc.a(lib_a-svfiprintf.o)
 .data          0x00000000000365b8        0x0 c:/intelfpga_pro/18.1/nios2eds/bin/gnu/h-x86_64-mingw32/bin/../lib/gcc/nios2-elf/7.3.1/../../../../../H-x86_64-mingw32/nios2-elf/lib\libc.a(lib_a-svfiscanf.o)
 .data          0x00000000000365b8        0x0 c:/intelfpga_pro/18.1/nios2eds/bin/gnu/h-x86_64-mingw32/bin/../lib/gcc/nios2-elf/7.3.1/../../../../../H-x86_64-mingw32/nios2-elf/lib\libc.a(lib_a-ungetc.o)
 .data          0x00000000000365b8        0x0 c:/intelfpga_pro/18.1/nios2eds/bin/gnu/h-x86_64-mingw32/bin/../lib/gcc/nios2-elf/7.3.1/../../../../../H-x86_64-mingw32/nios2-elf/lib\libc.a(lib_a-vfiprintf.o)
 .data          0x00000000000365b8        0x0 c:/intelfpga_pro/18.1/nios2eds/bin/gnu/h-x86_64-mingw32/bin/../lib/gcc/nios2-elf/7.3.1/../../../../../H-x86_64-mingw32/nios2-elf/lib\libc.a(lib_a-wbuf.o)
 .data          0x00000000000365b8        0x0 c:/intelfpga_pro/18.1/nios2eds/bin/gnu/h-x86_64-mingw32/bin/../lib/gcc/nios2-elf/7.3.1/../../../../../H-x86_64-mingw32/nios2-elf/lib\libc.a(lib_a-writer.o)
 .data          0x00000000000365b8        0x0 c:/intelfpga_pro/18.1/nios2eds/bin/gnu/h-x86_64-mingw32/bin/../lib/gcc/nios2-elf/7.3.1/../../../../../H-x86_64-mingw32/nios2-elf/lib\libc.a(closer.o)
 .data          0x00000000000365b8        0x0 c:/intelfpga_pro/18.1/nios2eds/bin/gnu/h-x86_64-mingw32/bin/../lib/gcc/nios2-elf/7.3.1/../../../../../H-x86_64-mingw32/nios2-elf/lib\libc.a(lib_a-environ.o)
 .data          0x00000000000365b8        0x0 c:/intelfpga_pro/18.1/nios2eds/bin/gnu/h-x86_64-mingw32/bin/../lib/gcc/nios2-elf/7.3.1/../../../../../H-x86_64-mingw32/nios2-elf/lib\libc.a(lib_a-fclose.o)
 .data          0x00000000000365b8        0x0 c:/intelfpga_pro/18.1/nios2eds/bin/gnu/h-x86_64-mingw32/bin/../lib/gcc/nios2-elf/7.3.1/../../../../../H-x86_64-mingw32/nios2-elf/lib\libc.a(lib_a-fputwc.o)
 .data          0x00000000000365b8        0x0 c:/intelfpga_pro/18.1/nios2eds/bin/gnu/h-x86_64-mingw32/bin/../lib/gcc/nios2-elf/7.3.1/../../../../../H-x86_64-mingw32/nios2-elf/lib\libc.a(lib_a-fstatr.o)
 .data          0x00000000000365b8        0x0 c:/intelfpga_pro/18.1/nios2eds/bin/gnu/h-x86_64-mingw32/bin/../lib/gcc/nios2-elf/7.3.1/../../../../../H-x86_64-mingw32/nios2-elf/lib\libc.a(lib_a-isattyr.o)
 .data          0x00000000000365b8        0x0 c:/intelfpga_pro/18.1/nios2eds/bin/gnu/h-x86_64-mingw32/bin/../lib/gcc/nios2-elf/7.3.1/../../../../../H-x86_64-mingw32/nios2-elf/lib\libc.a(lib_a-iswspace.o)
 .data          0x00000000000365b8        0x0 c:/intelfpga_pro/18.1/nios2eds/bin/gnu/h-x86_64-mingw32/bin/../lib/gcc/nios2-elf/7.3.1/../../../../../H-x86_64-mingw32/nios2-elf/lib\libc.a(lib_a-lseekr.o)
 .data          0x00000000000365b8        0x0 c:/intelfpga_pro/18.1/nios2eds/bin/gnu/h-x86_64-mingw32/bin/../lib/gcc/nios2-elf/7.3.1/../../../../../H-x86_64-mingw32/nios2-elf/lib\libc.a(lib_a-mbrtowc.o)
 .data          0x00000000000365b8        0x0 c:/intelfpga_pro/18.1/nios2eds/bin/gnu/h-x86_64-mingw32/bin/../lib/gcc/nios2-elf/7.3.1/../../../../../H-x86_64-mingw32/nios2-elf/lib\libc.a(lib_a-readr.o)
 .data          0x00000000000365b8        0x0 c:/intelfpga_pro/18.1/nios2eds/bin/gnu/h-x86_64-mingw32/bin/../lib/gcc/nios2-elf/7.3.1/../../../../../H-x86_64-mingw32/nios2-elf/lib\libc.a(lib_a-sccl.o)
 .data          0x00000000000365b8        0x0 c:/intelfpga_pro/18.1/nios2eds/bin/gnu/h-x86_64-mingw32/bin/../lib/gcc/nios2-elf/7.3.1/../../../../../H-x86_64-mingw32/nios2-elf/lib\libc.a(lib_a-strtol.o)
 .data          0x00000000000365b8        0x0 c:/intelfpga_pro/18.1/nios2eds/bin/gnu/h-x86_64-mingw32/bin/../lib/gcc/nios2-elf/7.3.1/../../../../../H-x86_64-mingw32/nios2-elf/lib\libc.a(lib_a-strtoll.o)
 .data          0x00000000000365b8        0x0 c:/intelfpga_pro/18.1/nios2eds/bin/gnu/h-x86_64-mingw32/bin/../lib/gcc/nios2-elf/7.3.1/../../../../../H-x86_64-mingw32/nios2-elf/lib\libc.a(lib_a-strtoull.o)
 .data          0x00000000000365b8        0x0 c:/intelfpga_pro/18.1/nios2eds/bin/gnu/h-x86_64-mingw32/bin/../lib/gcc/nios2-elf/7.3.1/../../../../../H-x86_64-mingw32/nios2-elf/lib\libc.a(lib_a-wcrtomb.o)
 .data          0x00000000000365b8        0x0 c:/intelfpga_pro/18.1/nios2eds/bin/gnu/h-x86_64-mingw32/bin/../lib/gcc/nios2-elf/7.3.1\libgcc.a(eqdf2.o)
 .data          0x00000000000365b8        0x0 c:/intelfpga_pro/18.1/nios2eds/bin/gnu/h-x86_64-mingw32/bin/../lib/gcc/nios2-elf/7.3.1\libgcc.a(ledf2.o)
 .data          0x00000000000365b8        0x0 c:/intelfpga_pro/18.1/nios2eds/bin/gnu/h-x86_64-mingw32/bin/../lib/gcc/nios2-elf/7.3.1\libgcc.a(unorddf2.o)
 .data          0x00000000000365b8        0x0 c:/intelfpga_pro/18.1/nios2eds/bin/gnu/h-x86_64-mingw32/bin/../lib/gcc/nios2-elf/7.3.1\libgcc.a(floatsidf.o)
 .data          0x00000000000365b8        0x0 C:/Git/ArrowESC/Cyclone10GX_Rev2_Demo/software/C10GX_SoM_Rev2_Demo_bsp/\libhal_bsp.a(alt_close.o)
 .data          0x00000000000365b8        0x0 C:/Git/ArrowESC/Cyclone10GX_Rev2_Demo/software/C10GX_SoM_Rev2_Demo_bsp/\libhal_bsp.a(alt_dcache_flush.o)
 .data          0x00000000000365b8      0x1a8 C:/Git/ArrowESC/Cyclone10GX_Rev2_Demo/software/C10GX_SoM_Rev2_Demo_bsp/\libhal_bsp.a(alt_dev.o)
                0x00000000000365b8                alt_dev_null
                0x00000000000365e0                alt_fd_list
 .data          0x0000000000036760        0x0 C:/Git/ArrowESC/Cyclone10GX_Rev2_Demo/software/C10GX_SoM_Rev2_Demo_bsp/\libhal_bsp.a(alt_dev_llist_insert.o)
 .data          0x0000000000036760        0x0 C:/Git/ArrowESC/Cyclone10GX_Rev2_Demo/software/C10GX_SoM_Rev2_Demo_bsp/\libhal_bsp.a(alt_env_lock.o)
 .data          0x0000000000036760        0x0 C:/Git/ArrowESC/Cyclone10GX_Rev2_Demo/software/C10GX_SoM_Rev2_Demo_bsp/\libhal_bsp.a(alt_errno.o)
 .data          0x0000000000036760        0x0 C:/Git/ArrowESC/Cyclone10GX_Rev2_Demo/software/C10GX_SoM_Rev2_Demo_bsp/\libhal_bsp.a(alt_fstat.o)
 .data          0x0000000000036760        0x0 C:/Git/ArrowESC/Cyclone10GX_Rev2_Demo/software/C10GX_SoM_Rev2_Demo_bsp/\libhal_bsp.a(alt_icache_flush_all.o)
 .data          0x0000000000036760        0x0 C:/Git/ArrowESC/Cyclone10GX_Rev2_Demo/software/C10GX_SoM_Rev2_Demo_bsp/\libhal_bsp.a(alt_iic.o)
 .data          0x0000000000036760        0x0 C:/Git/ArrowESC/Cyclone10GX_Rev2_Demo/software/C10GX_SoM_Rev2_Demo_bsp/\libhal_bsp.a(alt_iic_isr_register.o)
 .data          0x0000000000036760        0x0 C:/Git/ArrowESC/Cyclone10GX_Rev2_Demo/software/C10GX_SoM_Rev2_Demo_bsp/\libhal_bsp.a(alt_instruction_exception_register.o)
 .data          0x0000000000036760        0x0 C:/Git/ArrowESC/Cyclone10GX_Rev2_Demo/software/C10GX_SoM_Rev2_Demo_bsp/\libhal_bsp.a(alt_irq_entry.o)
 .data          0x0000000000036760        0x0 C:/Git/ArrowESC/Cyclone10GX_Rev2_Demo/software/C10GX_SoM_Rev2_Demo_bsp/\libhal_bsp.a(alt_irq_handler.o)
 .data          0x0000000000036760        0x0 C:/Git/ArrowESC/Cyclone10GX_Rev2_Demo/software/C10GX_SoM_Rev2_Demo_bsp/\libhal_bsp.a(alt_irq_vars.o)
 .data          0x0000000000036760        0x0 C:/Git/ArrowESC/Cyclone10GX_Rev2_Demo/software/C10GX_SoM_Rev2_Demo_bsp/\libhal_bsp.a(alt_isatty.o)
 .data          0x0000000000036760        0x0 C:/Git/ArrowESC/Cyclone10GX_Rev2_Demo/software/C10GX_SoM_Rev2_Demo_bsp/\libhal_bsp.a(alt_load.o)
 .data          0x0000000000036760        0x0 C:/Git/ArrowESC/Cyclone10GX_Rev2_Demo/software/C10GX_SoM_Rev2_Demo_bsp/\libhal_bsp.a(alt_lseek.o)
 .data          0x0000000000036760        0x0 C:/Git/ArrowESC/Cyclone10GX_Rev2_Demo/software/C10GX_SoM_Rev2_Demo_bsp/\libhal_bsp.a(alt_main.o)
 .data          0x0000000000036760        0x0 C:/Git/ArrowESC/Cyclone10GX_Rev2_Demo/software/C10GX_SoM_Rev2_Demo_bsp/\libhal_bsp.a(alt_malloc_lock.o)
 .data          0x0000000000036760        0x0 C:/Git/ArrowESC/Cyclone10GX_Rev2_Demo/software/C10GX_SoM_Rev2_Demo_bsp/\libhal_bsp.a(alt_printf.o)
 .data          0x0000000000036760        0x0 C:/Git/ArrowESC/Cyclone10GX_Rev2_Demo/software/C10GX_SoM_Rev2_Demo_bsp/\libhal_bsp.a(alt_putchar.o)
 .data          0x0000000000036760        0x0 C:/Git/ArrowESC/Cyclone10GX_Rev2_Demo/software/C10GX_SoM_Rev2_Demo_bsp/\libhal_bsp.a(alt_read.o)
 .data          0x0000000000036760        0x0 C:/Git/ArrowESC/Cyclone10GX_Rev2_Demo/software/C10GX_SoM_Rev2_Demo_bsp/\libhal_bsp.a(alt_release_fd.o)
 .data          0x0000000000036760        0x0 C:/Git/ArrowESC/Cyclone10GX_Rev2_Demo/software/C10GX_SoM_Rev2_Demo_bsp/\libhal_bsp.a(alt_sbrk.o)
 .data          0x0000000000036760        0x0 C:/Git/ArrowESC/Cyclone10GX_Rev2_Demo/software/C10GX_SoM_Rev2_Demo_bsp/\libhal_bsp.a(alt_usleep.o)
 .data          0x0000000000036760        0x0 C:/Git/ArrowESC/Cyclone10GX_Rev2_Demo/software/C10GX_SoM_Rev2_Demo_bsp/\libhal_bsp.a(alt_write.o)
 .data          0x0000000000036760     0x1234 C:/Git/ArrowESC/Cyclone10GX_Rev2_Demo/software/C10GX_SoM_Rev2_Demo_bsp/\libhal_bsp.a(alt_sys_init.o)
 .data          0x0000000000037994        0x0 C:/Git/ArrowESC/Cyclone10GX_Rev2_Demo/software/C10GX_SoM_Rev2_Demo_bsp/\libhal_bsp.a(altera_avalon_i2c.o)
 .data          0x0000000000037994        0x0 C:/Git/ArrowESC/Cyclone10GX_Rev2_Demo/software/C10GX_SoM_Rev2_Demo_bsp/\libhal_bsp.a(altera_avalon_jtag_uart_fd.o)
 .data          0x0000000000037994        0x0 C:/Git/ArrowESC/Cyclone10GX_Rev2_Demo/software/C10GX_SoM_Rev2_Demo_bsp/\libhal_bsp.a(altera_avalon_jtag_uart_init.o)
 .data          0x0000000000037994        0x0 C:/Git/ArrowESC/Cyclone10GX_Rev2_Demo/software/C10GX_SoM_Rev2_Demo_bsp/\libhal_bsp.a(altera_avalon_jtag_uart_ioctl.o)
 .data          0x0000000000037994        0x0 C:/Git/ArrowESC/Cyclone10GX_Rev2_Demo/software/C10GX_SoM_Rev2_Demo_bsp/\libhal_bsp.a(altera_avalon_jtag_uart_read.o)
 .data          0x0000000000037994        0x0 C:/Git/ArrowESC/Cyclone10GX_Rev2_Demo/software/C10GX_SoM_Rev2_Demo_bsp/\libhal_bsp.a(altera_avalon_jtag_uart_write.o)
 .data          0x0000000000037994        0x0 C:/Git/ArrowESC/Cyclone10GX_Rev2_Demo/software/C10GX_SoM_Rev2_Demo_bsp/\libhal_bsp.a(altera_avalon_timer_sc.o)
 .data          0x0000000000037994        0x0 C:/Git/ArrowESC/Cyclone10GX_Rev2_Demo/software/C10GX_SoM_Rev2_Demo_bsp/\libhal_bsp.a(altera_avalon_timer_ts.o)
 .data          0x0000000000037994        0x0 C:/Git/ArrowESC/Cyclone10GX_Rev2_Demo/software/C10GX_SoM_Rev2_Demo_bsp/\libhal_bsp.a(altera_avalon_timer_vars.o)
 .data          0x0000000000037994        0x0 C:/Git/ArrowESC/Cyclone10GX_Rev2_Demo/software/C10GX_SoM_Rev2_Demo_bsp/\libhal_bsp.a(altera_avalon_tse.o)
 .data          0x0000000000037994        0x0 C:/Git/ArrowESC/Cyclone10GX_Rev2_Demo/software/C10GX_SoM_Rev2_Demo_bsp/\libhal_bsp.a(altera_avalon_tse_system_info.o)
 .data          0x0000000000037994        0x0 C:/Git/ArrowESC/Cyclone10GX_Rev2_Demo/software/C10GX_SoM_Rev2_Demo_bsp/\libhal_bsp.a(altera_generic_quad_spi_controller2.o)
 .data          0x0000000000037994        0x0 C:/Git/ArrowESC/Cyclone10GX_Rev2_Demo/software/C10GX_SoM_Rev2_Demo_bsp/\libhal_bsp.a(altera_msgdma.o)
 .data          0x0000000000037994        0x0 C:/Git/ArrowESC/Cyclone10GX_Rev2_Demo/software/C10GX_SoM_Rev2_Demo_bsp/\libhal_bsp.a(alt_alarm_start.o)
 .data          0x0000000000037994        0x0 C:/Git/ArrowESC/Cyclone10GX_Rev2_Demo/software/C10GX_SoM_Rev2_Demo_bsp/\libhal_bsp.a(alt_busy_sleep.o)
 .data          0x0000000000037994        0x0 C:/Git/ArrowESC/Cyclone10GX_Rev2_Demo/software/C10GX_SoM_Rev2_Demo_bsp/\libhal_bsp.a(alt_dcache_flush_all.o)
 .data          0x0000000000037994        0x0 C:/Git/ArrowESC/Cyclone10GX_Rev2_Demo/software/C10GX_SoM_Rev2_Demo_bsp/\libhal_bsp.a(alt_do_ctors.o)
 .data          0x0000000000037994        0x0 C:/Git/ArrowESC/Cyclone10GX_Rev2_Demo/software/C10GX_SoM_Rev2_Demo_bsp/\libhal_bsp.a(alt_do_dtors.o)
 .data          0x0000000000037994        0x0 C:/Git/ArrowESC/Cyclone10GX_Rev2_Demo/software/C10GX_SoM_Rev2_Demo_bsp/\libhal_bsp.a(alt_exception_entry.o)
 .data          0x0000000000037994        0x0 C:/Git/ArrowESC/Cyclone10GX_Rev2_Demo/software/C10GX_SoM_Rev2_Demo_bsp/\libhal_bsp.a(alt_find_dev.o)
 .data          0x0000000000037994        0x0 C:/Git/ArrowESC/Cyclone10GX_Rev2_Demo/software/C10GX_SoM_Rev2_Demo_bsp/\libhal_bsp.a(alt_flash_dev.o)
 .data          0x0000000000037994        0x0 C:/Git/ArrowESC/Cyclone10GX_Rev2_Demo/software/C10GX_SoM_Rev2_Demo_bsp/\libhal_bsp.a(alt_icache_flush.o)
 .data          0x0000000000037994        0x0 C:/Git/ArrowESC/Cyclone10GX_Rev2_Demo/software/C10GX_SoM_Rev2_Demo_bsp/\libhal_bsp.a(alt_instruction_exception_entry.o)
 .data          0x0000000000037994        0x0 C:/Git/ArrowESC/Cyclone10GX_Rev2_Demo/software/C10GX_SoM_Rev2_Demo_bsp/\libhal_bsp.a(alt_io_redirect.o)
 .data          0x0000000000037994        0x0 C:/Git/ArrowESC/Cyclone10GX_Rev2_Demo/software/C10GX_SoM_Rev2_Demo_bsp/\libhal_bsp.a(alt_open.o)
 .data          0x0000000000037994        0x0 C:/Git/ArrowESC/Cyclone10GX_Rev2_Demo/software/C10GX_SoM_Rev2_Demo_bsp/\libhal_bsp.a(alt_tick.o)
 .data          0x0000000000037994        0x0 C:/Git/ArrowESC/Cyclone10GX_Rev2_Demo/software/C10GX_SoM_Rev2_Demo_bsp/\libhal_bsp.a(altera_nios2_gen2_irq.o)
 .data          0x0000000000037994        0x0 C:/Git/ArrowESC/Cyclone10GX_Rev2_Demo/software/C10GX_SoM_Rev2_Demo_bsp/\libhal_bsp.a(alt_find_file.o)
 .data          0x0000000000037994        0x0 C:/Git/ArrowESC/Cyclone10GX_Rev2_Demo/software/C10GX_SoM_Rev2_Demo_bsp/\libhal_bsp.a(alt_get_fd.o)
 .data          0x0000000000037994        0x0 c:/intelfpga_pro/18.1/nios2eds/bin/gnu/h-x86_64-mingw32/bin/../lib/gcc/nios2-elf/7.3.1/../../../../../H-x86_64-mingw32/nios2-elf/lib\libc.a(lib_a-atexit.o)
 .data          0x0000000000037994        0x0 c:/intelfpga_pro/18.1/nios2eds/bin/gnu/h-x86_64-mingw32/bin/../lib/gcc/nios2-elf/7.3.1/../../../../../H-x86_64-mingw32/nios2-elf/lib\libc.a(lib_a-exit.o)
 .data          0x0000000000037994        0x0 c:/intelfpga_pro/18.1/nios2eds/bin/gnu/h-x86_64-mingw32/bin/../lib/gcc/nios2-elf/7.3.1/../../../../../H-x86_64-mingw32/nios2-elf/lib\libc.a(lib_a-__atexit.o)
 .data          0x0000000000037994        0x0 c:/intelfpga_pro/18.1/nios2eds/bin/gnu/h-x86_64-mingw32/bin/../lib/gcc/nios2-elf/7.3.1/../../../../../H-x86_64-mingw32/nios2-elf/lib\libc.a(lib_a-__call_atexit.o)
 .data          0x0000000000037994        0x0 C:/Git/ArrowESC/Cyclone10GX_Rev2_Demo/software/C10GX_SoM_Rev2_Demo_bsp/\libhal_bsp.a(alt_exit.o)
                0x000000000003f994                _gp = ABSOLUTE ((. + 0x8000))
                [!provide]                        PROVIDE (gp, _gp)
 *(.rwdata .rwdata.*)
 *(.sdata .sdata.* .gnu.linkonce.s.*)
 .sdata._global_impure_ptr
                0x0000000000037994        0x4 c:/intelfpga_pro/18.1/nios2eds/bin/gnu/h-x86_64-mingw32/bin/../lib/gcc/nios2-elf/7.3.1/../../../../../H-x86_64-mingw32/nios2-elf/lib\libc.a(lib_a-impure.o)
                0x0000000000037994                _global_impure_ptr
 .sdata._impure_ptr
                0x0000000000037998        0x4 c:/intelfpga_pro/18.1/nios2eds/bin/gnu/h-x86_64-mingw32/bin/../lib/gcc/nios2-elf/7.3.1/../../../../../H-x86_64-mingw32/nios2-elf/lib\libc.a(lib_a-impure.o)
                0x0000000000037998                _impure_ptr
 .sdata.__malloc_sbrk_base
                0x000000000003799c        0x4 c:/intelfpga_pro/18.1/nios2eds/bin/gnu/h-x86_64-mingw32/bin/../lib/gcc/nios2-elf/7.3.1/../../../../../H-x86_64-mingw32/nios2-elf/lib\libc.a(lib_a-mallocr.o)
                0x000000000003799c                __malloc_sbrk_base
 .sdata.__malloc_trim_threshold
                0x00000000000379a0        0x4 c:/intelfpga_pro/18.1/nios2eds/bin/gnu/h-x86_64-mingw32/bin/../lib/gcc/nios2-elf/7.3.1/../../../../../H-x86_64-mingw32/nios2-elf/lib\libc.a(lib_a-mallocr.o)
                0x00000000000379a0                __malloc_trim_threshold
 .sdata._tzname
                0x00000000000379a4        0x8 c:/intelfpga_pro/18.1/nios2eds/bin/gnu/h-x86_64-mingw32/bin/../lib/gcc/nios2-elf/7.3.1/../../../../../H-x86_64-mingw32/nios2-elf/lib\libc.a(lib_a-tzvars.o)
                0x00000000000379a4                _tzname
 .sdata.environ
                0x00000000000379ac        0x4 c:/intelfpga_pro/18.1/nios2eds/bin/gnu/h-x86_64-mingw32/bin/../lib/gcc/nios2-elf/7.3.1/../../../../../H-x86_64-mingw32/nios2-elf/lib\libc.a(lib_a-environ.o)
                0x00000000000379ac                environ
 .sdata         0x00000000000379b0       0x14 C:/Git/ArrowESC/Cyclone10GX_Rev2_Demo/software/C10GX_SoM_Rev2_Demo_bsp/\libhal_bsp.a(alt_dev.o)
                0x00000000000379b0                alt_fs_list
                0x00000000000379b8                alt_dev_list
                0x00000000000379c0                alt_max_fd
 .sdata         0x00000000000379c4        0x4 C:/Git/ArrowESC/Cyclone10GX_Rev2_Demo/software/C10GX_SoM_Rev2_Demo_bsp/\libhal_bsp.a(alt_errno.o)
                0x00000000000379c4                alt_errno
 .sdata         0x00000000000379c8        0x4 C:/Git/ArrowESC/Cyclone10GX_Rev2_Demo/software/C10GX_SoM_Rev2_Demo_bsp/\libhal_bsp.a(alt_sbrk.o)
 .sdata         0x00000000000379cc        0x8 C:/Git/ArrowESC/Cyclone10GX_Rev2_Demo/software/C10GX_SoM_Rev2_Demo_bsp/\libhal_bsp.a(altera_avalon_i2c.o)
                0x00000000000379cc                alt_avalon_i2c_list
 .sdata         0x00000000000379d4        0x1 C:/Git/ArrowESC/Cyclone10GX_Rev2_Demo/software/C10GX_SoM_Rev2_Demo_bsp/\libhal_bsp.a(altera_avalon_tse.o)
                0x00000000000379d4                max_mac_system
 *fill*         0x00000000000379d5        0x3 
 .sdata         0x00000000000379d8        0x8 C:/Git/ArrowESC/Cyclone10GX_Rev2_Demo/software/C10GX_SoM_Rev2_Demo_bsp/\libhal_bsp.a(altera_msgdma.o)
                0x00000000000379d8                alt_msgdma_list
 .sdata         0x00000000000379e0        0x8 C:/Git/ArrowESC/Cyclone10GX_Rev2_Demo/software/C10GX_SoM_Rev2_Demo_bsp/\libhal_bsp.a(alt_flash_dev.o)
                0x00000000000379e0                alt_flash_dev_list
 .sdata         0x00000000000379e8        0x8 C:/Git/ArrowESC/Cyclone10GX_Rev2_Demo/software/C10GX_SoM_Rev2_Demo_bsp/\libhal_bsp.a(alt_tick.o)
                0x00000000000379e8                alt_alarm_list
 *(.sdata2 .sdata2.* .gnu.linkonce.s2.*)
                0x00000000000379f0                . = ALIGN (0x4)
                0x00000000000379f0                _edata = ABSOLUTE (.)
                [!provide]                        PROVIDE (edata, ABSOLUTE (.))
                0x00000000000379f0                PROVIDE (__ram_rwdata_end, ABSOLUTE (.))
                0x00000000000379f0                PROVIDE (__flash_rwdata_start, LOADADDR (.rwdata))

.bss            0x0000000000039830  0x8069dc0
                0x0000000000039830                __bss_start = ABSOLUTE (.)
                [!provide]                        PROVIDE (__sbss_start, ABSOLUTE (.))
                [!provide]                        PROVIDE (___sbss_start, ABSOLUTE (.))
 *(.dynsbss)
 *(.sbss .sbss.* .gnu.linkonce.sb.*)
 .sbss._PathLocale
                0x0000000000039830        0x4 c:/intelfpga_pro/18.1/nios2eds/bin/gnu/h-x86_64-mingw32/bin/../lib/gcc/nios2-elf/7.3.1/../../../../../H-x86_64-mingw32/nios2-elf/lib\libc.a(lib_a-locale.o)
                0x0000000000039830                _PathLocale
 .sbss.__malloc_max_total_mem
                0x0000000000039834        0x4 c:/intelfpga_pro/18.1/nios2eds/bin/gnu/h-x86_64-mingw32/bin/../lib/gcc/nios2-elf/7.3.1/../../../../../H-x86_64-mingw32/nios2-elf/lib\libc.a(lib_a-mallocr.o)
                0x0000000000039834                __malloc_max_total_mem
 .sbss.__malloc_max_sbrked_mem
                0x0000000000039838        0x4 c:/intelfpga_pro/18.1/nios2eds/bin/gnu/h-x86_64-mingw32/bin/../lib/gcc/nios2-elf/7.3.1/../../../../../H-x86_64-mingw32/nios2-elf/lib\libc.a(lib_a-mallocr.o)
                0x0000000000039838                __malloc_max_sbrked_mem
 .sbss.__malloc_top_pad
                0x000000000003983c        0x4 c:/intelfpga_pro/18.1/nios2eds/bin/gnu/h-x86_64-mingw32/bin/../lib/gcc/nios2-elf/7.3.1/../../../../../H-x86_64-mingw32/nios2-elf/lib\libc.a(lib_a-mallocr.o)
                0x000000000003983c                __malloc_top_pad
 .sbss.prev_tzenv
                0x0000000000039840        0x4 c:/intelfpga_pro/18.1/nios2eds/bin/gnu/h-x86_64-mingw32/bin/../lib/gcc/nios2-elf/7.3.1/../../../../../H-x86_64-mingw32/nios2-elf/lib\libc.a(lib_a-tzset_r.o)
 .sbss._timezone
                0x0000000000039844        0x4 c:/intelfpga_pro/18.1/nios2eds/bin/gnu/h-x86_64-mingw32/bin/../lib/gcc/nios2-elf/7.3.1/../../../../../H-x86_64-mingw32/nios2-elf/lib\libc.a(lib_a-tzvars.o)
                0x0000000000039844                _timezone
 .sbss._daylight
                0x0000000000039848        0x4 c:/intelfpga_pro/18.1/nios2eds/bin/gnu/h-x86_64-mingw32/bin/../lib/gcc/nios2-elf/7.3.1/../../../../../H-x86_64-mingw32/nios2-elf/lib\libc.a(lib_a-tzvars.o)
                0x0000000000039848                _daylight
 .sbss          0x000000000003984c        0x4 c:/intelfpga_pro/18.1/nios2eds/bin/gnu/h-x86_64-mingw32/bin/../lib/gcc/nios2-elf/7.3.1/../../../../../H-x86_64-mingw32/nios2-elf/lib\libc.a(lib_a-int_errno.o)
                0x000000000003984c                errno
 .sbss.initial_env
                0x0000000000039850        0x4 c:/intelfpga_pro/18.1/nios2eds/bin/gnu/h-x86_64-mingw32/bin/../lib/gcc/nios2-elf/7.3.1/../../../../../H-x86_64-mingw32/nios2-elf/lib\libc.a(lib_a-environ.o)
 .sbss          0x0000000000039854        0x4 C:/Git/ArrowESC/Cyclone10GX_Rev2_Demo/software/C10GX_SoM_Rev2_Demo_bsp/\libhal_bsp.a(alt_irq_vars.o)
                0x0000000000039854                alt_irq_active
 .sbss          0x0000000000039858        0xc C:/Git/ArrowESC/Cyclone10GX_Rev2_Demo/software/C10GX_SoM_Rev2_Demo_bsp/\libhal_bsp.a(alt_main.o)
                0x0000000000039858                alt_argc
                0x000000000003985c                alt_argv
                0x0000000000039860                alt_envp
 .sbss          0x0000000000039864        0x8 C:/Git/ArrowESC/Cyclone10GX_Rev2_Demo/software/C10GX_SoM_Rev2_Demo_bsp/\libhal_bsp.a(altera_avalon_timer_vars.o)
                0x0000000000039864                altera_avalon_timer_ts_base
                0x0000000000039868                altera_avalon_timer_ts_freq
 .sbss          0x000000000003986c        0x4 C:/Git/ArrowESC/Cyclone10GX_Rev2_Demo/software/C10GX_SoM_Rev2_Demo_bsp/\libhal_bsp.a(altera_avalon_tse.o)
                0x000000000003986c                phy_profile_count
                0x000000000003986d                mac_group_count
 .sbss          0x0000000000039870        0x4 C:/Git/ArrowESC/Cyclone10GX_Rev2_Demo/software/C10GX_SoM_Rev2_Demo_bsp/\libhal_bsp.a(alt_instruction_exception_entry.o)
                0x0000000000039870                alt_instruction_exception_handler
 .sbss          0x0000000000039874        0xc C:/Git/ArrowESC/Cyclone10GX_Rev2_Demo/software/C10GX_SoM_Rev2_Demo_bsp/\libhal_bsp.a(alt_tick.o)
                0x0000000000039874                _alt_tick_rate
                0x0000000000039878                _alt_nticks
 *(.sbss2 .sbss2.* .gnu.linkonce.sb2.*)
 *(.scommon)
                [!provide]                        PROVIDE (__sbss_end, ABSOLUTE (.))
                [!provide]                        PROVIDE (___sbss_end, ABSOLUTE (.))
 *(.dynbss)
 *(.bss .bss.* .gnu.linkonce.b.*)
 .bss           0x0000000000039880        0x0 C:/Git/ArrowESC/Cyclone10GX_Rev2_Demo/software/C10GX_SoM_Rev2_Demo_bsp//obj/HAL/src/crt0.o
 .bss           0x0000000000039880        0x0 obj/default/crc.o
 .bss           0x0000000000039880    0x66838 obj/default/ethernet.o
 .bss           0x00000000000a00b8        0x0 obj/default/fmc/ad9144/ad9144.o
 .bss           0x00000000000a00b8        0x0 obj/default/fmc/ad9523/ad9523.o
 .bss           0x00000000000a00b8        0x0 obj/default/fmc/ad9680/ad9680.o
 .bss           0x00000000000a00b8        0x0 obj/default/fmc/common_drivers/adc_core/adc_core.o
 .bss           0x00000000000a00b8        0x0 obj/default/fmc/common_drivers/communication/generic/Communication.o
 .bss           0x00000000000a00b8        0x0 obj/default/fmc/common_drivers/dac_buffer/dac_buffer.o
 .bss           0x00000000000a00b8        0x0 obj/default/fmc/common_drivers/dac_core/dac_core.o
 .bss           0x00000000000a00b8        0x0 obj/default/fmc/common_drivers/dmac_core/dmac_core.o
 .bss           0x00000000000a00b8        0x0 obj/default/fmc/common_drivers/fru_tools/fru_tools.o
 .bss           0x00000000000a00b8        0x0 obj/default/fmc/common_drivers/jesd_core/jesd_core.o
 .bss           0x00000000000a00b8        0x0 obj/default/fmc/common_drivers/platform_drivers/platform_drivers.o
 .bss           0x00000000000a00b8        0x0 obj/default/fmc/common_drivers/xcvr_core/xcvr_core.o
 .bss           0x00000000000a00b8        0x0 obj/default/fmc/common_drivers/xcvr_core/xcvr_modules/altera_a10_atx_pll.o
 .bss           0x00000000000a00b8        0x0 obj/default/fmc/common_drivers/xcvr_core/xcvr_modules/altera_a10_fpll.o
 .bss           0x00000000000a00b8        0x0 obj/default/fmc/common_drivers/xcvr_core/xcvr_modules/altera_a10_xcvr_channel.o
 .bss           0x00000000000a00b8        0x0 obj/default/fmc/common_drivers/xcvr_core/xcvr_modules/altera_pll_common.o
 .bss           0x00000000000a00b8        0x0 obj/default/fmc/common_drivers/xcvr_core/xcvr_modules/xilinx_qpll.o
 .bss           0x00000000000a00b8        0x0 obj/default/fmc/common_drivers/xcvr_core/xcvr_modules/xilinx_xcvr_channel.o
 .bss           0x00000000000a00b8     0x272c obj/default/iioscope.o
 .bss           0x00000000000a27e4  0x80003ec obj/default/jesd204b.o
 .bss           0x00000000080a2bd0        0x0 obj/default/main.o
 .bss           0x00000000080a2bd0        0x0 obj/default/support.o
 .bss           0x00000000080a2bd0        0x0 c:/intelfpga_pro/18.1/nios2eds/bin/gnu/h-x86_64-mingw32/bin/../lib/gcc/nios2-elf/7.3.1\libgcc.a(_muldi3.o)
 .bss           0x00000000080a2bd0        0x0 c:/intelfpga_pro/18.1/nios2eds/bin/gnu/h-x86_64-mingw32/bin/../lib/gcc/nios2-elf/7.3.1\libgcc.a(_bswapsi2.o)
 .bss           0x00000000080a2bd0        0x0 c:/intelfpga_pro/18.1/nios2eds/bin/gnu/h-x86_64-mingw32/bin/../lib/gcc/nios2-elf/7.3.1\libgcc.a(_fixunsdfsi.o)
 .bss           0x00000000080a2bd0        0x0 c:/intelfpga_pro/18.1/nios2eds/bin/gnu/h-x86_64-mingw32/bin/../lib/gcc/nios2-elf/7.3.1\libgcc.a(_fixunsdfdi.o)
 .bss           0x00000000080a2bd0        0x0 c:/intelfpga_pro/18.1/nios2eds/bin/gnu/h-x86_64-mingw32/bin/../lib/gcc/nios2-elf/7.3.1\libgcc.a(_udivdi3.o)
 .bss           0x00000000080a2bd0        0x0 c:/intelfpga_pro/18.1/nios2eds/bin/gnu/h-x86_64-mingw32/bin/../lib/gcc/nios2-elf/7.3.1\libgcc.a(_umoddi3.o)
 .bss           0x00000000080a2bd0        0x0 c:/intelfpga_pro/18.1/nios2eds/bin/gnu/h-x86_64-mingw32/bin/../lib/gcc/nios2-elf/7.3.1\libgcc.a(lib2-divmod.o)
 .bss           0x00000000080a2bd0        0x0 c:/intelfpga_pro/18.1/nios2eds/bin/gnu/h-x86_64-mingw32/bin/../lib/gcc/nios2-elf/7.3.1\libgcc.a(adddf3.o)
 .bss           0x00000000080a2bd0        0x0 c:/intelfpga_pro/18.1/nios2eds/bin/gnu/h-x86_64-mingw32/bin/../lib/gcc/nios2-elf/7.3.1\libgcc.a(divdf3.o)
 .bss           0x00000000080a2bd0        0x0 c:/intelfpga_pro/18.1/nios2eds/bin/gnu/h-x86_64-mingw32/bin/../lib/gcc/nios2-elf/7.3.1\libgcc.a(gedf2.o)
 .bss           0x00000000080a2bd0        0x0 c:/intelfpga_pro/18.1/nios2eds/bin/gnu/h-x86_64-mingw32/bin/../lib/gcc/nios2-elf/7.3.1\libgcc.a(muldf3.o)
 .bss           0x00000000080a2bd0        0x0 c:/intelfpga_pro/18.1/nios2eds/bin/gnu/h-x86_64-mingw32/bin/../lib/gcc/nios2-elf/7.3.1\libgcc.a(subdf3.o)
 .bss           0x00000000080a2bd0        0x0 c:/intelfpga_pro/18.1/nios2eds/bin/gnu/h-x86_64-mingw32/bin/../lib/gcc/nios2-elf/7.3.1\libgcc.a(fixdfsi.o)
 .bss           0x00000000080a2bd0        0x0 c:/intelfpga_pro/18.1/nios2eds/bin/gnu/h-x86_64-mingw32/bin/../lib/gcc/nios2-elf/7.3.1\libgcc.a(floatunsidf.o)
 .bss           0x00000000080a2bd0        0x0 c:/intelfpga_pro/18.1/nios2eds/bin/gnu/h-x86_64-mingw32/bin/../lib/gcc/nios2-elf/7.3.1\libgcc.a(extendsfdf2.o)
 .bss           0x00000000080a2bd0        0x0 c:/intelfpga_pro/18.1/nios2eds/bin/gnu/h-x86_64-mingw32/bin/../lib/gcc/nios2-elf/7.3.1\libgcc.a(_clz.o)
 .bss           0x00000000080a2bd0        0x0 c:/intelfpga_pro/18.1/nios2eds/bin/gnu/h-x86_64-mingw32/bin/../lib/gcc/nios2-elf/7.3.1\libgcc.a(_clzsi2.o)
 .bss           0x00000000080a2bd0        0x0 c:/intelfpga_pro/18.1/nios2eds/bin/gnu/h-x86_64-mingw32/bin/../lib/gcc/nios2-elf/7.3.1/../../../../../H-x86_64-mingw32/nios2-elf/lib\libc.a(lib_a-calloc.o)
 .bss           0x00000000080a2bd0        0x0 c:/intelfpga_pro/18.1/nios2eds/bin/gnu/h-x86_64-mingw32/bin/../lib/gcc/nios2-elf/7.3.1/../../../../../H-x86_64-mingw32/nios2-elf/lib\libc.a(lib_a-callocr.o)
 .bss           0x00000000080a2bd0        0x0 c:/intelfpga_pro/18.1/nios2eds/bin/gnu/h-x86_64-mingw32/bin/../lib/gcc/nios2-elf/7.3.1/../../../../../H-x86_64-mingw32/nios2-elf/lib\libc.a(lib_a-getc.o)
 .bss           0x00000000080a2bd0        0x0 c:/intelfpga_pro/18.1/nios2eds/bin/gnu/h-x86_64-mingw32/bin/../lib/gcc/nios2-elf/7.3.1/../../../../../H-x86_64-mingw32/nios2-elf/lib\libc.a(lib_a-impure.o)
 .bss           0x00000000080a2bd0        0x0 c:/intelfpga_pro/18.1/nios2eds/bin/gnu/h-x86_64-mingw32/bin/../lib/gcc/nios2-elf/7.3.1/../../../../../H-x86_64-mingw32/nios2-elf/lib\libc.a(lib_a-locale.o)
 .bss           0x00000000080a2bd0        0x0 c:/intelfpga_pro/18.1/nios2eds/bin/gnu/h-x86_64-mingw32/bin/../lib/gcc/nios2-elf/7.3.1/../../../../../H-x86_64-mingw32/nios2-elf/lib\libc.a(lib_a-malloc.o)
 .bss           0x00000000080a2bd0        0x0 c:/intelfpga_pro/18.1/nios2eds/bin/gnu/h-x86_64-mingw32/bin/../lib/gcc/nios2-elf/7.3.1/../../../../../H-x86_64-mingw32/nios2-elf/lib\libc.a(lib_a-mallocr.o)
 .bss.__malloc_current_mallinfo
                0x00000000080a2bd0       0x28 c:/intelfpga_pro/18.1/nios2eds/bin/gnu/h-x86_64-mingw32/bin/../lib/gcc/nios2-elf/7.3.1/../../../../../H-x86_64-mingw32/nios2-elf/lib\libc.a(lib_a-mallocr.o)
                0x00000000080a2bd0                __malloc_current_mallinfo
 .bss           0x00000000080a2bf8        0x0 c:/intelfpga_pro/18.1/nios2eds/bin/gnu/h-x86_64-mingw32/bin/../lib/gcc/nios2-elf/7.3.1/../../../../../H-x86_64-mingw32/nios2-elf/lib\libc.a(lib_a-mbtowc_r.o)
 .bss           0x00000000080a2bf8        0x0 c:/intelfpga_pro/18.1/nios2eds/bin/gnu/h-x86_64-mingw32/bin/../lib/gcc/nios2-elf/7.3.1/../../../../../H-x86_64-mingw32/nios2-elf/lib\libc.a(lib_a-memcpy.o)
 .bss           0x00000000080a2bf8        0x0 c:/intelfpga_pro/18.1/nios2eds/bin/gnu/h-x86_64-mingw32/bin/../lib/gcc/nios2-elf/7.3.1/../../../../../H-x86_64-mingw32/nios2-elf/lib\libc.a(lib_a-memset.o)
 .bss           0x00000000080a2bf8        0x0 c:/intelfpga_pro/18.1/nios2eds/bin/gnu/h-x86_64-mingw32/bin/../lib/gcc/nios2-elf/7.3.1/../../../../../H-x86_64-mingw32/nios2-elf/lib\libc.a(lib_a-mktime.o)
 .bss           0x00000000080a2bf8        0x0 c:/intelfpga_pro/18.1/nios2eds/bin/gnu/h-x86_64-mingw32/bin/../lib/gcc/nios2-elf/7.3.1/../../../../../H-x86_64-mingw32/nios2-elf/lib\libc.a(lib_a-printf.o)
 .bss           0x00000000080a2bf8        0x0 c:/intelfpga_pro/18.1/nios2eds/bin/gnu/h-x86_64-mingw32/bin/../lib/gcc/nios2-elf/7.3.1/../../../../../H-x86_64-mingw32/nios2-elf/lib\libc.a(lib_a-putchar.o)
 .bss           0x00000000080a2bf8        0x0 c:/intelfpga_pro/18.1/nios2eds/bin/gnu/h-x86_64-mingw32/bin/../lib/gcc/nios2-elf/7.3.1/../../../../../H-x86_64-mingw32/nios2-elf/lib\libc.a(lib_a-puts.o)
 .bss           0x00000000080a2bf8        0x0 c:/intelfpga_pro/18.1/nios2eds/bin/gnu/h-x86_64-mingw32/bin/../lib/gcc/nios2-elf/7.3.1/../../../../../H-x86_64-mingw32/nios2-elf/lib\libc.a(lib_a-rget.o)
 .bss           0x00000000080a2bf8        0x0 c:/intelfpga_pro/18.1/nios2eds/bin/gnu/h-x86_64-mingw32/bin/../lib/gcc/nios2-elf/7.3.1/../../../../../H-x86_64-mingw32/nios2-elf/lib\libc.a(lib_a-sbrkr.o)
 .bss           0x00000000080a2bf8        0x0 c:/intelfpga_pro/18.1/nios2eds/bin/gnu/h-x86_64-mingw32/bin/../lib/gcc/nios2-elf/7.3.1/../../../../../H-x86_64-mingw32/nios2-elf/lib\libc.a(lib_a-sprintf.o)
 .bss           0x00000000080a2bf8        0x0 c:/intelfpga_pro/18.1/nios2eds/bin/gnu/h-x86_64-mingw32/bin/../lib/gcc/nios2-elf/7.3.1/../../../../../H-x86_64-mingw32/nios2-elf/lib\libc.a(lib_a-strcmp.o)
 .bss           0x00000000080a2bf8        0x0 c:/intelfpga_pro/18.1/nios2eds/bin/gnu/h-x86_64-mingw32/bin/../lib/gcc/nios2-elf/7.3.1/../../../../../H-x86_64-mingw32/nios2-elf/lib\libc.a(lib_a-strcpy.o)
 .bss           0x00000000080a2bf8        0x0 c:/intelfpga_pro/18.1/nios2eds/bin/gnu/h-x86_64-mingw32/bin/../lib/gcc/nios2-elf/7.3.1/../../../../../H-x86_64-mingw32/nios2-elf/lib\libc.a(lib_a-strlen.o)
 .bss           0x00000000080a2bf8        0x0 c:/intelfpga_pro/18.1/nios2eds/bin/gnu/h-x86_64-mingw32/bin/../lib/gcc/nios2-elf/7.3.1/../../../../../H-x86_64-mingw32/nios2-elf/lib\libc.a(lib_a-svfprintf.o)
 .bss           0x00000000080a2bf8        0x0 c:/intelfpga_pro/18.1/nios2eds/bin/gnu/h-x86_64-mingw32/bin/../lib/gcc/nios2-elf/7.3.1/../../../../../H-x86_64-mingw32/nios2-elf/lib\libc.a(lib_a-tzcalc_limits.o)
 .bss           0x00000000080a2bf8        0x0 c:/intelfpga_pro/18.1/nios2eds/bin/gnu/h-x86_64-mingw32/bin/../lib/gcc/nios2-elf/7.3.1/../../../../../H-x86_64-mingw32/nios2-elf/lib\libc.a(lib_a-tzlock.o)
 .bss           0x00000000080a2bf8        0x0 c:/intelfpga_pro/18.1/nios2eds/bin/gnu/h-x86_64-mingw32/bin/../lib/gcc/nios2-elf/7.3.1/../../../../../H-x86_64-mingw32/nios2-elf/lib\libc.a(lib_a-tzset.o)
 .bss           0x00000000080a2bf8        0x0 c:/intelfpga_pro/18.1/nios2eds/bin/gnu/h-x86_64-mingw32/bin/../lib/gcc/nios2-elf/7.3.1/../../../../../H-x86_64-mingw32/nios2-elf/lib\libc.a(lib_a-tzset_r.o)
 .bss.__tzname_dst
                0x00000000080a2bf8        0xb c:/intelfpga_pro/18.1/nios2eds/bin/gnu/h-x86_64-mingw32/bin/../lib/gcc/nios2-elf/7.3.1/../../../../../H-x86_64-mingw32/nios2-elf/lib\libc.a(lib_a-tzset_r.o)
 .bss.__tzname_std
                0x00000000080a2c03        0xb c:/intelfpga_pro/18.1/nios2eds/bin/gnu/h-x86_64-mingw32/bin/../lib/gcc/nios2-elf/7.3.1/../../../../../H-x86_64-mingw32/nios2-elf/lib\libc.a(lib_a-tzset_r.o)
 .bss           0x00000000080a2c0e        0x0 c:/intelfpga_pro/18.1/nios2eds/bin/gnu/h-x86_64-mingw32/bin/../lib/gcc/nios2-elf/7.3.1/../../../../../H-x86_64-mingw32/nios2-elf/lib\libc.a(lib_a-tzvars.o)
 .bss           0x00000000080a2c0e        0x0 c:/intelfpga_pro/18.1/nios2eds/bin/gnu/h-x86_64-mingw32/bin/../lib/gcc/nios2-elf/7.3.1/../../../../../H-x86_64-mingw32/nios2-elf/lib\libc.a(lib_a-vfprintf.o)
 .bss           0x00000000080a2c0e        0x0 c:/intelfpga_pro/18.1/nios2eds/bin/gnu/h-x86_64-mingw32/bin/../lib/gcc/nios2-elf/7.3.1/../../../../../H-x86_64-mingw32/nios2-elf/lib\libc.a(lib_a-wctomb_r.o)
 .bss           0x00000000080a2c0e        0x0 c:/intelfpga_pro/18.1/nios2eds/bin/gnu/h-x86_64-mingw32/bin/../lib/gcc/nios2-elf/7.3.1/../../../../../H-x86_64-mingw32/nios2-elf/lib\libc.a(lib_a-wsetup.o)
 .bss           0x00000000080a2c0e        0x0 c:/intelfpga_pro/18.1/nios2eds/bin/gnu/h-x86_64-mingw32/bin/../lib/gcc/nios2-elf/7.3.1/../../../../../H-x86_64-mingw32/nios2-elf/lib\libc.a(lib_a-ctype_.o)
 .bss           0x00000000080a2c0e        0x0 c:/intelfpga_pro/18.1/nios2eds/bin/gnu/h-x86_64-mingw32/bin/../lib/gcc/nios2-elf/7.3.1/../../../../../H-x86_64-mingw32/nios2-elf/lib\libc.a(lib_a-div.o)
 .bss           0x00000000080a2c0e        0x0 c:/intelfpga_pro/18.1/nios2eds/bin/gnu/h-x86_64-mingw32/bin/../lib/gcc/nios2-elf/7.3.1/../../../../../H-x86_64-mingw32/nios2-elf/lib\libc.a(lib_a-dtoa.o)
 .bss           0x00000000080a2c0e        0x0 c:/intelfpga_pro/18.1/nios2eds/bin/gnu/h-x86_64-mingw32/bin/../lib/gcc/nios2-elf/7.3.1/../../../../../H-x86_64-mingw32/nios2-elf/lib\libc.a(lib_a-fflush.o)
 .bss           0x00000000080a2c0e        0x0 c:/intelfpga_pro/18.1/nios2eds/bin/gnu/h-x86_64-mingw32/bin/../lib/gcc/nios2-elf/7.3.1/../../../../../H-x86_64-mingw32/nios2-elf/lib\libc.a(lib_a-findfp.o)
 .bss           0x00000000080a2c0e        0x0 c:/intelfpga_pro/18.1/nios2eds/bin/gnu/h-x86_64-mingw32/bin/../lib/gcc/nios2-elf/7.3.1/../../../../../H-x86_64-mingw32/nios2-elf/lib\libc.a(lib_a-freer.o)
 .bss           0x00000000080a2c0e        0x0 c:/intelfpga_pro/18.1/nios2eds/bin/gnu/h-x86_64-mingw32/bin/../lib/gcc/nios2-elf/7.3.1/../../../../../H-x86_64-mingw32/nios2-elf/lib\libc.a(lib_a-fvwrite.o)
 .bss           0x00000000080a2c0e        0x0 c:/intelfpga_pro/18.1/nios2eds/bin/gnu/h-x86_64-mingw32/bin/../lib/gcc/nios2-elf/7.3.1/../../../../../H-x86_64-mingw32/nios2-elf/lib\libc.a(lib_a-fwalk.o)
 .bss           0x00000000080a2c0e        0x0 c:/intelfpga_pro/18.1/nios2eds/bin/gnu/h-x86_64-mingw32/bin/../lib/gcc/nios2-elf/7.3.1/../../../../../H-x86_64-mingw32/nios2-elf/lib\libc.a(lib_a-getenv_r.o)
 .bss           0x00000000080a2c0e        0x0 c:/intelfpga_pro/18.1/nios2eds/bin/gnu/h-x86_64-mingw32/bin/../lib/gcc/nios2-elf/7.3.1/../../../../../H-x86_64-mingw32/nios2-elf/lib\libc.a(lib_a-gettzinfo.o)
 .bss           0x00000000080a2c0e        0x0 c:/intelfpga_pro/18.1/nios2eds/bin/gnu/h-x86_64-mingw32/bin/../lib/gcc/nios2-elf/7.3.1/../../../../../H-x86_64-mingw32/nios2-elf/lib\libc.a(lib_a-int_errno.o)
 .bss           0x00000000080a2c0e        0x0 c:/intelfpga_pro/18.1/nios2eds/bin/gnu/h-x86_64-mingw32/bin/../lib/gcc/nios2-elf/7.3.1/../../../../../H-x86_64-mingw32/nios2-elf/lib\libc.a(lib_a-localeconv.o)
 .bss           0x00000000080a2c0e        0x0 c:/intelfpga_pro/18.1/nios2eds/bin/gnu/h-x86_64-mingw32/bin/../lib/gcc/nios2-elf/7.3.1/../../../../../H-x86_64-mingw32/nios2-elf/lib\libc.a(lib_a-makebuf.o)
 .bss           0x00000000080a2c0e        0x0 c:/intelfpga_pro/18.1/nios2eds/bin/gnu/h-x86_64-mingw32/bin/../lib/gcc/nios2-elf/7.3.1/../../../../../H-x86_64-mingw32/nios2-elf/lib\libc.a(lib_a-memchr.o)
 .bss           0x00000000080a2c0e        0x0 c:/intelfpga_pro/18.1/nios2eds/bin/gnu/h-x86_64-mingw32/bin/../lib/gcc/nios2-elf/7.3.1/../../../../../H-x86_64-mingw32/nios2-elf/lib\libc.a(lib_a-memmove.o)
 .bss           0x00000000080a2c0e        0x0 c:/intelfpga_pro/18.1/nios2eds/bin/gnu/h-x86_64-mingw32/bin/../lib/gcc/nios2-elf/7.3.1/../../../../../H-x86_64-mingw32/nios2-elf/lib\libc.a(lib_a-month_lengths.o)
 .bss           0x00000000080a2c0e        0x0 c:/intelfpga_pro/18.1/nios2eds/bin/gnu/h-x86_64-mingw32/bin/../lib/gcc/nios2-elf/7.3.1/../../../../../H-x86_64-mingw32/nios2-elf/lib\libc.a(lib_a-mprec.o)
 .bss           0x00000000080a2c0e        0x0 c:/intelfpga_pro/18.1/nios2eds/bin/gnu/h-x86_64-mingw32/bin/../lib/gcc/nios2-elf/7.3.1/../../../../../H-x86_64-mingw32/nios2-elf/lib\libc.a(lib_a-putc.o)
 .bss           0x00000000080a2c0e        0x0 c:/intelfpga_pro/18.1/nios2eds/bin/gnu/h-x86_64-mingw32/bin/../lib/gcc/nios2-elf/7.3.1/../../../../../H-x86_64-mingw32/nios2-elf/lib\libc.a(lib_a-reallocr.o)
 .bss           0x00000000080a2c0e        0x0 c:/intelfpga_pro/18.1/nios2eds/bin/gnu/h-x86_64-mingw32/bin/../lib/gcc/nios2-elf/7.3.1/../../../../../H-x86_64-mingw32/nios2-elf/lib\libc.a(lib_a-refill.o)
 .bss           0x00000000080a2c0e        0x0 c:/intelfpga_pro/18.1/nios2eds/bin/gnu/h-x86_64-mingw32/bin/../lib/gcc/nios2-elf/7.3.1/../../../../../H-x86_64-mingw32/nios2-elf/lib\libc.a(lib_a-siscanf.o)
 .bss           0x00000000080a2c0e        0x0 c:/intelfpga_pro/18.1/nios2eds/bin/gnu/h-x86_64-mingw32/bin/../lib/gcc/nios2-elf/7.3.1/../../../../../H-x86_64-mingw32/nios2-elf/lib\libc.a(lib_a-stdio.o)
 .bss           0x00000000080a2c0e        0x0 c:/intelfpga_pro/18.1/nios2eds/bin/gnu/h-x86_64-mingw32/bin/../lib/gcc/nios2-elf/7.3.1/../../../../../H-x86_64-mingw32/nios2-elf/lib\libc.a(lib_a-strncmp.o)
 .bss           0x00000000080a2c0e        0x0 c:/intelfpga_pro/18.1/nios2eds/bin/gnu/h-x86_64-mingw32/bin/../lib/gcc/nios2-elf/7.3.1/../../../../../H-x86_64-mingw32/nios2-elf/lib\libc.a(lib_a-strtoul.o)
 .bss           0x00000000080a2c0e        0x0 c:/intelfpga_pro/18.1/nios2eds/bin/gnu/h-x86_64-mingw32/bin/../lib/gcc/nios2-elf/7.3.1/../../../../../H-x86_64-mingw32/nios2-elf/lib\libc.a(lib_a-svfiprintf.o)
 .bss           0x00000000080a2c0e        0x0 c:/intelfpga_pro/18.1/nios2eds/bin/gnu/h-x86_64-mingw32/bin/../lib/gcc/nios2-elf/7.3.1/../../../../../H-x86_64-mingw32/nios2-elf/lib\libc.a(lib_a-svfiscanf.o)
 .bss           0x00000000080a2c0e        0x0 c:/intelfpga_pro/18.1/nios2eds/bin/gnu/h-x86_64-mingw32/bin/../lib/gcc/nios2-elf/7.3.1/../../../../../H-x86_64-mingw32/nios2-elf/lib\libc.a(lib_a-ungetc.o)
 .bss           0x00000000080a2c0e        0x0 c:/intelfpga_pro/18.1/nios2eds/bin/gnu/h-x86_64-mingw32/bin/../lib/gcc/nios2-elf/7.3.1/../../../../../H-x86_64-mingw32/nios2-elf/lib\libc.a(lib_a-vfiprintf.o)
 .bss           0x00000000080a2c0e        0x0 c:/intelfpga_pro/18.1/nios2eds/bin/gnu/h-x86_64-mingw32/bin/../lib/gcc/nios2-elf/7.3.1/../../../../../H-x86_64-mingw32/nios2-elf/lib\libc.a(lib_a-wbuf.o)
 .bss           0x00000000080a2c0e        0x0 c:/intelfpga_pro/18.1/nios2eds/bin/gnu/h-x86_64-mingw32/bin/../lib/gcc/nios2-elf/7.3.1/../../../../../H-x86_64-mingw32/nios2-elf/lib\libc.a(lib_a-writer.o)
 .bss           0x00000000080a2c0e        0x0 c:/intelfpga_pro/18.1/nios2eds/bin/gnu/h-x86_64-mingw32/bin/../lib/gcc/nios2-elf/7.3.1/../../../../../H-x86_64-mingw32/nios2-elf/lib\libc.a(closer.o)
 .bss           0x00000000080a2c0e        0x0 c:/intelfpga_pro/18.1/nios2eds/bin/gnu/h-x86_64-mingw32/bin/../lib/gcc/nios2-elf/7.3.1/../../../../../H-x86_64-mingw32/nios2-elf/lib\libc.a(lib_a-environ.o)
 .bss           0x00000000080a2c0e        0x0 c:/intelfpga_pro/18.1/nios2eds/bin/gnu/h-x86_64-mingw32/bin/../lib/gcc/nios2-elf/7.3.1/../../../../../H-x86_64-mingw32/nios2-elf/lib\libc.a(lib_a-fclose.o)
 .bss           0x00000000080a2c0e        0x0 c:/intelfpga_pro/18.1/nios2eds/bin/gnu/h-x86_64-mingw32/bin/../lib/gcc/nios2-elf/7.3.1/../../../../../H-x86_64-mingw32/nios2-elf/lib\libc.a(lib_a-fputwc.o)
 .bss           0x00000000080a2c0e        0x0 c:/intelfpga_pro/18.1/nios2eds/bin/gnu/h-x86_64-mingw32/bin/../lib/gcc/nios2-elf/7.3.1/../../../../../H-x86_64-mingw32/nios2-elf/lib\libc.a(lib_a-fstatr.o)
 .bss           0x00000000080a2c0e        0x0 c:/intelfpga_pro/18.1/nios2eds/bin/gnu/h-x86_64-mingw32/bin/../lib/gcc/nios2-elf/7.3.1/../../../../../H-x86_64-mingw32/nios2-elf/lib\libc.a(lib_a-isattyr.o)
 .bss           0x00000000080a2c0e        0x0 c:/intelfpga_pro/18.1/nios2eds/bin/gnu/h-x86_64-mingw32/bin/../lib/gcc/nios2-elf/7.3.1/../../../../../H-x86_64-mingw32/nios2-elf/lib\libc.a(lib_a-iswspace.o)
 .bss           0x00000000080a2c0e        0x0 c:/intelfpga_pro/18.1/nios2eds/bin/gnu/h-x86_64-mingw32/bin/../lib/gcc/nios2-elf/7.3.1/../../../../../H-x86_64-mingw32/nios2-elf/lib\libc.a(lib_a-lseekr.o)
 .bss           0x00000000080a2c0e        0x0 c:/intelfpga_pro/18.1/nios2eds/bin/gnu/h-x86_64-mingw32/bin/../lib/gcc/nios2-elf/7.3.1/../../../../../H-x86_64-mingw32/nios2-elf/lib\libc.a(lib_a-mbrtowc.o)
 .bss           0x00000000080a2c0e        0x0 c:/intelfpga_pro/18.1/nios2eds/bin/gnu/h-x86_64-mingw32/bin/../lib/gcc/nios2-elf/7.3.1/../../../../../H-x86_64-mingw32/nios2-elf/lib\libc.a(lib_a-readr.o)
 .bss           0x00000000080a2c0e        0x0 c:/intelfpga_pro/18.1/nios2eds/bin/gnu/h-x86_64-mingw32/bin/../lib/gcc/nios2-elf/7.3.1/../../../../../H-x86_64-mingw32/nios2-elf/lib\libc.a(lib_a-sccl.o)
 .bss           0x00000000080a2c0e        0x0 c:/intelfpga_pro/18.1/nios2eds/bin/gnu/h-x86_64-mingw32/bin/../lib/gcc/nios2-elf/7.3.1/../../../../../H-x86_64-mingw32/nios2-elf/lib\libc.a(lib_a-strtol.o)
 .bss           0x00000000080a2c0e        0x0 c:/intelfpga_pro/18.1/nios2eds/bin/gnu/h-x86_64-mingw32/bin/../lib/gcc/nios2-elf/7.3.1/../../../../../H-x86_64-mingw32/nios2-elf/lib\libc.a(lib_a-strtoll.o)
 .bss           0x00000000080a2c0e        0x0 c:/intelfpga_pro/18.1/nios2eds/bin/gnu/h-x86_64-mingw32/bin/../lib/gcc/nios2-elf/7.3.1/../../../../../H-x86_64-mingw32/nios2-elf/lib\libc.a(lib_a-strtoull.o)
 .bss           0x00000000080a2c0e        0x0 c:/intelfpga_pro/18.1/nios2eds/bin/gnu/h-x86_64-mingw32/bin/../lib/gcc/nios2-elf/7.3.1/../../../../../H-x86_64-mingw32/nios2-elf/lib\libc.a(lib_a-wcrtomb.o)
 .bss           0x00000000080a2c0e        0x0 c:/intelfpga_pro/18.1/nios2eds/bin/gnu/h-x86_64-mingw32/bin/../lib/gcc/nios2-elf/7.3.1\libgcc.a(eqdf2.o)
 .bss           0x00000000080a2c0e        0x0 c:/intelfpga_pro/18.1/nios2eds/bin/gnu/h-x86_64-mingw32/bin/../lib/gcc/nios2-elf/7.3.1\libgcc.a(ledf2.o)
 .bss           0x00000000080a2c0e        0x0 c:/intelfpga_pro/18.1/nios2eds/bin/gnu/h-x86_64-mingw32/bin/../lib/gcc/nios2-elf/7.3.1\libgcc.a(unorddf2.o)
 .bss           0x00000000080a2c0e        0x0 c:/intelfpga_pro/18.1/nios2eds/bin/gnu/h-x86_64-mingw32/bin/../lib/gcc/nios2-elf/7.3.1\libgcc.a(floatsidf.o)
 .bss           0x00000000080a2c0e        0x0 C:/Git/ArrowESC/Cyclone10GX_Rev2_Demo/software/C10GX_SoM_Rev2_Demo_bsp/\libhal_bsp.a(alt_close.o)
 .bss           0x00000000080a2c0e        0x0 C:/Git/ArrowESC/Cyclone10GX_Rev2_Demo/software/C10GX_SoM_Rev2_Demo_bsp/\libhal_bsp.a(alt_dcache_flush.o)
 .bss           0x00000000080a2c0e        0x0 C:/Git/ArrowESC/Cyclone10GX_Rev2_Demo/software/C10GX_SoM_Rev2_Demo_bsp/\libhal_bsp.a(alt_dev.o)
 .bss           0x00000000080a2c0e        0x0 C:/Git/ArrowESC/Cyclone10GX_Rev2_Demo/software/C10GX_SoM_Rev2_Demo_bsp/\libhal_bsp.a(alt_dev_llist_insert.o)
 .bss           0x00000000080a2c0e        0x0 C:/Git/ArrowESC/Cyclone10GX_Rev2_Demo/software/C10GX_SoM_Rev2_Demo_bsp/\libhal_bsp.a(alt_env_lock.o)
 .bss           0x00000000080a2c0e        0x0 C:/Git/ArrowESC/Cyclone10GX_Rev2_Demo/software/C10GX_SoM_Rev2_Demo_bsp/\libhal_bsp.a(alt_errno.o)
 .bss           0x00000000080a2c0e        0x0 C:/Git/ArrowESC/Cyclone10GX_Rev2_Demo/software/C10GX_SoM_Rev2_Demo_bsp/\libhal_bsp.a(alt_fstat.o)
 .bss           0x00000000080a2c0e        0x0 C:/Git/ArrowESC/Cyclone10GX_Rev2_Demo/software/C10GX_SoM_Rev2_Demo_bsp/\libhal_bsp.a(alt_icache_flush_all.o)
 .bss           0x00000000080a2c0e        0x0 C:/Git/ArrowESC/Cyclone10GX_Rev2_Demo/software/C10GX_SoM_Rev2_Demo_bsp/\libhal_bsp.a(alt_iic.o)
 .bss           0x00000000080a2c0e        0x0 C:/Git/ArrowESC/Cyclone10GX_Rev2_Demo/software/C10GX_SoM_Rev2_Demo_bsp/\libhal_bsp.a(alt_iic_isr_register.o)
 .bss           0x00000000080a2c0e        0x0 C:/Git/ArrowESC/Cyclone10GX_Rev2_Demo/software/C10GX_SoM_Rev2_Demo_bsp/\libhal_bsp.a(alt_instruction_exception_register.o)
 .bss           0x00000000080a2c0e        0x0 C:/Git/ArrowESC/Cyclone10GX_Rev2_Demo/software/C10GX_SoM_Rev2_Demo_bsp/\libhal_bsp.a(alt_irq_entry.o)
 .bss           0x00000000080a2c0e        0x0 C:/Git/ArrowESC/Cyclone10GX_Rev2_Demo/software/C10GX_SoM_Rev2_Demo_bsp/\libhal_bsp.a(alt_irq_handler.o)
 .bss           0x00000000080a2c0e        0x0 C:/Git/ArrowESC/Cyclone10GX_Rev2_Demo/software/C10GX_SoM_Rev2_Demo_bsp/\libhal_bsp.a(alt_irq_vars.o)
 .bss           0x00000000080a2c0e        0x0 C:/Git/ArrowESC/Cyclone10GX_Rev2_Demo/software/C10GX_SoM_Rev2_Demo_bsp/\libhal_bsp.a(alt_isatty.o)
 .bss           0x00000000080a2c0e        0x0 C:/Git/ArrowESC/Cyclone10GX_Rev2_Demo/software/C10GX_SoM_Rev2_Demo_bsp/\libhal_bsp.a(alt_load.o)
 .bss           0x00000000080a2c0e        0x0 C:/Git/ArrowESC/Cyclone10GX_Rev2_Demo/software/C10GX_SoM_Rev2_Demo_bsp/\libhal_bsp.a(alt_lseek.o)
 .bss           0x00000000080a2c0e        0x0 C:/Git/ArrowESC/Cyclone10GX_Rev2_Demo/software/C10GX_SoM_Rev2_Demo_bsp/\libhal_bsp.a(alt_main.o)
 .bss           0x00000000080a2c0e        0x0 C:/Git/ArrowESC/Cyclone10GX_Rev2_Demo/software/C10GX_SoM_Rev2_Demo_bsp/\libhal_bsp.a(alt_malloc_lock.o)
 .bss           0x00000000080a2c0e        0x0 C:/Git/ArrowESC/Cyclone10GX_Rev2_Demo/software/C10GX_SoM_Rev2_Demo_bsp/\libhal_bsp.a(alt_printf.o)
 .bss           0x00000000080a2c0e        0x0 C:/Git/ArrowESC/Cyclone10GX_Rev2_Demo/software/C10GX_SoM_Rev2_Demo_bsp/\libhal_bsp.a(alt_putchar.o)
 .bss           0x00000000080a2c0e        0x0 C:/Git/ArrowESC/Cyclone10GX_Rev2_Demo/software/C10GX_SoM_Rev2_Demo_bsp/\libhal_bsp.a(alt_read.o)
 .bss           0x00000000080a2c0e        0x0 C:/Git/ArrowESC/Cyclone10GX_Rev2_Demo/software/C10GX_SoM_Rev2_Demo_bsp/\libhal_bsp.a(alt_release_fd.o)
 .bss           0x00000000080a2c0e        0x0 C:/Git/ArrowESC/Cyclone10GX_Rev2_Demo/software/C10GX_SoM_Rev2_Demo_bsp/\libhal_bsp.a(alt_sbrk.o)
 .bss           0x00000000080a2c0e        0x0 C:/Git/ArrowESC/Cyclone10GX_Rev2_Demo/software/C10GX_SoM_Rev2_Demo_bsp/\libhal_bsp.a(alt_usleep.o)
 .bss           0x00000000080a2c0e        0x0 C:/Git/ArrowESC/Cyclone10GX_Rev2_Demo/software/C10GX_SoM_Rev2_Demo_bsp/\libhal_bsp.a(alt_write.o)
 .bss           0x00000000080a2c0e        0x0 C:/Git/ArrowESC/Cyclone10GX_Rev2_Demo/software/C10GX_SoM_Rev2_Demo_bsp/\libhal_bsp.a(alt_sys_init.o)
 .bss           0x00000000080a2c0e        0x0 C:/Git/ArrowESC/Cyclone10GX_Rev2_Demo/software/C10GX_SoM_Rev2_Demo_bsp/\libhal_bsp.a(altera_avalon_i2c.o)
 .bss           0x00000000080a2c0e        0x0 C:/Git/ArrowESC/Cyclone10GX_Rev2_Demo/software/C10GX_SoM_Rev2_Demo_bsp/\libhal_bsp.a(altera_avalon_jtag_uart_fd.o)
 .bss           0x00000000080a2c0e        0x0 C:/Git/ArrowESC/Cyclone10GX_Rev2_Demo/software/C10GX_SoM_Rev2_Demo_bsp/\libhal_bsp.a(altera_avalon_jtag_uart_init.o)
 .bss           0x00000000080a2c0e        0x0 C:/Git/ArrowESC/Cyclone10GX_Rev2_Demo/software/C10GX_SoM_Rev2_Demo_bsp/\libhal_bsp.a(altera_avalon_jtag_uart_ioctl.o)
 .bss           0x00000000080a2c0e        0x0 C:/Git/ArrowESC/Cyclone10GX_Rev2_Demo/software/C10GX_SoM_Rev2_Demo_bsp/\libhal_bsp.a(altera_avalon_jtag_uart_read.o)
 .bss           0x00000000080a2c0e        0x0 C:/Git/ArrowESC/Cyclone10GX_Rev2_Demo/software/C10GX_SoM_Rev2_Demo_bsp/\libhal_bsp.a(altera_avalon_jtag_uart_write.o)
 .bss           0x00000000080a2c0e        0x0 C:/Git/ArrowESC/Cyclone10GX_Rev2_Demo/software/C10GX_SoM_Rev2_Demo_bsp/\libhal_bsp.a(altera_avalon_timer_sc.o)
 .bss           0x00000000080a2c0e        0x0 C:/Git/ArrowESC/Cyclone10GX_Rev2_Demo/software/C10GX_SoM_Rev2_Demo_bsp/\libhal_bsp.a(altera_avalon_timer_ts.o)
 .bss           0x00000000080a2c0e        0x0 C:/Git/ArrowESC/Cyclone10GX_Rev2_Demo/software/C10GX_SoM_Rev2_Demo_bsp/\libhal_bsp.a(altera_avalon_timer_vars.o)
 .bss           0x00000000080a2c0e        0x0 C:/Git/ArrowESC/Cyclone10GX_Rev2_Demo/software/C10GX_SoM_Rev2_Demo_bsp/\libhal_bsp.a(altera_avalon_tse.o)
 *fill*         0x00000000080a2c0e        0x2 
 .bss           0x00000000080a2c10      0x260 C:/Git/ArrowESC/Cyclone10GX_Rev2_Demo/software/C10GX_SoM_Rev2_Demo_bsp/\libhal_bsp.a(altera_avalon_tse_system_info.o)
                0x00000000080a2c10                tse_mac_device
 .bss           0x00000000080a2e70        0x0 C:/Git/ArrowESC/Cyclone10GX_Rev2_Demo/software/C10GX_SoM_Rev2_Demo_bsp/\libhal_bsp.a(altera_generic_quad_spi_controller2.o)
 .bss           0x00000000080a2e70        0x0 C:/Git/ArrowESC/Cyclone10GX_Rev2_Demo/software/C10GX_SoM_Rev2_Demo_bsp/\libhal_bsp.a(altera_msgdma.o)
 .bss           0x00000000080a2e70        0x0 C:/Git/ArrowESC/Cyclone10GX_Rev2_Demo/software/C10GX_SoM_Rev2_Demo_bsp/\libhal_bsp.a(alt_alarm_start.o)
 .bss           0x00000000080a2e70        0x0 C:/Git/ArrowESC/Cyclone10GX_Rev2_Demo/software/C10GX_SoM_Rev2_Demo_bsp/\libhal_bsp.a(alt_busy_sleep.o)
 .bss           0x00000000080a2e70        0x0 C:/Git/ArrowESC/Cyclone10GX_Rev2_Demo/software/C10GX_SoM_Rev2_Demo_bsp/\libhal_bsp.a(alt_dcache_flush_all.o)
 .bss           0x00000000080a2e70        0x0 C:/Git/ArrowESC/Cyclone10GX_Rev2_Demo/software/C10GX_SoM_Rev2_Demo_bsp/\libhal_bsp.a(alt_do_ctors.o)
 .bss           0x00000000080a2e70        0x0 C:/Git/ArrowESC/Cyclone10GX_Rev2_Demo/software/C10GX_SoM_Rev2_Demo_bsp/\libhal_bsp.a(alt_do_dtors.o)
 .bss           0x00000000080a2e70        0x0 C:/Git/ArrowESC/Cyclone10GX_Rev2_Demo/software/C10GX_SoM_Rev2_Demo_bsp/\libhal_bsp.a(alt_exception_entry.o)
 .bss           0x00000000080a2e70        0x0 C:/Git/ArrowESC/Cyclone10GX_Rev2_Demo/software/C10GX_SoM_Rev2_Demo_bsp/\libhal_bsp.a(alt_find_dev.o)
 .bss           0x00000000080a2e70        0x0 C:/Git/ArrowESC/Cyclone10GX_Rev2_Demo/software/C10GX_SoM_Rev2_Demo_bsp/\libhal_bsp.a(alt_flash_dev.o)
 .bss           0x00000000080a2e70        0x0 C:/Git/ArrowESC/Cyclone10GX_Rev2_Demo/software/C10GX_SoM_Rev2_Demo_bsp/\libhal_bsp.a(alt_icache_flush.o)
 .bss           0x00000000080a2e70        0x0 C:/Git/ArrowESC/Cyclone10GX_Rev2_Demo/software/C10GX_SoM_Rev2_Demo_bsp/\libhal_bsp.a(alt_instruction_exception_entry.o)
 .bss           0x00000000080a2e70        0x0 C:/Git/ArrowESC/Cyclone10GX_Rev2_Demo/software/C10GX_SoM_Rev2_Demo_bsp/\libhal_bsp.a(alt_io_redirect.o)
 .bss           0x00000000080a2e70        0x0 C:/Git/ArrowESC/Cyclone10GX_Rev2_Demo/software/C10GX_SoM_Rev2_Demo_bsp/\libhal_bsp.a(alt_open.o)
 .bss           0x00000000080a2e70        0x0 C:/Git/ArrowESC/Cyclone10GX_Rev2_Demo/software/C10GX_SoM_Rev2_Demo_bsp/\libhal_bsp.a(alt_tick.o)
 .bss           0x00000000080a2e70        0x0 C:/Git/ArrowESC/Cyclone10GX_Rev2_Demo/software/C10GX_SoM_Rev2_Demo_bsp/\libhal_bsp.a(altera_nios2_gen2_irq.o)
 .bss           0x00000000080a2e70        0x0 C:/Git/ArrowESC/Cyclone10GX_Rev2_Demo/software/C10GX_SoM_Rev2_Demo_bsp/\libhal_bsp.a(alt_find_file.o)
 .bss           0x00000000080a2e70        0x0 C:/Git/ArrowESC/Cyclone10GX_Rev2_Demo/software/C10GX_SoM_Rev2_Demo_bsp/\libhal_bsp.a(alt_get_fd.o)
 .bss           0x00000000080a2e70        0x0 c:/intelfpga_pro/18.1/nios2eds/bin/gnu/h-x86_64-mingw32/bin/../lib/gcc/nios2-elf/7.3.1/../../../../../H-x86_64-mingw32/nios2-elf/lib\libc.a(lib_a-atexit.o)
 .bss           0x00000000080a2e70        0x0 c:/intelfpga_pro/18.1/nios2eds/bin/gnu/h-x86_64-mingw32/bin/../lib/gcc/nios2-elf/7.3.1/../../../../../H-x86_64-mingw32/nios2-elf/lib\libc.a(lib_a-exit.o)
 .bss           0x00000000080a2e70        0x0 c:/intelfpga_pro/18.1/nios2eds/bin/gnu/h-x86_64-mingw32/bin/../lib/gcc/nios2-elf/7.3.1/../../../../../H-x86_64-mingw32/nios2-elf/lib\libc.a(lib_a-__atexit.o)
 .bss           0x00000000080a2e70        0x0 c:/intelfpga_pro/18.1/nios2eds/bin/gnu/h-x86_64-mingw32/bin/../lib/gcc/nios2-elf/7.3.1/../../../../../H-x86_64-mingw32/nios2-elf/lib\libc.a(lib_a-__call_atexit.o)
 .bss           0x00000000080a2e70        0x0 C:/Git/ArrowESC/Cyclone10GX_Rev2_Demo/software/C10GX_SoM_Rev2_Demo_bsp/\libhal_bsp.a(alt_exit.o)
 *(COMMON)
 COMMON         0x00000000080a2e70      0x640 obj/default/ethernet.o
                0x00000000080a2e70                frame
 COMMON         0x00000000080a34b0      0x100 C:/Git/ArrowESC/Cyclone10GX_Rev2_Demo/software/C10GX_SoM_Rev2_Demo_bsp/\libhal_bsp.a(alt_irq_handler.o)
                0x00000000080a34b0                alt_irq
 COMMON         0x00000000080a35b0       0x40 C:/Git/ArrowESC/Cyclone10GX_Rev2_Demo/software/C10GX_SoM_Rev2_Demo_bsp/\libhal_bsp.a(altera_avalon_tse.o)
                0x00000000080a35b0                pmac_groups
                0x00000000080a35d0                pphy_profiles
                0x00000000080a35f0                . = ALIGN (0x4)
                0x00000000080a35f0                __bss_end = ABSOLUTE (.)

.ddr3_ctrl_amm_0
                0x00000000080a35f0        0x0
                [!provide]                        PROVIDE (_alt_partition_ddr3_ctrl_amm_0_start, ABSOLUTE (.))
 *(.ddr3_ctrl_amm_0 .ddr3_ctrl_amm_0. ddr3_ctrl_amm_0.*)
                0x00000000080a35f0                . = ALIGN (0x4)
                [!provide]                        PROVIDE (_alt_partition_ddr3_ctrl_amm_0_end, ABSOLUTE (.))
                0x00000000080a35f0                _end = ABSOLUTE (.)
                0x00000000080a35f0                end = ABSOLUTE (.)
                0x00000000080a35f0                __alt_stack_base = ABSOLUTE (.)
                [!provide]                        PROVIDE (_alt_partition_ddr3_ctrl_amm_0_load_addr, LOADADDR (.ddr3_ctrl_amm_0))

.qspi_controller2_0_avl_mem
                0x0000000080000000        0x0 load address 0x00000000080a35f0
                [!provide]                        PROVIDE (_alt_partition_qspi_controller2_0_avl_mem_start, ABSOLUTE (.))
 *(.qspi_controller2_0_avl_mem .qspi_controller2_0_avl_mem. qspi_controller2_0_avl_mem.*)
                0x0000000080000000                . = ALIGN (0x4)
                [!provide]                        PROVIDE (_alt_partition_qspi_controller2_0_avl_mem_end, ABSOLUTE (.))
                [!provide]                        PROVIDE (_alt_partition_qspi_controller2_0_avl_mem_load_addr, LOADADDR (.qspi_controller2_0_avl_mem))

.mcu_subsystem_ram_0
                0x0000000088020000        0x0 load address 0x00000000080a35f0
                [!provide]                        PROVIDE (_alt_partition_mcu_subsystem_ram_0_start, ABSOLUTE (.))
 *(.mcu_subsystem_ram_0 .mcu_subsystem_ram_0. mcu_subsystem_ram_0.*)
                0x0000000088020000                . = ALIGN (0x4)
                [!provide]                        PROVIDE (_alt_partition_mcu_subsystem_ram_0_end, ABSOLUTE (.))
                [!provide]                        PROVIDE (_alt_partition_mcu_subsystem_ram_0_load_addr, LOADADDR (.mcu_subsystem_ram_0))

.stab
 *(.stab)

.stabstr
 *(.stabstr)

.stab.excl
 *(.stab.excl)

.stab.exclstr
 *(.stab.exclstr)

.stab.index
 *(.stab.index)

.stab.indexstr
 *(.stab.indexstr)

.comment        0x0000000000000000       0x2c
 *(.comment)
 .comment       0x0000000000000000       0x2c obj/default/crc.o
                                         0x2d (size before relaxing)
 .comment       0x000000000000002c       0x2d obj/default/ethernet.o
 .comment       0x000000000000002c       0x2d obj/default/fmc/ad9144/ad9144.o
 .comment       0x000000000000002c       0x2d obj/default/fmc/ad9523/ad9523.o
 .comment       0x000000000000002c       0x2d obj/default/fmc/ad9680/ad9680.o
 .comment       0x000000000000002c       0x2d obj/default/fmc/common_drivers/adc_core/adc_core.o
 .comment       0x000000000000002c       0x2d obj/default/fmc/common_drivers/communication/generic/Communication.o
 .comment       0x000000000000002c       0x2d obj/default/fmc/common_drivers/dac_buffer/dac_buffer.o
 .comment       0x000000000000002c       0x2d obj/default/fmc/common_drivers/dac_core/dac_core.o
 .comment       0x000000000000002c       0x2d obj/default/fmc/common_drivers/dmac_core/dmac_core.o
 .comment       0x000000000000002c       0x2d obj/default/fmc/common_drivers/fru_tools/fru_tools.o
 .comment       0x000000000000002c       0x2d obj/default/fmc/common_drivers/jesd_core/jesd_core.o
 .comment       0x000000000000002c       0x2d obj/default/fmc/common_drivers/platform_drivers/platform_drivers.o
 .comment       0x000000000000002c       0x2d obj/default/fmc/common_drivers/xcvr_core/xcvr_core.o
 .comment       0x000000000000002c       0x2d obj/default/fmc/common_drivers/xcvr_core/xcvr_modules/altera_a10_atx_pll.o
 .comment       0x000000000000002c       0x2d obj/default/fmc/common_drivers/xcvr_core/xcvr_modules/altera_a10_fpll.o
 .comment       0x000000000000002c       0x2d obj/default/fmc/common_drivers/xcvr_core/xcvr_modules/altera_a10_xcvr_channel.o
 .comment       0x000000000000002c       0x2d obj/default/fmc/common_drivers/xcvr_core/xcvr_modules/altera_pll_common.o
 .comment       0x000000000000002c       0x2d obj/default/fmc/common_drivers/xcvr_core/xcvr_modules/xilinx_qpll.o
 .comment       0x000000000000002c       0x2d obj/default/fmc/common_drivers/xcvr_core/xcvr_modules/xilinx_xcvr_channel.o
 .comment       0x000000000000002c       0x2d obj/default/iioscope.o
 .comment       0x000000000000002c       0x2d obj/default/jesd204b.o
 .comment       0x000000000000002c       0x2d obj/default/main.o
 .comment       0x000000000000002c       0x2d obj/default/support.o
 .comment       0x000000000000002c       0x2d c:/intelfpga_pro/18.1/nios2eds/bin/gnu/h-x86_64-mingw32/bin/../lib/gcc/nios2-elf/7.3.1\libgcc.a(_muldi3.o)
 .comment       0x000000000000002c       0x2d c:/intelfpga_pro/18.1/nios2eds/bin/gnu/h-x86_64-mingw32/bin/../lib/gcc/nios2-elf/7.3.1\libgcc.a(_bswapsi2.o)
 .comment       0x000000000000002c       0x2d c:/intelfpga_pro/18.1/nios2eds/bin/gnu/h-x86_64-mingw32/bin/../lib/gcc/nios2-elf/7.3.1\libgcc.a(_fixunsdfsi.o)
 .comment       0x000000000000002c       0x2d c:/intelfpga_pro/18.1/nios2eds/bin/gnu/h-x86_64-mingw32/bin/../lib/gcc/nios2-elf/7.3.1\libgcc.a(_fixunsdfdi.o)
 .comment       0x000000000000002c       0x2d c:/intelfpga_pro/18.1/nios2eds/bin/gnu/h-x86_64-mingw32/bin/../lib/gcc/nios2-elf/7.3.1\libgcc.a(_udivdi3.o)
 .comment       0x000000000000002c       0x2d c:/intelfpga_pro/18.1/nios2eds/bin/gnu/h-x86_64-mingw32/bin/../lib/gcc/nios2-elf/7.3.1\libgcc.a(_umoddi3.o)
 .comment       0x000000000000002c       0x2d c:/intelfpga_pro/18.1/nios2eds/bin/gnu/h-x86_64-mingw32/bin/../lib/gcc/nios2-elf/7.3.1\libgcc.a(lib2-divmod.o)
 .comment       0x000000000000002c       0x2d c:/intelfpga_pro/18.1/nios2eds/bin/gnu/h-x86_64-mingw32/bin/../lib/gcc/nios2-elf/7.3.1\libgcc.a(adddf3.o)
 .comment       0x000000000000002c       0x2d c:/intelfpga_pro/18.1/nios2eds/bin/gnu/h-x86_64-mingw32/bin/../lib/gcc/nios2-elf/7.3.1\libgcc.a(divdf3.o)
 .comment       0x000000000000002c       0x2d c:/intelfpga_pro/18.1/nios2eds/bin/gnu/h-x86_64-mingw32/bin/../lib/gcc/nios2-elf/7.3.1\libgcc.a(gedf2.o)
 .comment       0x000000000000002c       0x2d c:/intelfpga_pro/18.1/nios2eds/bin/gnu/h-x86_64-mingw32/bin/../lib/gcc/nios2-elf/7.3.1\libgcc.a(muldf3.o)
 .comment       0x000000000000002c       0x2d c:/intelfpga_pro/18.1/nios2eds/bin/gnu/h-x86_64-mingw32/bin/../lib/gcc/nios2-elf/7.3.1\libgcc.a(subdf3.o)
 .comment       0x000000000000002c       0x2d c:/intelfpga_pro/18.1/nios2eds/bin/gnu/h-x86_64-mingw32/bin/../lib/gcc/nios2-elf/7.3.1\libgcc.a(fixdfsi.o)
 .comment       0x000000000000002c       0x2d c:/intelfpga_pro/18.1/nios2eds/bin/gnu/h-x86_64-mingw32/bin/../lib/gcc/nios2-elf/7.3.1\libgcc.a(floatunsidf.o)
 .comment       0x000000000000002c       0x2d c:/intelfpga_pro/18.1/nios2eds/bin/gnu/h-x86_64-mingw32/bin/../lib/gcc/nios2-elf/7.3.1\libgcc.a(extendsfdf2.o)
 .comment       0x000000000000002c       0x2d c:/intelfpga_pro/18.1/nios2eds/bin/gnu/h-x86_64-mingw32/bin/../lib/gcc/nios2-elf/7.3.1\libgcc.a(_clz.o)
 .comment       0x000000000000002c       0x2d c:/intelfpga_pro/18.1/nios2eds/bin/gnu/h-x86_64-mingw32/bin/../lib/gcc/nios2-elf/7.3.1\libgcc.a(_clzsi2.o)
 .comment       0x000000000000002c       0x2d c:/intelfpga_pro/18.1/nios2eds/bin/gnu/h-x86_64-mingw32/bin/../lib/gcc/nios2-elf/7.3.1/../../../../../H-x86_64-mingw32/nios2-elf/lib\libc.a(lib_a-calloc.o)
 .comment       0x000000000000002c       0x2d c:/intelfpga_pro/18.1/nios2eds/bin/gnu/h-x86_64-mingw32/bin/../lib/gcc/nios2-elf/7.3.1/../../../../../H-x86_64-mingw32/nios2-elf/lib\libc.a(lib_a-callocr.o)
 .comment       0x000000000000002c       0x2d c:/intelfpga_pro/18.1/nios2eds/bin/gnu/h-x86_64-mingw32/bin/../lib/gcc/nios2-elf/7.3.1/../../../../../H-x86_64-mingw32/nios2-elf/lib\libc.a(lib_a-getc.o)
 .comment       0x000000000000002c       0x2d c:/intelfpga_pro/18.1/nios2eds/bin/gnu/h-x86_64-mingw32/bin/../lib/gcc/nios2-elf/7.3.1/../../../../../H-x86_64-mingw32/nios2-elf/lib\libc.a(lib_a-impure.o)
 .comment       0x000000000000002c       0x2d c:/intelfpga_pro/18.1/nios2eds/bin/gnu/h-x86_64-mingw32/bin/../lib/gcc/nios2-elf/7.3.1/../../../../../H-x86_64-mingw32/nios2-elf/lib\libc.a(lib_a-locale.o)
 .comment       0x000000000000002c       0x2d c:/intelfpga_pro/18.1/nios2eds/bin/gnu/h-x86_64-mingw32/bin/../lib/gcc/nios2-elf/7.3.1/../../../../../H-x86_64-mingw32/nios2-elf/lib\libc.a(lib_a-malloc.o)
 .comment       0x000000000000002c       0x2d c:/intelfpga_pro/18.1/nios2eds/bin/gnu/h-x86_64-mingw32/bin/../lib/gcc/nios2-elf/7.3.1/../../../../../H-x86_64-mingw32/nios2-elf/lib\libc.a(lib_a-mallocr.o)
 .comment       0x000000000000002c       0x2d c:/intelfpga_pro/18.1/nios2eds/bin/gnu/h-x86_64-mingw32/bin/../lib/gcc/nios2-elf/7.3.1/../../../../../H-x86_64-mingw32/nios2-elf/lib\libc.a(lib_a-mbtowc_r.o)
 .comment       0x000000000000002c       0x2d c:/intelfpga_pro/18.1/nios2eds/bin/gnu/h-x86_64-mingw32/bin/../lib/gcc/nios2-elf/7.3.1/../../../../../H-x86_64-mingw32/nios2-elf/lib\libc.a(lib_a-memcpy.o)
 .comment       0x000000000000002c       0x2d c:/intelfpga_pro/18.1/nios2eds/bin/gnu/h-x86_64-mingw32/bin/../lib/gcc/nios2-elf/7.3.1/../../../../../H-x86_64-mingw32/nios2-elf/lib\libc.a(lib_a-memset.o)
 .comment       0x000000000000002c       0x2d c:/intelfpga_pro/18.1/nios2eds/bin/gnu/h-x86_64-mingw32/bin/../lib/gcc/nios2-elf/7.3.1/../../../../../H-x86_64-mingw32/nios2-elf/lib\libc.a(lib_a-mktime.o)
 .comment       0x000000000000002c       0x2d c:/intelfpga_pro/18.1/nios2eds/bin/gnu/h-x86_64-mingw32/bin/../lib/gcc/nios2-elf/7.3.1/../../../../../H-x86_64-mingw32/nios2-elf/lib\libc.a(lib_a-printf.o)
 .comment       0x000000000000002c       0x2d c:/intelfpga_pro/18.1/nios2eds/bin/gnu/h-x86_64-mingw32/bin/../lib/gcc/nios2-elf/7.3.1/../../../../../H-x86_64-mingw32/nios2-elf/lib\libc.a(lib_a-putchar.o)
 .comment       0x000000000000002c       0x2d c:/intelfpga_pro/18.1/nios2eds/bin/gnu/h-x86_64-mingw32/bin/../lib/gcc/nios2-elf/7.3.1/../../../../../H-x86_64-mingw32/nios2-elf/lib\libc.a(lib_a-puts.o)
 .comment       0x000000000000002c       0x2d c:/intelfpga_pro/18.1/nios2eds/bin/gnu/h-x86_64-mingw32/bin/../lib/gcc/nios2-elf/7.3.1/../../../../../H-x86_64-mingw32/nios2-elf/lib\libc.a(lib_a-rget.o)
 .comment       0x000000000000002c       0x2d c:/intelfpga_pro/18.1/nios2eds/bin/gnu/h-x86_64-mingw32/bin/../lib/gcc/nios2-elf/7.3.1/../../../../../H-x86_64-mingw32/nios2-elf/lib\libc.a(lib_a-sbrkr.o)
 .comment       0x000000000000002c       0x2d c:/intelfpga_pro/18.1/nios2eds/bin/gnu/h-x86_64-mingw32/bin/../lib/gcc/nios2-elf/7.3.1/../../../../../H-x86_64-mingw32/nios2-elf/lib\libc.a(lib_a-sprintf.o)
 .comment       0x000000000000002c       0x2d c:/intelfpga_pro/18.1/nios2eds/bin/gnu/h-x86_64-mingw32/bin/../lib/gcc/nios2-elf/7.3.1/../../../../../H-x86_64-mingw32/nios2-elf/lib\libc.a(lib_a-strcmp.o)
 .comment       0x000000000000002c       0x2d c:/intelfpga_pro/18.1/nios2eds/bin/gnu/h-x86_64-mingw32/bin/../lib/gcc/nios2-elf/7.3.1/../../../../../H-x86_64-mingw32/nios2-elf/lib\libc.a(lib_a-strcpy.o)
 .comment       0x000000000000002c       0x2d c:/intelfpga_pro/18.1/nios2eds/bin/gnu/h-x86_64-mingw32/bin/../lib/gcc/nios2-elf/7.3.1/../../../../../H-x86_64-mingw32/nios2-elf/lib\libc.a(lib_a-strlen.o)
 .comment       0x000000000000002c       0x2d c:/intelfpga_pro/18.1/nios2eds/bin/gnu/h-x86_64-mingw32/bin/../lib/gcc/nios2-elf/7.3.1/../../../../../H-x86_64-mingw32/nios2-elf/lib\libc.a(lib_a-svfprintf.o)
 .comment       0x000000000000002c       0x2d c:/intelfpga_pro/18.1/nios2eds/bin/gnu/h-x86_64-mingw32/bin/../lib/gcc/nios2-elf/7.3.1/../../../../../H-x86_64-mingw32/nios2-elf/lib\libc.a(lib_a-tzcalc_limits.o)
 .comment       0x000000000000002c       0x2d c:/intelfpga_pro/18.1/nios2eds/bin/gnu/h-x86_64-mingw32/bin/../lib/gcc/nios2-elf/7.3.1/../../../../../H-x86_64-mingw32/nios2-elf/lib\libc.a(lib_a-tzlock.o)
 .comment       0x000000000000002c       0x2d c:/intelfpga_pro/18.1/nios2eds/bin/gnu/h-x86_64-mingw32/bin/../lib/gcc/nios2-elf/7.3.1/../../../../../H-x86_64-mingw32/nios2-elf/lib\libc.a(lib_a-tzset.o)
 .comment       0x000000000000002c       0x2d c:/intelfpga_pro/18.1/nios2eds/bin/gnu/h-x86_64-mingw32/bin/../lib/gcc/nios2-elf/7.3.1/../../../../../H-x86_64-mingw32/nios2-elf/lib\libc.a(lib_a-tzset_r.o)
 .comment       0x000000000000002c       0x2d c:/intelfpga_pro/18.1/nios2eds/bin/gnu/h-x86_64-mingw32/bin/../lib/gcc/nios2-elf/7.3.1/../../../../../H-x86_64-mingw32/nios2-elf/lib\libc.a(lib_a-tzvars.o)
 .comment       0x000000000000002c       0x2d c:/intelfpga_pro/18.1/nios2eds/bin/gnu/h-x86_64-mingw32/bin/../lib/gcc/nios2-elf/7.3.1/../../../../../H-x86_64-mingw32/nios2-elf/lib\libc.a(lib_a-vfprintf.o)
 .comment       0x000000000000002c       0x2d c:/intelfpga_pro/18.1/nios2eds/bin/gnu/h-x86_64-mingw32/bin/../lib/gcc/nios2-elf/7.3.1/../../../../../H-x86_64-mingw32/nios2-elf/lib\libc.a(lib_a-wctomb_r.o)
 .comment       0x000000000000002c       0x2d c:/intelfpga_pro/18.1/nios2eds/bin/gnu/h-x86_64-mingw32/bin/../lib/gcc/nios2-elf/7.3.1/../../../../../H-x86_64-mingw32/nios2-elf/lib\libc.a(lib_a-wsetup.o)
 .comment       0x000000000000002c       0x2d c:/intelfpga_pro/18.1/nios2eds/bin/gnu/h-x86_64-mingw32/bin/../lib/gcc/nios2-elf/7.3.1/../../../../../H-x86_64-mingw32/nios2-elf/lib\libc.a(lib_a-ctype_.o)
 .comment       0x000000000000002c       0x2d c:/intelfpga_pro/18.1/nios2eds/bin/gnu/h-x86_64-mingw32/bin/../lib/gcc/nios2-elf/7.3.1/../../../../../H-x86_64-mingw32/nios2-elf/lib\libc.a(lib_a-div.o)
 .comment       0x000000000000002c       0x2d c:/intelfpga_pro/18.1/nios2eds/bin/gnu/h-x86_64-mingw32/bin/../lib/gcc/nios2-elf/7.3.1/../../../../../H-x86_64-mingw32/nios2-elf/lib\libc.a(lib_a-dtoa.o)
 .comment       0x000000000000002c       0x2d c:/intelfpga_pro/18.1/nios2eds/bin/gnu/h-x86_64-mingw32/bin/../lib/gcc/nios2-elf/7.3.1/../../../../../H-x86_64-mingw32/nios2-elf/lib\libc.a(lib_a-fflush.o)
 .comment       0x000000000000002c       0x2d c:/intelfpga_pro/18.1/nios2eds/bin/gnu/h-x86_64-mingw32/bin/../lib/gcc/nios2-elf/7.3.1/../../../../../H-x86_64-mingw32/nios2-elf/lib\libc.a(lib_a-findfp.o)
 .comment       0x000000000000002c       0x2d c:/intelfpga_pro/18.1/nios2eds/bin/gnu/h-x86_64-mingw32/bin/../lib/gcc/nios2-elf/7.3.1/../../../../../H-x86_64-mingw32/nios2-elf/lib\libc.a(lib_a-freer.o)
 .comment       0x000000000000002c       0x2d c:/intelfpga_pro/18.1/nios2eds/bin/gnu/h-x86_64-mingw32/bin/../lib/gcc/nios2-elf/7.3.1/../../../../../H-x86_64-mingw32/nios2-elf/lib\libc.a(lib_a-fvwrite.o)
 .comment       0x000000000000002c       0x2d c:/intelfpga_pro/18.1/nios2eds/bin/gnu/h-x86_64-mingw32/bin/../lib/gcc/nios2-elf/7.3.1/../../../../../H-x86_64-mingw32/nios2-elf/lib\libc.a(lib_a-fwalk.o)
 .comment       0x000000000000002c       0x2d c:/intelfpga_pro/18.1/nios2eds/bin/gnu/h-x86_64-mingw32/bin/../lib/gcc/nios2-elf/7.3.1/../../../../../H-x86_64-mingw32/nios2-elf/lib\libc.a(lib_a-getenv_r.o)
 .comment       0x000000000000002c       0x2d c:/intelfpga_pro/18.1/nios2eds/bin/gnu/h-x86_64-mingw32/bin/../lib/gcc/nios2-elf/7.3.1/../../../../../H-x86_64-mingw32/nios2-elf/lib\libc.a(lib_a-gettzinfo.o)
 .comment       0x000000000000002c       0x2d c:/intelfpga_pro/18.1/nios2eds/bin/gnu/h-x86_64-mingw32/bin/../lib/gcc/nios2-elf/7.3.1/../../../../../H-x86_64-mingw32/nios2-elf/lib\libc.a(lib_a-int_errno.o)
 .comment       0x000000000000002c       0x2d c:/intelfpga_pro/18.1/nios2eds/bin/gnu/h-x86_64-mingw32/bin/../lib/gcc/nios2-elf/7.3.1/../../../../../H-x86_64-mingw32/nios2-elf/lib\libc.a(lib_a-localeconv.o)
 .comment       0x000000000000002c       0x2d c:/intelfpga_pro/18.1/nios2eds/bin/gnu/h-x86_64-mingw32/bin/../lib/gcc/nios2-elf/7.3.1/../../../../../H-x86_64-mingw32/nios2-elf/lib\libc.a(lib_a-makebuf.o)
 .comment       0x000000000000002c       0x2d c:/intelfpga_pro/18.1/nios2eds/bin/gnu/h-x86_64-mingw32/bin/../lib/gcc/nios2-elf/7.3.1/../../../../../H-x86_64-mingw32/nios2-elf/lib\libc.a(lib_a-memchr.o)
 .comment       0x000000000000002c       0x2d c:/intelfpga_pro/18.1/nios2eds/bin/gnu/h-x86_64-mingw32/bin/../lib/gcc/nios2-elf/7.3.1/../../../../../H-x86_64-mingw32/nios2-elf/lib\libc.a(lib_a-memmove.o)
 .comment       0x000000000000002c       0x2d c:/intelfpga_pro/18.1/nios2eds/bin/gnu/h-x86_64-mingw32/bin/../lib/gcc/nios2-elf/7.3.1/../../../../../H-x86_64-mingw32/nios2-elf/lib\libc.a(lib_a-month_lengths.o)
 .comment       0x000000000000002c       0x2d c:/intelfpga_pro/18.1/nios2eds/bin/gnu/h-x86_64-mingw32/bin/../lib/gcc/nios2-elf/7.3.1/../../../../../H-x86_64-mingw32/nios2-elf/lib\libc.a(lib_a-mprec.o)
 .comment       0x000000000000002c       0x2d c:/intelfpga_pro/18.1/nios2eds/bin/gnu/h-x86_64-mingw32/bin/../lib/gcc/nios2-elf/7.3.1/../../../../../H-x86_64-mingw32/nios2-elf/lib\libc.a(lib_a-putc.o)
 .comment       0x000000000000002c       0x2d c:/intelfpga_pro/18.1/nios2eds/bin/gnu/h-x86_64-mingw32/bin/../lib/gcc/nios2-elf/7.3.1/../../../../../H-x86_64-mingw32/nios2-elf/lib\libc.a(lib_a-reallocr.o)
 .comment       0x000000000000002c       0x2d c:/intelfpga_pro/18.1/nios2eds/bin/gnu/h-x86_64-mingw32/bin/../lib/gcc/nios2-elf/7.3.1/../../../../../H-x86_64-mingw32/nios2-elf/lib\libc.a(lib_a-refill.o)
 .comment       0x000000000000002c       0x2d c:/intelfpga_pro/18.1/nios2eds/bin/gnu/h-x86_64-mingw32/bin/../lib/gcc/nios2-elf/7.3.1/../../../../../H-x86_64-mingw32/nios2-elf/lib\libc.a(lib_a-siscanf.o)
 .comment       0x000000000000002c       0x2d c:/intelfpga_pro/18.1/nios2eds/bin/gnu/h-x86_64-mingw32/bin/../lib/gcc/nios2-elf/7.3.1/../../../../../H-x86_64-mingw32/nios2-elf/lib\libc.a(lib_a-stdio.o)
 .comment       0x000000000000002c       0x2d c:/intelfpga_pro/18.1/nios2eds/bin/gnu/h-x86_64-mingw32/bin/../lib/gcc/nios2-elf/7.3.1/../../../../../H-x86_64-mingw32/nios2-elf/lib\libc.a(lib_a-strncmp.o)
 .comment       0x000000000000002c       0x2d c:/intelfpga_pro/18.1/nios2eds/bin/gnu/h-x86_64-mingw32/bin/../lib/gcc/nios2-elf/7.3.1/../../../../../H-x86_64-mingw32/nios2-elf/lib\libc.a(lib_a-strtoul.o)
 .comment       0x000000000000002c       0x2d c:/intelfpga_pro/18.1/nios2eds/bin/gnu/h-x86_64-mingw32/bin/../lib/gcc/nios2-elf/7.3.1/../../../../../H-x86_64-mingw32/nios2-elf/lib\libc.a(lib_a-svfiprintf.o)
 .comment       0x000000000000002c       0x2d c:/intelfpga_pro/18.1/nios2eds/bin/gnu/h-x86_64-mingw32/bin/../lib/gcc/nios2-elf/7.3.1/../../../../../H-x86_64-mingw32/nios2-elf/lib\libc.a(lib_a-svfiscanf.o)
 .comment       0x000000000000002c       0x2d c:/intelfpga_pro/18.1/nios2eds/bin/gnu/h-x86_64-mingw32/bin/../lib/gcc/nios2-elf/7.3.1/../../../../../H-x86_64-mingw32/nios2-elf/lib\libc.a(lib_a-ungetc.o)
 .comment       0x000000000000002c       0x2d c:/intelfpga_pro/18.1/nios2eds/bin/gnu/h-x86_64-mingw32/bin/../lib/gcc/nios2-elf/7.3.1/../../../../../H-x86_64-mingw32/nios2-elf/lib\libc.a(lib_a-vfiprintf.o)
 .comment       0x000000000000002c       0x2d c:/intelfpga_pro/18.1/nios2eds/bin/gnu/h-x86_64-mingw32/bin/../lib/gcc/nios2-elf/7.3.1/../../../../../H-x86_64-mingw32/nios2-elf/lib\libc.a(lib_a-wbuf.o)
 .comment       0x000000000000002c       0x2d c:/intelfpga_pro/18.1/nios2eds/bin/gnu/h-x86_64-mingw32/bin/../lib/gcc/nios2-elf/7.3.1/../../../../../H-x86_64-mingw32/nios2-elf/lib\libc.a(lib_a-writer.o)
 .comment       0x000000000000002c       0x2d c:/intelfpga_pro/18.1/nios2eds/bin/gnu/h-x86_64-mingw32/bin/../lib/gcc/nios2-elf/7.3.1/../../../../../H-x86_64-mingw32/nios2-elf/lib\libc.a(closer.o)
 .comment       0x000000000000002c       0x2d c:/intelfpga_pro/18.1/nios2eds/bin/gnu/h-x86_64-mingw32/bin/../lib/gcc/nios2-elf/7.3.1/../../../../../H-x86_64-mingw32/nios2-elf/lib\libc.a(lib_a-environ.o)
 .comment       0x000000000000002c       0x2d c:/intelfpga_pro/18.1/nios2eds/bin/gnu/h-x86_64-mingw32/bin/../lib/gcc/nios2-elf/7.3.1/../../../../../H-x86_64-mingw32/nios2-elf/lib\libc.a(lib_a-fclose.o)
 .comment       0x000000000000002c       0x2d c:/intelfpga_pro/18.1/nios2eds/bin/gnu/h-x86_64-mingw32/bin/../lib/gcc/nios2-elf/7.3.1/../../../../../H-x86_64-mingw32/nios2-elf/lib\libc.a(lib_a-fputwc.o)
 .comment       0x000000000000002c       0x2d c:/intelfpga_pro/18.1/nios2eds/bin/gnu/h-x86_64-mingw32/bin/../lib/gcc/nios2-elf/7.3.1/../../../../../H-x86_64-mingw32/nios2-elf/lib\libc.a(lib_a-fstatr.o)
 .comment       0x000000000000002c       0x2d c:/intelfpga_pro/18.1/nios2eds/bin/gnu/h-x86_64-mingw32/bin/../lib/gcc/nios2-elf/7.3.1/../../../../../H-x86_64-mingw32/nios2-elf/lib\libc.a(lib_a-isattyr.o)
 .comment       0x000000000000002c       0x2d c:/intelfpga_pro/18.1/nios2eds/bin/gnu/h-x86_64-mingw32/bin/../lib/gcc/nios2-elf/7.3.1/../../../../../H-x86_64-mingw32/nios2-elf/lib\libc.a(lib_a-iswspace.o)
 .comment       0x000000000000002c       0x2d c:/intelfpga_pro/18.1/nios2eds/bin/gnu/h-x86_64-mingw32/bin/../lib/gcc/nios2-elf/7.3.1/../../../../../H-x86_64-mingw32/nios2-elf/lib\libc.a(lib_a-lseekr.o)
 .comment       0x000000000000002c       0x2d c:/intelfpga_pro/18.1/nios2eds/bin/gnu/h-x86_64-mingw32/bin/../lib/gcc/nios2-elf/7.3.1/../../../../../H-x86_64-mingw32/nios2-elf/lib\libc.a(lib_a-mbrtowc.o)
 .comment       0x000000000000002c       0x2d c:/intelfpga_pro/18.1/nios2eds/bin/gnu/h-x86_64-mingw32/bin/../lib/gcc/nios2-elf/7.3.1/../../../../../H-x86_64-mingw32/nios2-elf/lib\libc.a(lib_a-readr.o)
 .comment       0x000000000000002c       0x2d c:/intelfpga_pro/18.1/nios2eds/bin/gnu/h-x86_64-mingw32/bin/../lib/gcc/nios2-elf/7.3.1/../../../../../H-x86_64-mingw32/nios2-elf/lib\libc.a(lib_a-sccl.o)
 .comment       0x000000000000002c       0x2d c:/intelfpga_pro/18.1/nios2eds/bin/gnu/h-x86_64-mingw32/bin/../lib/gcc/nios2-elf/7.3.1/../../../../../H-x86_64-mingw32/nios2-elf/lib\libc.a(lib_a-strtol.o)
 .comment       0x000000000000002c       0x2d c:/intelfpga_pro/18.1/nios2eds/bin/gnu/h-x86_64-mingw32/bin/../lib/gcc/nios2-elf/7.3.1/../../../../../H-x86_64-mingw32/nios2-elf/lib\libc.a(lib_a-strtoll.o)
 .comment       0x000000000000002c       0x2d c:/intelfpga_pro/18.1/nios2eds/bin/gnu/h-x86_64-mingw32/bin/../lib/gcc/nios2-elf/7.3.1/../../../../../H-x86_64-mingw32/nios2-elf/lib\libc.a(lib_a-strtoull.o)
 .comment       0x000000000000002c       0x2d c:/intelfpga_pro/18.1/nios2eds/bin/gnu/h-x86_64-mingw32/bin/../lib/gcc/nios2-elf/7.3.1/../../../../../H-x86_64-mingw32/nios2-elf/lib\libc.a(lib_a-wcrtomb.o)
 .comment       0x000000000000002c       0x2d c:/intelfpga_pro/18.1/nios2eds/bin/gnu/h-x86_64-mingw32/bin/../lib/gcc/nios2-elf/7.3.1\libgcc.a(eqdf2.o)
 .comment       0x000000000000002c       0x2d c:/intelfpga_pro/18.1/nios2eds/bin/gnu/h-x86_64-mingw32/bin/../lib/gcc/nios2-elf/7.3.1\libgcc.a(ledf2.o)
 .comment       0x000000000000002c       0x2d c:/intelfpga_pro/18.1/nios2eds/bin/gnu/h-x86_64-mingw32/bin/../lib/gcc/nios2-elf/7.3.1\libgcc.a(unorddf2.o)
 .comment       0x000000000000002c       0x2d c:/intelfpga_pro/18.1/nios2eds/bin/gnu/h-x86_64-mingw32/bin/../lib/gcc/nios2-elf/7.3.1\libgcc.a(floatsidf.o)
 .comment       0x000000000000002c       0x2d C:/Git/ArrowESC/Cyclone10GX_Rev2_Demo/software/C10GX_SoM_Rev2_Demo_bsp/\libhal_bsp.a(alt_close.o)
 .comment       0x000000000000002c       0x2d C:/Git/ArrowESC/Cyclone10GX_Rev2_Demo/software/C10GX_SoM_Rev2_Demo_bsp/\libhal_bsp.a(alt_dcache_flush.o)
 .comment       0x000000000000002c       0x2d C:/Git/ArrowESC/Cyclone10GX_Rev2_Demo/software/C10GX_SoM_Rev2_Demo_bsp/\libhal_bsp.a(alt_dev.o)
 .comment       0x000000000000002c       0x2d C:/Git/ArrowESC/Cyclone10GX_Rev2_Demo/software/C10GX_SoM_Rev2_Demo_bsp/\libhal_bsp.a(alt_dev_llist_insert.o)
 .comment       0x000000000000002c       0x2d C:/Git/ArrowESC/Cyclone10GX_Rev2_Demo/software/C10GX_SoM_Rev2_Demo_bsp/\libhal_bsp.a(alt_env_lock.o)
 .comment       0x000000000000002c       0x2d C:/Git/ArrowESC/Cyclone10GX_Rev2_Demo/software/C10GX_SoM_Rev2_Demo_bsp/\libhal_bsp.a(alt_errno.o)
 .comment       0x000000000000002c       0x2d C:/Git/ArrowESC/Cyclone10GX_Rev2_Demo/software/C10GX_SoM_Rev2_Demo_bsp/\libhal_bsp.a(alt_fstat.o)
 .comment       0x000000000000002c       0x2d C:/Git/ArrowESC/Cyclone10GX_Rev2_Demo/software/C10GX_SoM_Rev2_Demo_bsp/\libhal_bsp.a(alt_icache_flush_all.o)
 .comment       0x000000000000002c       0x2d C:/Git/ArrowESC/Cyclone10GX_Rev2_Demo/software/C10GX_SoM_Rev2_Demo_bsp/\libhal_bsp.a(alt_iic.o)
 .comment       0x000000000000002c       0x2d C:/Git/ArrowESC/Cyclone10GX_Rev2_Demo/software/C10GX_SoM_Rev2_Demo_bsp/\libhal_bsp.a(alt_iic_isr_register.o)
 .comment       0x000000000000002c       0x2d C:/Git/ArrowESC/Cyclone10GX_Rev2_Demo/software/C10GX_SoM_Rev2_Demo_bsp/\libhal_bsp.a(alt_instruction_exception_register.o)
 .comment       0x000000000000002c       0x2d C:/Git/ArrowESC/Cyclone10GX_Rev2_Demo/software/C10GX_SoM_Rev2_Demo_bsp/\libhal_bsp.a(alt_irq_handler.o)
 .comment       0x000000000000002c       0x2d C:/Git/ArrowESC/Cyclone10GX_Rev2_Demo/software/C10GX_SoM_Rev2_Demo_bsp/\libhal_bsp.a(alt_irq_vars.o)
 .comment       0x000000000000002c       0x2d C:/Git/ArrowESC/Cyclone10GX_Rev2_Demo/software/C10GX_SoM_Rev2_Demo_bsp/\libhal_bsp.a(alt_isatty.o)
 .comment       0x000000000000002c       0x2d C:/Git/ArrowESC/Cyclone10GX_Rev2_Demo/software/C10GX_SoM_Rev2_Demo_bsp/\libhal_bsp.a(alt_load.o)
 .comment       0x000000000000002c       0x2d C:/Git/ArrowESC/Cyclone10GX_Rev2_Demo/software/C10GX_SoM_Rev2_Demo_bsp/\libhal_bsp.a(alt_lseek.o)
 .comment       0x000000000000002c       0x2d C:/Git/ArrowESC/Cyclone10GX_Rev2_Demo/software/C10GX_SoM_Rev2_Demo_bsp/\libhal_bsp.a(alt_main.o)
 .comment       0x000000000000002c       0x2d C:/Git/ArrowESC/Cyclone10GX_Rev2_Demo/software/C10GX_SoM_Rev2_Demo_bsp/\libhal_bsp.a(alt_malloc_lock.o)
 .comment       0x000000000000002c       0x2d C:/Git/ArrowESC/Cyclone10GX_Rev2_Demo/software/C10GX_SoM_Rev2_Demo_bsp/\libhal_bsp.a(alt_printf.o)
 .comment       0x000000000000002c       0x2d C:/Git/ArrowESC/Cyclone10GX_Rev2_Demo/software/C10GX_SoM_Rev2_Demo_bsp/\libhal_bsp.a(alt_putchar.o)
 .comment       0x000000000000002c       0x2d C:/Git/ArrowESC/Cyclone10GX_Rev2_Demo/software/C10GX_SoM_Rev2_Demo_bsp/\libhal_bsp.a(alt_read.o)
 .comment       0x000000000000002c       0x2d C:/Git/ArrowESC/Cyclone10GX_Rev2_Demo/software/C10GX_SoM_Rev2_Demo_bsp/\libhal_bsp.a(alt_release_fd.o)
 .comment       0x000000000000002c       0x2d C:/Git/ArrowESC/Cyclone10GX_Rev2_Demo/software/C10GX_SoM_Rev2_Demo_bsp/\libhal_bsp.a(alt_sbrk.o)
 .comment       0x000000000000002c       0x2d C:/Git/ArrowESC/Cyclone10GX_Rev2_Demo/software/C10GX_SoM_Rev2_Demo_bsp/\libhal_bsp.a(alt_usleep.o)
 .comment       0x000000000000002c       0x2d C:/Git/ArrowESC/Cyclone10GX_Rev2_Demo/software/C10GX_SoM_Rev2_Demo_bsp/\libhal_bsp.a(alt_write.o)
 .comment       0x000000000000002c       0x2d C:/Git/ArrowESC/Cyclone10GX_Rev2_Demo/software/C10GX_SoM_Rev2_Demo_bsp/\libhal_bsp.a(alt_sys_init.o)
 .comment       0x000000000000002c       0x2d C:/Git/ArrowESC/Cyclone10GX_Rev2_Demo/software/C10GX_SoM_Rev2_Demo_bsp/\libhal_bsp.a(altera_avalon_i2c.o)
 .comment       0x000000000000002c       0x2d C:/Git/ArrowESC/Cyclone10GX_Rev2_Demo/software/C10GX_SoM_Rev2_Demo_bsp/\libhal_bsp.a(altera_avalon_jtag_uart_fd.o)
 .comment       0x000000000000002c       0x2d C:/Git/ArrowESC/Cyclone10GX_Rev2_Demo/software/C10GX_SoM_Rev2_Demo_bsp/\libhal_bsp.a(altera_avalon_jtag_uart_init.o)
 .comment       0x000000000000002c       0x2d C:/Git/ArrowESC/Cyclone10GX_Rev2_Demo/software/C10GX_SoM_Rev2_Demo_bsp/\libhal_bsp.a(altera_avalon_jtag_uart_ioctl.o)
 .comment       0x000000000000002c       0x2d C:/Git/ArrowESC/Cyclone10GX_Rev2_Demo/software/C10GX_SoM_Rev2_Demo_bsp/\libhal_bsp.a(altera_avalon_jtag_uart_read.o)
 .comment       0x000000000000002c       0x2d C:/Git/ArrowESC/Cyclone10GX_Rev2_Demo/software/C10GX_SoM_Rev2_Demo_bsp/\libhal_bsp.a(altera_avalon_jtag_uart_write.o)
 .comment       0x000000000000002c       0x2d C:/Git/ArrowESC/Cyclone10GX_Rev2_Demo/software/C10GX_SoM_Rev2_Demo_bsp/\libhal_bsp.a(altera_avalon_timer_sc.o)
 .comment       0x000000000000002c       0x2d C:/Git/ArrowESC/Cyclone10GX_Rev2_Demo/software/C10GX_SoM_Rev2_Demo_bsp/\libhal_bsp.a(altera_avalon_timer_ts.o)
 .comment       0x000000000000002c       0x2d C:/Git/ArrowESC/Cyclone10GX_Rev2_Demo/software/C10GX_SoM_Rev2_Demo_bsp/\libhal_bsp.a(altera_avalon_timer_vars.o)
 .comment       0x000000000000002c       0x2d C:/Git/ArrowESC/Cyclone10GX_Rev2_Demo/software/C10GX_SoM_Rev2_Demo_bsp/\libhal_bsp.a(altera_avalon_tse.o)
 .comment       0x000000000000002c       0x2d C:/Git/ArrowESC/Cyclone10GX_Rev2_Demo/software/C10GX_SoM_Rev2_Demo_bsp/\libhal_bsp.a(altera_avalon_tse_system_info.o)
 .comment       0x000000000000002c       0x2d C:/Git/ArrowESC/Cyclone10GX_Rev2_Demo/software/C10GX_SoM_Rev2_Demo_bsp/\libhal_bsp.a(altera_generic_quad_spi_controller2.o)
 .comment       0x000000000000002c       0x2d C:/Git/ArrowESC/Cyclone10GX_Rev2_Demo/software/C10GX_SoM_Rev2_Demo_bsp/\libhal_bsp.a(altera_msgdma.o)
 .comment       0x000000000000002c       0x2d C:/Git/ArrowESC/Cyclone10GX_Rev2_Demo/software/C10GX_SoM_Rev2_Demo_bsp/\libhal_bsp.a(alt_alarm_start.o)
 .comment       0x000000000000002c       0x2d C:/Git/ArrowESC/Cyclone10GX_Rev2_Demo/software/C10GX_SoM_Rev2_Demo_bsp/\libhal_bsp.a(alt_busy_sleep.o)
 .comment       0x000000000000002c       0x2d C:/Git/ArrowESC/Cyclone10GX_Rev2_Demo/software/C10GX_SoM_Rev2_Demo_bsp/\libhal_bsp.a(alt_dcache_flush_all.o)
 .comment       0x000000000000002c       0x2d C:/Git/ArrowESC/Cyclone10GX_Rev2_Demo/software/C10GX_SoM_Rev2_Demo_bsp/\libhal_bsp.a(alt_do_ctors.o)
 .comment       0x000000000000002c       0x2d C:/Git/ArrowESC/Cyclone10GX_Rev2_Demo/software/C10GX_SoM_Rev2_Demo_bsp/\libhal_bsp.a(alt_do_dtors.o)
 .comment       0x000000000000002c       0x2d C:/Git/ArrowESC/Cyclone10GX_Rev2_Demo/software/C10GX_SoM_Rev2_Demo_bsp/\libhal_bsp.a(alt_find_dev.o)
 .comment       0x000000000000002c       0x2d C:/Git/ArrowESC/Cyclone10GX_Rev2_Demo/software/C10GX_SoM_Rev2_Demo_bsp/\libhal_bsp.a(alt_flash_dev.o)
 .comment       0x000000000000002c       0x2d C:/Git/ArrowESC/Cyclone10GX_Rev2_Demo/software/C10GX_SoM_Rev2_Demo_bsp/\libhal_bsp.a(alt_icache_flush.o)
 .comment       0x000000000000002c       0x2d C:/Git/ArrowESC/Cyclone10GX_Rev2_Demo/software/C10GX_SoM_Rev2_Demo_bsp/\libhal_bsp.a(alt_instruction_exception_entry.o)
 .comment       0x000000000000002c       0x2d C:/Git/ArrowESC/Cyclone10GX_Rev2_Demo/software/C10GX_SoM_Rev2_Demo_bsp/\libhal_bsp.a(alt_io_redirect.o)
 .comment       0x000000000000002c       0x2d C:/Git/ArrowESC/Cyclone10GX_Rev2_Demo/software/C10GX_SoM_Rev2_Demo_bsp/\libhal_bsp.a(alt_open.o)
 .comment       0x000000000000002c       0x2d C:/Git/ArrowESC/Cyclone10GX_Rev2_Demo/software/C10GX_SoM_Rev2_Demo_bsp/\libhal_bsp.a(alt_tick.o)
 .comment       0x000000000000002c       0x2d C:/Git/ArrowESC/Cyclone10GX_Rev2_Demo/software/C10GX_SoM_Rev2_Demo_bsp/\libhal_bsp.a(altera_nios2_gen2_irq.o)
 .comment       0x000000000000002c       0x2d C:/Git/ArrowESC/Cyclone10GX_Rev2_Demo/software/C10GX_SoM_Rev2_Demo_bsp/\libhal_bsp.a(alt_find_file.o)
 .comment       0x000000000000002c       0x2d C:/Git/ArrowESC/Cyclone10GX_Rev2_Demo/software/C10GX_SoM_Rev2_Demo_bsp/\libhal_bsp.a(alt_get_fd.o)
 .comment       0x000000000000002c       0x2d c:/intelfpga_pro/18.1/nios2eds/bin/gnu/h-x86_64-mingw32/bin/../lib/gcc/nios2-elf/7.3.1/../../../../../H-x86_64-mingw32/nios2-elf/lib\libc.a(lib_a-atexit.o)
 .comment       0x000000000000002c       0x2d c:/intelfpga_pro/18.1/nios2eds/bin/gnu/h-x86_64-mingw32/bin/../lib/gcc/nios2-elf/7.3.1/../../../../../H-x86_64-mingw32/nios2-elf/lib\libc.a(lib_a-exit.o)
 .comment       0x000000000000002c       0x2d c:/intelfpga_pro/18.1/nios2eds/bin/gnu/h-x86_64-mingw32/bin/../lib/gcc/nios2-elf/7.3.1/../../../../../H-x86_64-mingw32/nios2-elf/lib\libc.a(lib_a-__atexit.o)
 .comment       0x000000000000002c       0x2d c:/intelfpga_pro/18.1/nios2eds/bin/gnu/h-x86_64-mingw32/bin/../lib/gcc/nios2-elf/7.3.1/../../../../../H-x86_64-mingw32/nios2-elf/lib\libc.a(lib_a-__call_atexit.o)
 .comment       0x000000000000002c       0x2d C:/Git/ArrowESC/Cyclone10GX_Rev2_Demo/software/C10GX_SoM_Rev2_Demo_bsp/\libhal_bsp.a(alt_exit.o)

.debug
 *(.debug)

.line
 *(.line)

.debug_srcinfo
 *(.debug_srcinfo)

.debug_sfnames
 *(.debug_sfnames)

.debug_aranges  0x0000000000000000     0x1938
 *(.debug_aranges)
 .debug_aranges
                0x0000000000000000       0x28 C:/Git/ArrowESC/Cyclone10GX_Rev2_Demo/software/C10GX_SoM_Rev2_Demo_bsp//obj/HAL/src/crt0.o
 .debug_aranges
                0x0000000000000028       0x20 obj/default/crc.o
 .debug_aranges
                0x0000000000000048       0x20 obj/default/ethernet.o
 .debug_aranges
                0x0000000000000068       0x20 obj/default/fmc/ad9144/ad9144.o
 .debug_aranges
                0x0000000000000088       0x20 obj/default/fmc/ad9523/ad9523.o
 .debug_aranges
                0x00000000000000a8       0x20 obj/default/fmc/ad9680/ad9680.o
 .debug_aranges
                0x00000000000000c8       0x20 obj/default/fmc/common_drivers/adc_core/adc_core.o
 .debug_aranges
                0x00000000000000e8       0x20 obj/default/fmc/common_drivers/communication/generic/Communication.o
 .debug_aranges
                0x0000000000000108       0x20 obj/default/fmc/common_drivers/dac_buffer/dac_buffer.o
 .debug_aranges
                0x0000000000000128       0x20 obj/default/fmc/common_drivers/dac_core/dac_core.o
 .debug_aranges
                0x0000000000000148       0x20 obj/default/fmc/common_drivers/dmac_core/dmac_core.o
 .debug_aranges
                0x0000000000000168       0x20 obj/default/fmc/common_drivers/fru_tools/fru_tools.o
 .debug_aranges
                0x0000000000000188       0x20 obj/default/fmc/common_drivers/jesd_core/jesd_core.o
 .debug_aranges
                0x00000000000001a8       0x20 obj/default/fmc/common_drivers/platform_drivers/platform_drivers.o
 .debug_aranges
                0x00000000000001c8       0x20 obj/default/fmc/common_drivers/xcvr_core/xcvr_core.o
 .debug_aranges
                0x00000000000001e8       0x20 obj/default/fmc/common_drivers/xcvr_core/xcvr_modules/altera_a10_atx_pll.o
 .debug_aranges
                0x0000000000000208       0x20 obj/default/fmc/common_drivers/xcvr_core/xcvr_modules/altera_a10_fpll.o
 .debug_aranges
                0x0000000000000228       0x20 obj/default/fmc/common_drivers/xcvr_core/xcvr_modules/altera_a10_xcvr_channel.o
 .debug_aranges
                0x0000000000000248       0x20 obj/default/fmc/common_drivers/xcvr_core/xcvr_modules/altera_pll_common.o
 .debug_aranges
                0x0000000000000268       0x18 obj/default/fmc/common_drivers/xcvr_core/xcvr_modules/xilinx_qpll.o
 .debug_aranges
                0x0000000000000280       0x18 obj/default/fmc/common_drivers/xcvr_core/xcvr_modules/xilinx_xcvr_channel.o
 .debug_aranges
                0x0000000000000298       0x20 obj/default/iioscope.o
 .debug_aranges
                0x00000000000002b8       0x20 obj/default/jesd204b.o
 .debug_aranges
                0x00000000000002d8       0x20 obj/default/main.o
 .debug_aranges
                0x00000000000002f8       0x20 obj/default/support.o
 .debug_aranges
                0x0000000000000318       0x20 c:/intelfpga_pro/18.1/nios2eds/bin/gnu/h-x86_64-mingw32/bin/../lib/gcc/nios2-elf/7.3.1\libgcc.a(_muldi3.o)
 .debug_aranges
                0x0000000000000338       0x20 c:/intelfpga_pro/18.1/nios2eds/bin/gnu/h-x86_64-mingw32/bin/../lib/gcc/nios2-elf/7.3.1\libgcc.a(_bswapsi2.o)
 .debug_aranges
                0x0000000000000358       0x20 c:/intelfpga_pro/18.1/nios2eds/bin/gnu/h-x86_64-mingw32/bin/../lib/gcc/nios2-elf/7.3.1\libgcc.a(_fixunsdfsi.o)
 .debug_aranges
                0x0000000000000378       0x20 c:/intelfpga_pro/18.1/nios2eds/bin/gnu/h-x86_64-mingw32/bin/../lib/gcc/nios2-elf/7.3.1\libgcc.a(_fixunsdfdi.o)
 .debug_aranges
                0x0000000000000398       0x20 c:/intelfpga_pro/18.1/nios2eds/bin/gnu/h-x86_64-mingw32/bin/../lib/gcc/nios2-elf/7.3.1\libgcc.a(_udivdi3.o)
 .debug_aranges
                0x00000000000003b8       0x20 c:/intelfpga_pro/18.1/nios2eds/bin/gnu/h-x86_64-mingw32/bin/../lib/gcc/nios2-elf/7.3.1\libgcc.a(_umoddi3.o)
 .debug_aranges
                0x00000000000003d8       0x20 c:/intelfpga_pro/18.1/nios2eds/bin/gnu/h-x86_64-mingw32/bin/../lib/gcc/nios2-elf/7.3.1\libgcc.a(lib2-divmod.o)
 .debug_aranges
                0x00000000000003f8       0x20 c:/intelfpga_pro/18.1/nios2eds/bin/gnu/h-x86_64-mingw32/bin/../lib/gcc/nios2-elf/7.3.1\libgcc.a(adddf3.o)
 .debug_aranges
                0x0000000000000418       0x20 c:/intelfpga_pro/18.1/nios2eds/bin/gnu/h-x86_64-mingw32/bin/../lib/gcc/nios2-elf/7.3.1\libgcc.a(divdf3.o)
 .debug_aranges
                0x0000000000000438       0x20 c:/intelfpga_pro/18.1/nios2eds/bin/gnu/h-x86_64-mingw32/bin/../lib/gcc/nios2-elf/7.3.1\libgcc.a(gedf2.o)
 .debug_aranges
                0x0000000000000458       0x20 c:/intelfpga_pro/18.1/nios2eds/bin/gnu/h-x86_64-mingw32/bin/../lib/gcc/nios2-elf/7.3.1\libgcc.a(muldf3.o)
 .debug_aranges
                0x0000000000000478       0x20 c:/intelfpga_pro/18.1/nios2eds/bin/gnu/h-x86_64-mingw32/bin/../lib/gcc/nios2-elf/7.3.1\libgcc.a(subdf3.o)
 .debug_aranges
                0x0000000000000498       0x20 c:/intelfpga_pro/18.1/nios2eds/bin/gnu/h-x86_64-mingw32/bin/../lib/gcc/nios2-elf/7.3.1\libgcc.a(fixdfsi.o)
 .debug_aranges
                0x00000000000004b8       0x20 c:/intelfpga_pro/18.1/nios2eds/bin/gnu/h-x86_64-mingw32/bin/../lib/gcc/nios2-elf/7.3.1\libgcc.a(floatunsidf.o)
 .debug_aranges
                0x00000000000004d8       0x20 c:/intelfpga_pro/18.1/nios2eds/bin/gnu/h-x86_64-mingw32/bin/../lib/gcc/nios2-elf/7.3.1\libgcc.a(extendsfdf2.o)
 .debug_aranges
                0x00000000000004f8       0x18 c:/intelfpga_pro/18.1/nios2eds/bin/gnu/h-x86_64-mingw32/bin/../lib/gcc/nios2-elf/7.3.1\libgcc.a(_clz.o)
 .debug_aranges
                0x0000000000000510       0x20 c:/intelfpga_pro/18.1/nios2eds/bin/gnu/h-x86_64-mingw32/bin/../lib/gcc/nios2-elf/7.3.1\libgcc.a(_clzsi2.o)
 .debug_aranges
                0x0000000000000530       0x20 c:/intelfpga_pro/18.1/nios2eds/bin/gnu/h-x86_64-mingw32/bin/../lib/gcc/nios2-elf/7.3.1/../../../../../H-x86_64-mingw32/nios2-elf/lib\libc.a(lib_a-calloc.o)
 .debug_aranges
                0x0000000000000550       0x20 c:/intelfpga_pro/18.1/nios2eds/bin/gnu/h-x86_64-mingw32/bin/../lib/gcc/nios2-elf/7.3.1/../../../../../H-x86_64-mingw32/nios2-elf/lib\libc.a(lib_a-callocr.o)
 .debug_aranges
                0x0000000000000570       0x28 c:/intelfpga_pro/18.1/nios2eds/bin/gnu/h-x86_64-mingw32/bin/../lib/gcc/nios2-elf/7.3.1/../../../../../H-x86_64-mingw32/nios2-elf/lib\libc.a(lib_a-getc.o)
 .debug_aranges
                0x0000000000000598       0x18 c:/intelfpga_pro/18.1/nios2eds/bin/gnu/h-x86_64-mingw32/bin/../lib/gcc/nios2-elf/7.3.1/../../../../../H-x86_64-mingw32/nios2-elf/lib\libc.a(lib_a-impure.o)
 .debug_aranges
                0x00000000000005b0       0x40 c:/intelfpga_pro/18.1/nios2eds/bin/gnu/h-x86_64-mingw32/bin/../lib/gcc/nios2-elf/7.3.1/../../../../../H-x86_64-mingw32/nios2-elf/lib\libc.a(lib_a-locale.o)
 .debug_aranges
                0x00000000000005f0       0x28 c:/intelfpga_pro/18.1/nios2eds/bin/gnu/h-x86_64-mingw32/bin/../lib/gcc/nios2-elf/7.3.1/../../../../../H-x86_64-mingw32/nios2-elf/lib\libc.a(lib_a-malloc.o)
 .debug_aranges
                0x0000000000000618       0x20 c:/intelfpga_pro/18.1/nios2eds/bin/gnu/h-x86_64-mingw32/bin/../lib/gcc/nios2-elf/7.3.1/../../../../../H-x86_64-mingw32/nios2-elf/lib\libc.a(lib_a-mallocr.o)
 .debug_aranges
                0x0000000000000638       0x28 c:/intelfpga_pro/18.1/nios2eds/bin/gnu/h-x86_64-mingw32/bin/../lib/gcc/nios2-elf/7.3.1/../../../../../H-x86_64-mingw32/nios2-elf/lib\libc.a(lib_a-mbtowc_r.o)
 .debug_aranges
                0x0000000000000660       0x20 c:/intelfpga_pro/18.1/nios2eds/bin/gnu/h-x86_64-mingw32/bin/../lib/gcc/nios2-elf/7.3.1/../../../../../H-x86_64-mingw32/nios2-elf/lib\libc.a(lib_a-memcpy.o)
 .debug_aranges
                0x0000000000000680       0x20 c:/intelfpga_pro/18.1/nios2eds/bin/gnu/h-x86_64-mingw32/bin/../lib/gcc/nios2-elf/7.3.1/../../../../../H-x86_64-mingw32/nios2-elf/lib\libc.a(lib_a-memset.o)
 .debug_aranges
                0x00000000000006a0       0x28 c:/intelfpga_pro/18.1/nios2eds/bin/gnu/h-x86_64-mingw32/bin/../lib/gcc/nios2-elf/7.3.1/../../../../../H-x86_64-mingw32/nios2-elf/lib\libc.a(lib_a-mktime.o)
 .debug_aranges
                0x00000000000006c8       0x28 c:/intelfpga_pro/18.1/nios2eds/bin/gnu/h-x86_64-mingw32/bin/../lib/gcc/nios2-elf/7.3.1/../../../../../H-x86_64-mingw32/nios2-elf/lib\libc.a(lib_a-printf.o)
 .debug_aranges
                0x00000000000006f0       0x28 c:/intelfpga_pro/18.1/nios2eds/bin/gnu/h-x86_64-mingw32/bin/../lib/gcc/nios2-elf/7.3.1/../../../../../H-x86_64-mingw32/nios2-elf/lib\libc.a(lib_a-putchar.o)
 .debug_aranges
                0x0000000000000718       0x28 c:/intelfpga_pro/18.1/nios2eds/bin/gnu/h-x86_64-mingw32/bin/../lib/gcc/nios2-elf/7.3.1/../../../../../H-x86_64-mingw32/nios2-elf/lib\libc.a(lib_a-puts.o)
 .debug_aranges
                0x0000000000000740       0x28 c:/intelfpga_pro/18.1/nios2eds/bin/gnu/h-x86_64-mingw32/bin/../lib/gcc/nios2-elf/7.3.1/../../../../../H-x86_64-mingw32/nios2-elf/lib\libc.a(lib_a-rget.o)
 .debug_aranges
                0x0000000000000768       0x20 c:/intelfpga_pro/18.1/nios2eds/bin/gnu/h-x86_64-mingw32/bin/../lib/gcc/nios2-elf/7.3.1/../../../../../H-x86_64-mingw32/nios2-elf/lib\libc.a(lib_a-sbrkr.o)
 .debug_aranges
                0x0000000000000788       0x28 c:/intelfpga_pro/18.1/nios2eds/bin/gnu/h-x86_64-mingw32/bin/../lib/gcc/nios2-elf/7.3.1/../../../../../H-x86_64-mingw32/nios2-elf/lib\libc.a(lib_a-sprintf.o)
 .debug_aranges
                0x00000000000007b0       0x20 c:/intelfpga_pro/18.1/nios2eds/bin/gnu/h-x86_64-mingw32/bin/../lib/gcc/nios2-elf/7.3.1/../../../../../H-x86_64-mingw32/nios2-elf/lib\libc.a(lib_a-strcmp.o)
 .debug_aranges
                0x00000000000007d0       0x20 c:/intelfpga_pro/18.1/nios2eds/bin/gnu/h-x86_64-mingw32/bin/../lib/gcc/nios2-elf/7.3.1/../../../../../H-x86_64-mingw32/nios2-elf/lib\libc.a(lib_a-strcpy.o)
 .debug_aranges
                0x00000000000007f0       0x20 c:/intelfpga_pro/18.1/nios2eds/bin/gnu/h-x86_64-mingw32/bin/../lib/gcc/nios2-elf/7.3.1/../../../../../H-x86_64-mingw32/nios2-elf/lib\libc.a(lib_a-strlen.o)
 .debug_aranges
                0x0000000000000810       0x20 c:/intelfpga_pro/18.1/nios2eds/bin/gnu/h-x86_64-mingw32/bin/../lib/gcc/nios2-elf/7.3.1/../../../../../H-x86_64-mingw32/nios2-elf/lib\libc.a(lib_a-svfprintf.o)
 .debug_aranges
                0x0000000000000830       0x20 c:/intelfpga_pro/18.1/nios2eds/bin/gnu/h-x86_64-mingw32/bin/../lib/gcc/nios2-elf/7.3.1/../../../../../H-x86_64-mingw32/nios2-elf/lib\libc.a(lib_a-tzcalc_limits.o)
 .debug_aranges
                0x0000000000000850       0x20 c:/intelfpga_pro/18.1/nios2eds/bin/gnu/h-x86_64-mingw32/bin/../lib/gcc/nios2-elf/7.3.1/../../../../../H-x86_64-mingw32/nios2-elf/lib\libc.a(lib_a-tzlock.o)
 .debug_aranges
                0x0000000000000870       0x28 c:/intelfpga_pro/18.1/nios2eds/bin/gnu/h-x86_64-mingw32/bin/../lib/gcc/nios2-elf/7.3.1/../../../../../H-x86_64-mingw32/nios2-elf/lib\libc.a(lib_a-tzset.o)
 .debug_aranges
                0x0000000000000898       0x28 c:/intelfpga_pro/18.1/nios2eds/bin/gnu/h-x86_64-mingw32/bin/../lib/gcc/nios2-elf/7.3.1/../../../../../H-x86_64-mingw32/nios2-elf/lib\libc.a(lib_a-tzset_r.o)
 .debug_aranges
                0x00000000000008c0       0x18 c:/intelfpga_pro/18.1/nios2eds/bin/gnu/h-x86_64-mingw32/bin/../lib/gcc/nios2-elf/7.3.1/../../../../../H-x86_64-mingw32/nios2-elf/lib\libc.a(lib_a-tzvars.o)
 .debug_aranges
                0x00000000000008d8       0x30 c:/intelfpga_pro/18.1/nios2eds/bin/gnu/h-x86_64-mingw32/bin/../lib/gcc/nios2-elf/7.3.1/../../../../../H-x86_64-mingw32/nios2-elf/lib\libc.a(lib_a-vfprintf.o)
 .debug_aranges
                0x0000000000000908       0x28 c:/intelfpga_pro/18.1/nios2eds/bin/gnu/h-x86_64-mingw32/bin/../lib/gcc/nios2-elf/7.3.1/../../../../../H-x86_64-mingw32/nios2-elf/lib\libc.a(lib_a-wctomb_r.o)
 .debug_aranges
                0x0000000000000930       0x20 c:/intelfpga_pro/18.1/nios2eds/bin/gnu/h-x86_64-mingw32/bin/../lib/gcc/nios2-elf/7.3.1/../../../../../H-x86_64-mingw32/nios2-elf/lib\libc.a(lib_a-wsetup.o)
 .debug_aranges
                0x0000000000000950       0x18 c:/intelfpga_pro/18.1/nios2eds/bin/gnu/h-x86_64-mingw32/bin/../lib/gcc/nios2-elf/7.3.1/../../../../../H-x86_64-mingw32/nios2-elf/lib\libc.a(lib_a-ctype_.o)
 .debug_aranges
                0x0000000000000968       0x20 c:/intelfpga_pro/18.1/nios2eds/bin/gnu/h-x86_64-mingw32/bin/../lib/gcc/nios2-elf/7.3.1/../../../../../H-x86_64-mingw32/nios2-elf/lib\libc.a(lib_a-div.o)
 .debug_aranges
                0x0000000000000988       0x28 c:/intelfpga_pro/18.1/nios2eds/bin/gnu/h-x86_64-mingw32/bin/../lib/gcc/nios2-elf/7.3.1/../../../../../H-x86_64-mingw32/nios2-elf/lib\libc.a(lib_a-dtoa.o)
 .debug_aranges
                0x00000000000009b0       0x30 c:/intelfpga_pro/18.1/nios2eds/bin/gnu/h-x86_64-mingw32/bin/../lib/gcc/nios2-elf/7.3.1/../../../../../H-x86_64-mingw32/nios2-elf/lib\libc.a(lib_a-fflush.o)
 .debug_aranges
                0x00000000000009e0       0x68 c:/intelfpga_pro/18.1/nios2eds/bin/gnu/h-x86_64-mingw32/bin/../lib/gcc/nios2-elf/7.3.1/../../../../../H-x86_64-mingw32/nios2-elf/lib\libc.a(lib_a-findfp.o)
 .debug_aranges
                0x0000000000000a48       0x28 c:/intelfpga_pro/18.1/nios2eds/bin/gnu/h-x86_64-mingw32/bin/../lib/gcc/nios2-elf/7.3.1/../../../../../H-x86_64-mingw32/nios2-elf/lib\libc.a(lib_a-freer.o)
 .debug_aranges
                0x0000000000000a70       0x20 c:/intelfpga_pro/18.1/nios2eds/bin/gnu/h-x86_64-mingw32/bin/../lib/gcc/nios2-elf/7.3.1/../../../../../H-x86_64-mingw32/nios2-elf/lib\libc.a(lib_a-fvwrite.o)
 .debug_aranges
                0x0000000000000a90       0x28 c:/intelfpga_pro/18.1/nios2eds/bin/gnu/h-x86_64-mingw32/bin/../lib/gcc/nios2-elf/7.3.1/../../../../../H-x86_64-mingw32/nios2-elf/lib\libc.a(lib_a-fwalk.o)
 .debug_aranges
                0x0000000000000ab8       0x28 c:/intelfpga_pro/18.1/nios2eds/bin/gnu/h-x86_64-mingw32/bin/../lib/gcc/nios2-elf/7.3.1/../../../../../H-x86_64-mingw32/nios2-elf/lib\libc.a(lib_a-getenv_r.o)
 .debug_aranges
                0x0000000000000ae0       0x20 c:/intelfpga_pro/18.1/nios2eds/bin/gnu/h-x86_64-mingw32/bin/../lib/gcc/nios2-elf/7.3.1/../../../../../H-x86_64-mingw32/nios2-elf/lib\libc.a(lib_a-gettzinfo.o)
 .debug_aranges
                0x0000000000000b00       0x18 c:/intelfpga_pro/18.1/nios2eds/bin/gnu/h-x86_64-mingw32/bin/../lib/gcc/nios2-elf/7.3.1/../../../../../H-x86_64-mingw32/nios2-elf/lib\libc.a(lib_a-int_errno.o)
 .debug_aranges
                0x0000000000000b18       0x30 c:/intelfpga_pro/18.1/nios2eds/bin/gnu/h-x86_64-mingw32/bin/../lib/gcc/nios2-elf/7.3.1/../../../../../H-x86_64-mingw32/nios2-elf/lib\libc.a(lib_a-localeconv.o)
 .debug_aranges
                0x0000000000000b48       0x28 c:/intelfpga_pro/18.1/nios2eds/bin/gnu/h-x86_64-mingw32/bin/../lib/gcc/nios2-elf/7.3.1/../../../../../H-x86_64-mingw32/nios2-elf/lib\libc.a(lib_a-makebuf.o)
 .debug_aranges
                0x0000000000000b70       0x20 c:/intelfpga_pro/18.1/nios2eds/bin/gnu/h-x86_64-mingw32/bin/../lib/gcc/nios2-elf/7.3.1/../../../../../H-x86_64-mingw32/nios2-elf/lib\libc.a(lib_a-memchr.o)
 .debug_aranges
                0x0000000000000b90       0x20 c:/intelfpga_pro/18.1/nios2eds/bin/gnu/h-x86_64-mingw32/bin/../lib/gcc/nios2-elf/7.3.1/../../../../../H-x86_64-mingw32/nios2-elf/lib\libc.a(lib_a-memmove.o)
 .debug_aranges
                0x0000000000000bb0       0x18 c:/intelfpga_pro/18.1/nios2eds/bin/gnu/h-x86_64-mingw32/bin/../lib/gcc/nios2-elf/7.3.1/../../../../../H-x86_64-mingw32/nios2-elf/lib\libc.a(lib_a-month_lengths.o)
 .debug_aranges
                0x0000000000000bc8       0xb0 c:/intelfpga_pro/18.1/nios2eds/bin/gnu/h-x86_64-mingw32/bin/../lib/gcc/nios2-elf/7.3.1/../../../../../H-x86_64-mingw32/nios2-elf/lib\libc.a(lib_a-mprec.o)
 .debug_aranges
                0x0000000000000c78       0x28 c:/intelfpga_pro/18.1/nios2eds/bin/gnu/h-x86_64-mingw32/bin/../lib/gcc/nios2-elf/7.3.1/../../../../../H-x86_64-mingw32/nios2-elf/lib\libc.a(lib_a-putc.o)
 .debug_aranges
                0x0000000000000ca0       0x20 c:/intelfpga_pro/18.1/nios2eds/bin/gnu/h-x86_64-mingw32/bin/../lib/gcc/nios2-elf/7.3.1/../../../../../H-x86_64-mingw32/nios2-elf/lib\libc.a(lib_a-reallocr.o)
 .debug_aranges
                0x0000000000000cc0       0x28 c:/intelfpga_pro/18.1/nios2eds/bin/gnu/h-x86_64-mingw32/bin/../lib/gcc/nios2-elf/7.3.1/../../../../../H-x86_64-mingw32/nios2-elf/lib\libc.a(lib_a-refill.o)
 .debug_aranges
                0x0000000000000ce8       0x28 c:/intelfpga_pro/18.1/nios2eds/bin/gnu/h-x86_64-mingw32/bin/../lib/gcc/nios2-elf/7.3.1/../../../../../H-x86_64-mingw32/nios2-elf/lib\libc.a(lib_a-siscanf.o)
 .debug_aranges
                0x0000000000000d10       0x40 c:/intelfpga_pro/18.1/nios2eds/bin/gnu/h-x86_64-mingw32/bin/../lib/gcc/nios2-elf/7.3.1/../../../../../H-x86_64-mingw32/nios2-elf/lib\libc.a(lib_a-stdio.o)
 .debug_aranges
                0x0000000000000d50       0x20 c:/intelfpga_pro/18.1/nios2eds/bin/gnu/h-x86_64-mingw32/bin/../lib/gcc/nios2-elf/7.3.1/../../../../../H-x86_64-mingw32/nios2-elf/lib\libc.a(lib_a-strncmp.o)
 .debug_aranges
                0x0000000000000d70       0x38 c:/intelfpga_pro/18.1/nios2eds/bin/gnu/h-x86_64-mingw32/bin/../lib/gcc/nios2-elf/7.3.1/../../../../../H-x86_64-mingw32/nios2-elf/lib\libc.a(lib_a-strtoul.o)
 .debug_aranges
                0x0000000000000da8       0x28 c:/intelfpga_pro/18.1/nios2eds/bin/gnu/h-x86_64-mingw32/bin/../lib/gcc/nios2-elf/7.3.1/../../../../../H-x86_64-mingw32/nios2-elf/lib\libc.a(lib_a-svfiprintf.o)
 .debug_aranges
                0x0000000000000dd0       0x38 c:/intelfpga_pro/18.1/nios2eds/bin/gnu/h-x86_64-mingw32/bin/../lib/gcc/nios2-elf/7.3.1/../../../../../H-x86_64-mingw32/nios2-elf/lib\libc.a(lib_a-svfiscanf.o)
 .debug_aranges
                0x0000000000000e08       0x30 c:/intelfpga_pro/18.1/nios2eds/bin/gnu/h-x86_64-mingw32/bin/../lib/gcc/nios2-elf/7.3.1/../../../../../H-x86_64-mingw32/nios2-elf/lib\libc.a(lib_a-ungetc.o)
 .debug_aranges
                0x0000000000000e38       0x40 c:/intelfpga_pro/18.1/nios2eds/bin/gnu/h-x86_64-mingw32/bin/../lib/gcc/nios2-elf/7.3.1/../../../../../H-x86_64-mingw32/nios2-elf/lib\libc.a(lib_a-vfiprintf.o)
 .debug_aranges
                0x0000000000000e78       0x28 c:/intelfpga_pro/18.1/nios2eds/bin/gnu/h-x86_64-mingw32/bin/../lib/gcc/nios2-elf/7.3.1/../../../../../H-x86_64-mingw32/nios2-elf/lib\libc.a(lib_a-wbuf.o)
 .debug_aranges
                0x0000000000000ea0       0x20 c:/intelfpga_pro/18.1/nios2eds/bin/gnu/h-x86_64-mingw32/bin/../lib/gcc/nios2-elf/7.3.1/../../../../../H-x86_64-mingw32/nios2-elf/lib\libc.a(lib_a-writer.o)
 .debug_aranges
                0x0000000000000ec0       0x20 c:/intelfpga_pro/18.1/nios2eds/bin/gnu/h-x86_64-mingw32/bin/../lib/gcc/nios2-elf/7.3.1/../../../../../H-x86_64-mingw32/nios2-elf/lib\libc.a(closer.o)
 .debug_aranges
                0x0000000000000ee0       0x18 c:/intelfpga_pro/18.1/nios2eds/bin/gnu/h-x86_64-mingw32/bin/../lib/gcc/nios2-elf/7.3.1/../../../../../H-x86_64-mingw32/nios2-elf/lib\libc.a(lib_a-environ.o)
 .debug_aranges
                0x0000000000000ef8       0x28 c:/intelfpga_pro/18.1/nios2eds/bin/gnu/h-x86_64-mingw32/bin/../lib/gcc/nios2-elf/7.3.1/../../../../../H-x86_64-mingw32/nios2-elf/lib\libc.a(lib_a-fclose.o)
 .debug_aranges
                0x0000000000000f20       0x30 c:/intelfpga_pro/18.1/nios2eds/bin/gnu/h-x86_64-mingw32/bin/../lib/gcc/nios2-elf/7.3.1/../../../../../H-x86_64-mingw32/nios2-elf/lib\libc.a(lib_a-fputwc.o)
 .debug_aranges
                0x0000000000000f50       0x20 c:/intelfpga_pro/18.1/nios2eds/bin/gnu/h-x86_64-mingw32/bin/../lib/gcc/nios2-elf/7.3.1/../../../../../H-x86_64-mingw32/nios2-elf/lib\libc.a(lib_a-fstatr.o)
 .debug_aranges
                0x0000000000000f70       0x20 c:/intelfpga_pro/18.1/nios2eds/bin/gnu/h-x86_64-mingw32/bin/../lib/gcc/nios2-elf/7.3.1/../../../../../H-x86_64-mingw32/nios2-elf/lib\libc.a(lib_a-isattyr.o)
 .debug_aranges
                0x0000000000000f90       0x20 c:/intelfpga_pro/18.1/nios2eds/bin/gnu/h-x86_64-mingw32/bin/../lib/gcc/nios2-elf/7.3.1/../../../../../H-x86_64-mingw32/nios2-elf/lib\libc.a(lib_a-iswspace.o)
 .debug_aranges
                0x0000000000000fb0       0x20 c:/intelfpga_pro/18.1/nios2eds/bin/gnu/h-x86_64-mingw32/bin/../lib/gcc/nios2-elf/7.3.1/../../../../../H-x86_64-mingw32/nios2-elf/lib\libc.a(lib_a-lseekr.o)
 .debug_aranges
                0x0000000000000fd0       0x28 c:/intelfpga_pro/18.1/nios2eds/bin/gnu/h-x86_64-mingw32/bin/../lib/gcc/nios2-elf/7.3.1/../../../../../H-x86_64-mingw32/nios2-elf/lib\libc.a(lib_a-mbrtowc.o)
 .debug_aranges
                0x0000000000000ff8       0x20 c:/intelfpga_pro/18.1/nios2eds/bin/gnu/h-x86_64-mingw32/bin/../lib/gcc/nios2-elf/7.3.1/../../../../../H-x86_64-mingw32/nios2-elf/lib\libc.a(lib_a-readr.o)
 .debug_aranges
                0x0000000000001018       0x20 c:/intelfpga_pro/18.1/nios2eds/bin/gnu/h-x86_64-mingw32/bin/../lib/gcc/nios2-elf/7.3.1/../../../../../H-x86_64-mingw32/nios2-elf/lib\libc.a(lib_a-sccl.o)
 .debug_aranges
                0x0000000000001038       0x38 c:/intelfpga_pro/18.1/nios2eds/bin/gnu/h-x86_64-mingw32/bin/../lib/gcc/nios2-elf/7.3.1/../../../../../H-x86_64-mingw32/nios2-elf/lib\libc.a(lib_a-strtol.o)
 .debug_aranges
                0x0000000000001070       0x38 c:/intelfpga_pro/18.1/nios2eds/bin/gnu/h-x86_64-mingw32/bin/../lib/gcc/nios2-elf/7.3.1/../../../../../H-x86_64-mingw32/nios2-elf/lib\libc.a(lib_a-strtoll.o)
 .debug_aranges
                0x00000000000010a8       0x38 c:/intelfpga_pro/18.1/nios2eds/bin/gnu/h-x86_64-mingw32/bin/../lib/gcc/nios2-elf/7.3.1/../../../../../H-x86_64-mingw32/nios2-elf/lib\libc.a(lib_a-strtoull.o)
 .debug_aranges
                0x00000000000010e0       0x28 c:/intelfpga_pro/18.1/nios2eds/bin/gnu/h-x86_64-mingw32/bin/../lib/gcc/nios2-elf/7.3.1/../../../../../H-x86_64-mingw32/nios2-elf/lib\libc.a(lib_a-wcrtomb.o)
 .debug_aranges
                0x0000000000001108       0x20 c:/intelfpga_pro/18.1/nios2eds/bin/gnu/h-x86_64-mingw32/bin/../lib/gcc/nios2-elf/7.3.1\libgcc.a(eqdf2.o)
 .debug_aranges
                0x0000000000001128       0x20 c:/intelfpga_pro/18.1/nios2eds/bin/gnu/h-x86_64-mingw32/bin/../lib/gcc/nios2-elf/7.3.1\libgcc.a(ledf2.o)
 .debug_aranges
                0x0000000000001148       0x20 c:/intelfpga_pro/18.1/nios2eds/bin/gnu/h-x86_64-mingw32/bin/../lib/gcc/nios2-elf/7.3.1\libgcc.a(unorddf2.o)
 .debug_aranges
                0x0000000000001168       0x20 c:/intelfpga_pro/18.1/nios2eds/bin/gnu/h-x86_64-mingw32/bin/../lib/gcc/nios2-elf/7.3.1\libgcc.a(floatsidf.o)
 .debug_aranges
                0x0000000000001188       0x20 C:/Git/ArrowESC/Cyclone10GX_Rev2_Demo/software/C10GX_SoM_Rev2_Demo_bsp/\libhal_bsp.a(alt_close.o)
 .debug_aranges
                0x00000000000011a8       0x20 C:/Git/ArrowESC/Cyclone10GX_Rev2_Demo/software/C10GX_SoM_Rev2_Demo_bsp/\libhal_bsp.a(alt_dcache_flush.o)
 .debug_aranges
                0x00000000000011c8       0x20 C:/Git/ArrowESC/Cyclone10GX_Rev2_Demo/software/C10GX_SoM_Rev2_Demo_bsp/\libhal_bsp.a(alt_dev.o)
 .debug_aranges
                0x00000000000011e8       0x20 C:/Git/ArrowESC/Cyclone10GX_Rev2_Demo/software/C10GX_SoM_Rev2_Demo_bsp/\libhal_bsp.a(alt_dev_llist_insert.o)
 .debug_aranges
                0x0000000000001208       0x20 C:/Git/ArrowESC/Cyclone10GX_Rev2_Demo/software/C10GX_SoM_Rev2_Demo_bsp/\libhal_bsp.a(alt_env_lock.o)
 .debug_aranges
                0x0000000000001228       0x18 C:/Git/ArrowESC/Cyclone10GX_Rev2_Demo/software/C10GX_SoM_Rev2_Demo_bsp/\libhal_bsp.a(alt_errno.o)
 .debug_aranges
                0x0000000000001240       0x20 C:/Git/ArrowESC/Cyclone10GX_Rev2_Demo/software/C10GX_SoM_Rev2_Demo_bsp/\libhal_bsp.a(alt_fstat.o)
 .debug_aranges
                0x0000000000001260       0x20 C:/Git/ArrowESC/Cyclone10GX_Rev2_Demo/software/C10GX_SoM_Rev2_Demo_bsp/\libhal_bsp.a(alt_icache_flush_all.o)
 .debug_aranges
                0x0000000000001280       0x20 C:/Git/ArrowESC/Cyclone10GX_Rev2_Demo/software/C10GX_SoM_Rev2_Demo_bsp/\libhal_bsp.a(alt_iic.o)
 .debug_aranges
                0x00000000000012a0       0x20 C:/Git/ArrowESC/Cyclone10GX_Rev2_Demo/software/C10GX_SoM_Rev2_Demo_bsp/\libhal_bsp.a(alt_iic_isr_register.o)
 .debug_aranges
                0x00000000000012c0       0x20 C:/Git/ArrowESC/Cyclone10GX_Rev2_Demo/software/C10GX_SoM_Rev2_Demo_bsp/\libhal_bsp.a(alt_instruction_exception_register.o)
 .debug_aranges
                0x00000000000012e0       0x30 C:/Git/ArrowESC/Cyclone10GX_Rev2_Demo/software/C10GX_SoM_Rev2_Demo_bsp/\libhal_bsp.a(alt_irq_entry.o)
 .debug_aranges
                0x0000000000001310       0x20 C:/Git/ArrowESC/Cyclone10GX_Rev2_Demo/software/C10GX_SoM_Rev2_Demo_bsp/\libhal_bsp.a(alt_irq_handler.o)
 .debug_aranges
                0x0000000000001330       0x18 C:/Git/ArrowESC/Cyclone10GX_Rev2_Demo/software/C10GX_SoM_Rev2_Demo_bsp/\libhal_bsp.a(alt_irq_vars.o)
 .debug_aranges
                0x0000000000001348       0x20 C:/Git/ArrowESC/Cyclone10GX_Rev2_Demo/software/C10GX_SoM_Rev2_Demo_bsp/\libhal_bsp.a(alt_isatty.o)
 .debug_aranges
                0x0000000000001368       0x20 C:/Git/ArrowESC/Cyclone10GX_Rev2_Demo/software/C10GX_SoM_Rev2_Demo_bsp/\libhal_bsp.a(alt_load.o)
 .debug_aranges
                0x0000000000001388       0x20 C:/Git/ArrowESC/Cyclone10GX_Rev2_Demo/software/C10GX_SoM_Rev2_Demo_bsp/\libhal_bsp.a(alt_lseek.o)
 .debug_aranges
                0x00000000000013a8       0x20 C:/Git/ArrowESC/Cyclone10GX_Rev2_Demo/software/C10GX_SoM_Rev2_Demo_bsp/\libhal_bsp.a(alt_main.o)
 .debug_aranges
                0x00000000000013c8       0x20 C:/Git/ArrowESC/Cyclone10GX_Rev2_Demo/software/C10GX_SoM_Rev2_Demo_bsp/\libhal_bsp.a(alt_malloc_lock.o)
 .debug_aranges
                0x00000000000013e8       0x20 C:/Git/ArrowESC/Cyclone10GX_Rev2_Demo/software/C10GX_SoM_Rev2_Demo_bsp/\libhal_bsp.a(alt_printf.o)
 .debug_aranges
                0x0000000000001408       0x20 C:/Git/ArrowESC/Cyclone10GX_Rev2_Demo/software/C10GX_SoM_Rev2_Demo_bsp/\libhal_bsp.a(alt_putchar.o)
 .debug_aranges
                0x0000000000001428       0x20 C:/Git/ArrowESC/Cyclone10GX_Rev2_Demo/software/C10GX_SoM_Rev2_Demo_bsp/\libhal_bsp.a(alt_read.o)
 .debug_aranges
                0x0000000000001448       0x20 C:/Git/ArrowESC/Cyclone10GX_Rev2_Demo/software/C10GX_SoM_Rev2_Demo_bsp/\libhal_bsp.a(alt_release_fd.o)
 .debug_aranges
                0x0000000000001468       0x20 C:/Git/ArrowESC/Cyclone10GX_Rev2_Demo/software/C10GX_SoM_Rev2_Demo_bsp/\libhal_bsp.a(alt_sbrk.o)
 .debug_aranges
                0x0000000000001488       0x20 C:/Git/ArrowESC/Cyclone10GX_Rev2_Demo/software/C10GX_SoM_Rev2_Demo_bsp/\libhal_bsp.a(alt_usleep.o)
 .debug_aranges
                0x00000000000014a8       0x20 C:/Git/ArrowESC/Cyclone10GX_Rev2_Demo/software/C10GX_SoM_Rev2_Demo_bsp/\libhal_bsp.a(alt_write.o)
 .debug_aranges
                0x00000000000014c8       0x20 C:/Git/ArrowESC/Cyclone10GX_Rev2_Demo/software/C10GX_SoM_Rev2_Demo_bsp/\libhal_bsp.a(alt_sys_init.o)
 .debug_aranges
                0x00000000000014e8       0x20 C:/Git/ArrowESC/Cyclone10GX_Rev2_Demo/software/C10GX_SoM_Rev2_Demo_bsp/\libhal_bsp.a(altera_avalon_i2c.o)
 .debug_aranges
                0x0000000000001508       0x20 C:/Git/ArrowESC/Cyclone10GX_Rev2_Demo/software/C10GX_SoM_Rev2_Demo_bsp/\libhal_bsp.a(altera_avalon_jtag_uart_fd.o)
 .debug_aranges
                0x0000000000001528       0x20 C:/Git/ArrowESC/Cyclone10GX_Rev2_Demo/software/C10GX_SoM_Rev2_Demo_bsp/\libhal_bsp.a(altera_avalon_jtag_uart_init.o)
 .debug_aranges
                0x0000000000001548       0x20 C:/Git/ArrowESC/Cyclone10GX_Rev2_Demo/software/C10GX_SoM_Rev2_Demo_bsp/\libhal_bsp.a(altera_avalon_jtag_uart_ioctl.o)
 .debug_aranges
                0x0000000000001568       0x20 C:/Git/ArrowESC/Cyclone10GX_Rev2_Demo/software/C10GX_SoM_Rev2_Demo_bsp/\libhal_bsp.a(altera_avalon_jtag_uart_read.o)
 .debug_aranges
                0x0000000000001588       0x20 C:/Git/ArrowESC/Cyclone10GX_Rev2_Demo/software/C10GX_SoM_Rev2_Demo_bsp/\libhal_bsp.a(altera_avalon_jtag_uart_write.o)
 .debug_aranges
                0x00000000000015a8       0x20 C:/Git/ArrowESC/Cyclone10GX_Rev2_Demo/software/C10GX_SoM_Rev2_Demo_bsp/\libhal_bsp.a(altera_avalon_timer_sc.o)
 .debug_aranges
                0x00000000000015c8       0x20 C:/Git/ArrowESC/Cyclone10GX_Rev2_Demo/software/C10GX_SoM_Rev2_Demo_bsp/\libhal_bsp.a(altera_avalon_timer_ts.o)
 .debug_aranges
                0x00000000000015e8       0x18 C:/Git/ArrowESC/Cyclone10GX_Rev2_Demo/software/C10GX_SoM_Rev2_Demo_bsp/\libhal_bsp.a(altera_avalon_timer_vars.o)
 .debug_aranges
                0x0000000000001600       0x20 C:/Git/ArrowESC/Cyclone10GX_Rev2_Demo/software/C10GX_SoM_Rev2_Demo_bsp/\libhal_bsp.a(altera_avalon_tse.o)
 .debug_aranges
                0x0000000000001620       0x18 C:/Git/ArrowESC/Cyclone10GX_Rev2_Demo/software/C10GX_SoM_Rev2_Demo_bsp/\libhal_bsp.a(altera_avalon_tse_system_info.o)
 .debug_aranges
                0x0000000000001638       0x20 C:/Git/ArrowESC/Cyclone10GX_Rev2_Demo/software/C10GX_SoM_Rev2_Demo_bsp/\libhal_bsp.a(altera_generic_quad_spi_controller2.o)
 .debug_aranges
                0x0000000000001658       0x20 C:/Git/ArrowESC/Cyclone10GX_Rev2_Demo/software/C10GX_SoM_Rev2_Demo_bsp/\libhal_bsp.a(altera_msgdma.o)
 .debug_aranges
                0x0000000000001678       0x20 C:/Git/ArrowESC/Cyclone10GX_Rev2_Demo/software/C10GX_SoM_Rev2_Demo_bsp/\libhal_bsp.a(alt_alarm_start.o)
 .debug_aranges
                0x0000000000001698       0x20 C:/Git/ArrowESC/Cyclone10GX_Rev2_Demo/software/C10GX_SoM_Rev2_Demo_bsp/\libhal_bsp.a(alt_busy_sleep.o)
 .debug_aranges
                0x00000000000016b8       0x20 C:/Git/ArrowESC/Cyclone10GX_Rev2_Demo/software/C10GX_SoM_Rev2_Demo_bsp/\libhal_bsp.a(alt_dcache_flush_all.o)
 .debug_aranges
                0x00000000000016d8       0x20 C:/Git/ArrowESC/Cyclone10GX_Rev2_Demo/software/C10GX_SoM_Rev2_Demo_bsp/\libhal_bsp.a(alt_do_ctors.o)
 .debug_aranges
                0x00000000000016f8       0x20 C:/Git/ArrowESC/Cyclone10GX_Rev2_Demo/software/C10GX_SoM_Rev2_Demo_bsp/\libhal_bsp.a(alt_do_dtors.o)
 .debug_aranges
                0x0000000000001718       0x38 C:/Git/ArrowESC/Cyclone10GX_Rev2_Demo/software/C10GX_SoM_Rev2_Demo_bsp/\libhal_bsp.a(alt_exception_entry.o)
 .debug_aranges
                0x0000000000001750       0x20 C:/Git/ArrowESC/Cyclone10GX_Rev2_Demo/software/C10GX_SoM_Rev2_Demo_bsp/\libhal_bsp.a(alt_find_dev.o)
 .debug_aranges
                0x0000000000001770       0x20 C:/Git/ArrowESC/Cyclone10GX_Rev2_Demo/software/C10GX_SoM_Rev2_Demo_bsp/\libhal_bsp.a(alt_flash_dev.o)
 .debug_aranges
                0x0000000000001790       0x20 C:/Git/ArrowESC/Cyclone10GX_Rev2_Demo/software/C10GX_SoM_Rev2_Demo_bsp/\libhal_bsp.a(alt_icache_flush.o)
 .debug_aranges
                0x00000000000017b0       0x28 C:/Git/ArrowESC/Cyclone10GX_Rev2_Demo/software/C10GX_SoM_Rev2_Demo_bsp/\libhal_bsp.a(alt_instruction_exception_entry.o)
 .debug_aranges
                0x00000000000017d8       0x20 C:/Git/ArrowESC/Cyclone10GX_Rev2_Demo/software/C10GX_SoM_Rev2_Demo_bsp/\libhal_bsp.a(alt_io_redirect.o)
 .debug_aranges
                0x00000000000017f8       0x20 C:/Git/ArrowESC/Cyclone10GX_Rev2_Demo/software/C10GX_SoM_Rev2_Demo_bsp/\libhal_bsp.a(alt_open.o)
 .debug_aranges
                0x0000000000001818       0x20 C:/Git/ArrowESC/Cyclone10GX_Rev2_Demo/software/C10GX_SoM_Rev2_Demo_bsp/\libhal_bsp.a(alt_tick.o)
 .debug_aranges
                0x0000000000001838       0x20 C:/Git/ArrowESC/Cyclone10GX_Rev2_Demo/software/C10GX_SoM_Rev2_Demo_bsp/\libhal_bsp.a(altera_nios2_gen2_irq.o)
 .debug_aranges
                0x0000000000001858       0x20 C:/Git/ArrowESC/Cyclone10GX_Rev2_Demo/software/C10GX_SoM_Rev2_Demo_bsp/\libhal_bsp.a(alt_find_file.o)
 .debug_aranges
                0x0000000000001878       0x20 C:/Git/ArrowESC/Cyclone10GX_Rev2_Demo/software/C10GX_SoM_Rev2_Demo_bsp/\libhal_bsp.a(alt_get_fd.o)
 .debug_aranges
                0x0000000000001898       0x20 c:/intelfpga_pro/18.1/nios2eds/bin/gnu/h-x86_64-mingw32/bin/../lib/gcc/nios2-elf/7.3.1/../../../../../H-x86_64-mingw32/nios2-elf/lib\libc.a(lib_a-atexit.o)
 .debug_aranges
                0x00000000000018b8       0x20 c:/intelfpga_pro/18.1/nios2eds/bin/gnu/h-x86_64-mingw32/bin/../lib/gcc/nios2-elf/7.3.1/../../../../../H-x86_64-mingw32/nios2-elf/lib\libc.a(lib_a-exit.o)
 .debug_aranges
                0x00000000000018d8       0x20 c:/intelfpga_pro/18.1/nios2eds/bin/gnu/h-x86_64-mingw32/bin/../lib/gcc/nios2-elf/7.3.1/../../../../../H-x86_64-mingw32/nios2-elf/lib\libc.a(lib_a-__atexit.o)
 .debug_aranges
                0x00000000000018f8       0x20 c:/intelfpga_pro/18.1/nios2eds/bin/gnu/h-x86_64-mingw32/bin/../lib/gcc/nios2-elf/7.3.1/../../../../../H-x86_64-mingw32/nios2-elf/lib\libc.a(lib_a-__call_atexit.o)
 .debug_aranges
                0x0000000000001918       0x20 C:/Git/ArrowESC/Cyclone10GX_Rev2_Demo/software/C10GX_SoM_Rev2_Demo_bsp/\libhal_bsp.a(alt_exit.o)

.debug_pubnames
 *(.debug_pubnames)

.debug_info     0x0000000000000000    0x7dcd2
 *(.debug_info .gnu.linkonce.wi.*)
 .debug_info    0x0000000000000000       0x22 C:/Git/ArrowESC/Cyclone10GX_Rev2_Demo/software/C10GX_SoM_Rev2_Demo_bsp//obj/HAL/src/crt0.o
 .debug_info    0x0000000000000022      0x12c obj/default/crc.o
 .debug_info    0x000000000000014e     0x2a9d obj/default/ethernet.o
 .debug_info    0x0000000000002beb     0x11fa obj/default/fmc/ad9144/ad9144.o
 .debug_info    0x0000000000003de5     0x1179 obj/default/fmc/ad9523/ad9523.o
 .debug_info    0x0000000000004f5e      0xc83 obj/default/fmc/ad9680/ad9680.o
 .debug_info    0x0000000000005be1      0xe2a obj/default/fmc/common_drivers/adc_core/adc_core.o
 .debug_info    0x0000000000006a0b      0x1dc obj/default/fmc/common_drivers/communication/generic/Communication.o
 .debug_info    0x0000000000006be7      0xac7 obj/default/fmc/common_drivers/dac_buffer/dac_buffer.o
 .debug_info    0x00000000000076ae      0xd3b obj/default/fmc/common_drivers/dac_core/dac_core.o
 .debug_info    0x00000000000083e9      0xa8a obj/default/fmc/common_drivers/dmac_core/dmac_core.o
 .debug_info    0x0000000000008e73     0x1018 obj/default/fmc/common_drivers/fru_tools/fru_tools.o
 .debug_info    0x0000000000009e8b      0xd74 obj/default/fmc/common_drivers/jesd_core/jesd_core.o
 .debug_info    0x000000000000abff     0x1133 obj/default/fmc/common_drivers/platform_drivers/platform_drivers.o
 .debug_info    0x000000000000bd32      0xc9a obj/default/fmc/common_drivers/xcvr_core/xcvr_core.o
 .debug_info    0x000000000000c9cc      0xdef obj/default/fmc/common_drivers/xcvr_core/xcvr_modules/altera_a10_atx_pll.o
 .debug_info    0x000000000000d7bb      0xcbe obj/default/fmc/common_drivers/xcvr_core/xcvr_modules/altera_a10_fpll.o
 .debug_info    0x000000000000e479      0xf29 obj/default/fmc/common_drivers/xcvr_core/xcvr_modules/altera_a10_xcvr_channel.o
 .debug_info    0x000000000000f3a2      0xc98 obj/default/fmc/common_drivers/xcvr_core/xcvr_modules/altera_pll_common.o
 .debug_info    0x000000000001003a      0x8de obj/default/fmc/common_drivers/xcvr_core/xcvr_modules/xilinx_qpll.o
 .debug_info    0x0000000000010918      0x8de obj/default/fmc/common_drivers/xcvr_core/xcvr_modules/xilinx_xcvr_channel.o
 .debug_info    0x00000000000111f6      0xd5b obj/default/iioscope.o
 .debug_info    0x0000000000011f51     0x18fc obj/default/jesd204b.o
 .debug_info    0x000000000001384d      0xa8a obj/default/main.o
 .debug_info    0x00000000000142d7       0xc0 obj/default/support.o
 .debug_info    0x0000000000014397      0x2c6 c:/intelfpga_pro/18.1/nios2eds/bin/gnu/h-x86_64-mingw32/bin/../lib/gcc/nios2-elf/7.3.1\libgcc.a(_muldi3.o)
 .debug_info    0x000000000001465d      0x198 c:/intelfpga_pro/18.1/nios2eds/bin/gnu/h-x86_64-mingw32/bin/../lib/gcc/nios2-elf/7.3.1\libgcc.a(_bswapsi2.o)
 .debug_info    0x00000000000147f5      0x1ae c:/intelfpga_pro/18.1/nios2eds/bin/gnu/h-x86_64-mingw32/bin/../lib/gcc/nios2-elf/7.3.1\libgcc.a(_fixunsdfsi.o)
 .debug_info    0x00000000000149a3      0x1cd c:/intelfpga_pro/18.1/nios2eds/bin/gnu/h-x86_64-mingw32/bin/../lib/gcc/nios2-elf/7.3.1\libgcc.a(_fixunsdfdi.o)
 .debug_info    0x0000000000014b70      0x7e7 c:/intelfpga_pro/18.1/nios2eds/bin/gnu/h-x86_64-mingw32/bin/../lib/gcc/nios2-elf/7.3.1\libgcc.a(_udivdi3.o)
 .debug_info    0x0000000000015357      0x84a c:/intelfpga_pro/18.1/nios2eds/bin/gnu/h-x86_64-mingw32/bin/../lib/gcc/nios2-elf/7.3.1\libgcc.a(_umoddi3.o)
 .debug_info    0x0000000000015ba1      0x2c7 c:/intelfpga_pro/18.1/nios2eds/bin/gnu/h-x86_64-mingw32/bin/../lib/gcc/nios2-elf/7.3.1\libgcc.a(lib2-divmod.o)
 .debug_info    0x0000000000015e68      0x56d c:/intelfpga_pro/18.1/nios2eds/bin/gnu/h-x86_64-mingw32/bin/../lib/gcc/nios2-elf/7.3.1\libgcc.a(adddf3.o)
 .debug_info    0x00000000000163d5      0x6d3 c:/intelfpga_pro/18.1/nios2eds/bin/gnu/h-x86_64-mingw32/bin/../lib/gcc/nios2-elf/7.3.1\libgcc.a(divdf3.o)
 .debug_info    0x0000000000016aa8      0x253 c:/intelfpga_pro/18.1/nios2eds/bin/gnu/h-x86_64-mingw32/bin/../lib/gcc/nios2-elf/7.3.1\libgcc.a(gedf2.o)
 .debug_info    0x0000000000016cfb      0x6fe c:/intelfpga_pro/18.1/nios2eds/bin/gnu/h-x86_64-mingw32/bin/../lib/gcc/nios2-elf/7.3.1\libgcc.a(muldf3.o)
 .debug_info    0x00000000000173f9      0x56d c:/intelfpga_pro/18.1/nios2eds/bin/gnu/h-x86_64-mingw32/bin/../lib/gcc/nios2-elf/7.3.1\libgcc.a(subdf3.o)
 .debug_info    0x0000000000017966      0x1eb c:/intelfpga_pro/18.1/nios2eds/bin/gnu/h-x86_64-mingw32/bin/../lib/gcc/nios2-elf/7.3.1\libgcc.a(fixdfsi.o)
 .debug_info    0x0000000000017b51      0x297 c:/intelfpga_pro/18.1/nios2eds/bin/gnu/h-x86_64-mingw32/bin/../lib/gcc/nios2-elf/7.3.1\libgcc.a(floatunsidf.o)
 .debug_info    0x0000000000017de8      0x27d c:/intelfpga_pro/18.1/nios2eds/bin/gnu/h-x86_64-mingw32/bin/../lib/gcc/nios2-elf/7.3.1\libgcc.a(extendsfdf2.o)
 .debug_info    0x0000000000018065      0x16e c:/intelfpga_pro/18.1/nios2eds/bin/gnu/h-x86_64-mingw32/bin/../lib/gcc/nios2-elf/7.3.1\libgcc.a(_clz.o)
 .debug_info    0x00000000000181d3      0x1d1 c:/intelfpga_pro/18.1/nios2eds/bin/gnu/h-x86_64-mingw32/bin/../lib/gcc/nios2-elf/7.3.1\libgcc.a(_clzsi2.o)
 .debug_info    0x00000000000183a4      0x903 c:/intelfpga_pro/18.1/nios2eds/bin/gnu/h-x86_64-mingw32/bin/../lib/gcc/nios2-elf/7.3.1/../../../../../H-x86_64-mingw32/nios2-elf/lib\libc.a(lib_a-calloc.o)
 .debug_info    0x0000000000018ca7      0xb6c c:/intelfpga_pro/18.1/nios2eds/bin/gnu/h-x86_64-mingw32/bin/../lib/gcc/nios2-elf/7.3.1/../../../../../H-x86_64-mingw32/nios2-elf/lib\libc.a(lib_a-callocr.o)
 .debug_info    0x0000000000019813      0xb97 c:/intelfpga_pro/18.1/nios2eds/bin/gnu/h-x86_64-mingw32/bin/../lib/gcc/nios2-elf/7.3.1/../../../../../H-x86_64-mingw32/nios2-elf/lib\libc.a(lib_a-getc.o)
 .debug_info    0x000000000001a3aa      0x8b2 c:/intelfpga_pro/18.1/nios2eds/bin/gnu/h-x86_64-mingw32/bin/../lib/gcc/nios2-elf/7.3.1/../../../../../H-x86_64-mingw32/nios2-elf/lib\libc.a(lib_a-impure.o)
 .debug_info    0x000000000001ac5c     0x102e c:/intelfpga_pro/18.1/nios2eds/bin/gnu/h-x86_64-mingw32/bin/../lib/gcc/nios2-elf/7.3.1/../../../../../H-x86_64-mingw32/nios2-elf/lib\libc.a(lib_a-locale.o)
 .debug_info    0x000000000001bc8a      0x92f c:/intelfpga_pro/18.1/nios2eds/bin/gnu/h-x86_64-mingw32/bin/../lib/gcc/nios2-elf/7.3.1/../../../../../H-x86_64-mingw32/nios2-elf/lib\libc.a(lib_a-malloc.o)
 .debug_info    0x000000000001c5b9      0xde9 c:/intelfpga_pro/18.1/nios2eds/bin/gnu/h-x86_64-mingw32/bin/../lib/gcc/nios2-elf/7.3.1/../../../../../H-x86_64-mingw32/nios2-elf/lib\libc.a(lib_a-mallocr.o)
 .debug_info    0x000000000001d3a2      0xf17 c:/intelfpga_pro/18.1/nios2eds/bin/gnu/h-x86_64-mingw32/bin/../lib/gcc/nios2-elf/7.3.1/../../../../../H-x86_64-mingw32/nios2-elf/lib\libc.a(lib_a-mbtowc_r.o)
 .debug_info    0x000000000001e2b9      0x943 c:/intelfpga_pro/18.1/nios2eds/bin/gnu/h-x86_64-mingw32/bin/../lib/gcc/nios2-elf/7.3.1/../../../../../H-x86_64-mingw32/nios2-elf/lib\libc.a(lib_a-memcpy.o)
 .debug_info    0x000000000001ebfc      0xe2e c:/intelfpga_pro/18.1/nios2eds/bin/gnu/h-x86_64-mingw32/bin/../lib/gcc/nios2-elf/7.3.1/../../../../../H-x86_64-mingw32/nios2-elf/lib\libc.a(lib_a-memset.o)
 .debug_info    0x000000000001fa2a      0xccd c:/intelfpga_pro/18.1/nios2eds/bin/gnu/h-x86_64-mingw32/bin/../lib/gcc/nios2-elf/7.3.1/../../../../../H-x86_64-mingw32/nios2-elf/lib\libc.a(lib_a-mktime.o)
 .debug_info    0x00000000000206f7      0xb86 c:/intelfpga_pro/18.1/nios2eds/bin/gnu/h-x86_64-mingw32/bin/../lib/gcc/nios2-elf/7.3.1/../../../../../H-x86_64-mingw32/nios2-elf/lib\libc.a(lib_a-printf.o)
 .debug_info    0x000000000002127d      0xb18 c:/intelfpga_pro/18.1/nios2eds/bin/gnu/h-x86_64-mingw32/bin/../lib/gcc/nios2-elf/7.3.1/../../../../../H-x86_64-mingw32/nios2-elf/lib\libc.a(lib_a-putchar.o)
 .debug_info    0x0000000000021d95      0xc2b c:/intelfpga_pro/18.1/nios2eds/bin/gnu/h-x86_64-mingw32/bin/../lib/gcc/nios2-elf/7.3.1/../../../../../H-x86_64-mingw32/nios2-elf/lib\libc.a(lib_a-puts.o)
 .debug_info    0x00000000000229c0      0xb70 c:/intelfpga_pro/18.1/nios2eds/bin/gnu/h-x86_64-mingw32/bin/../lib/gcc/nios2-elf/7.3.1/../../../../../H-x86_64-mingw32/nios2-elf/lib\libc.a(lib_a-rget.o)
 .debug_info    0x0000000000023530      0x967 c:/intelfpga_pro/18.1/nios2eds/bin/gnu/h-x86_64-mingw32/bin/../lib/gcc/nios2-elf/7.3.1/../../../../../H-x86_64-mingw32/nios2-elf/lib\libc.a(lib_a-sbrkr.o)
 .debug_info    0x0000000000023e97      0xbf5 c:/intelfpga_pro/18.1/nios2eds/bin/gnu/h-x86_64-mingw32/bin/../lib/gcc/nios2-elf/7.3.1/../../../../../H-x86_64-mingw32/nios2-elf/lib\libc.a(lib_a-sprintf.o)
 .debug_info    0x0000000000024a8c      0x8eb c:/intelfpga_pro/18.1/nios2eds/bin/gnu/h-x86_64-mingw32/bin/../lib/gcc/nios2-elf/7.3.1/../../../../../H-x86_64-mingw32/nios2-elf/lib\libc.a(lib_a-strcmp.o)
 .debug_info    0x0000000000025377      0x918 c:/intelfpga_pro/18.1/nios2eds/bin/gnu/h-x86_64-mingw32/bin/../lib/gcc/nios2-elf/7.3.1/../../../../../H-x86_64-mingw32/nios2-elf/lib\libc.a(lib_a-strcpy.o)
 .debug_info    0x0000000000025c8f      0x8eb c:/intelfpga_pro/18.1/nios2eds/bin/gnu/h-x86_64-mingw32/bin/../lib/gcc/nios2-elf/7.3.1/../../../../../H-x86_64-mingw32/nios2-elf/lib\libc.a(lib_a-strlen.o)
 .debug_info    0x000000000002657a     0x1cd2 c:/intelfpga_pro/18.1/nios2eds/bin/gnu/h-x86_64-mingw32/bin/../lib/gcc/nios2-elf/7.3.1/../../../../../H-x86_64-mingw32/nios2-elf/lib\libc.a(lib_a-svfprintf.o)
 .debug_info    0x000000000002824c      0xaa1 c:/intelfpga_pro/18.1/nios2eds/bin/gnu/h-x86_64-mingw32/bin/../lib/gcc/nios2-elf/7.3.1/../../../../../H-x86_64-mingw32/nios2-elf/lib\libc.a(lib_a-tzcalc_limits.o)
 .debug_info    0x0000000000028ced      0x919 c:/intelfpga_pro/18.1/nios2eds/bin/gnu/h-x86_64-mingw32/bin/../lib/gcc/nios2-elf/7.3.1/../../../../../H-x86_64-mingw32/nios2-elf/lib\libc.a(lib_a-tzlock.o)
 .debug_info    0x0000000000029606      0x960 c:/intelfpga_pro/18.1/nios2eds/bin/gnu/h-x86_64-mingw32/bin/../lib/gcc/nios2-elf/7.3.1/../../../../../H-x86_64-mingw32/nios2-elf/lib\libc.a(lib_a-tzset.o)
 .debug_info    0x0000000000029f66      0xdbe c:/intelfpga_pro/18.1/nios2eds/bin/gnu/h-x86_64-mingw32/bin/../lib/gcc/nios2-elf/7.3.1/../../../../../H-x86_64-mingw32/nios2-elf/lib\libc.a(lib_a-tzset_r.o)
 .debug_info    0x000000000002ad24      0x8dd c:/intelfpga_pro/18.1/nios2eds/bin/gnu/h-x86_64-mingw32/bin/../lib/gcc/nios2-elf/7.3.1/../../../../../H-x86_64-mingw32/nios2-elf/lib\libc.a(lib_a-tzvars.o)
 .debug_info    0x000000000002b601     0x1e4e c:/intelfpga_pro/18.1/nios2eds/bin/gnu/h-x86_64-mingw32/bin/../lib/gcc/nios2-elf/7.3.1/../../../../../H-x86_64-mingw32/nios2-elf/lib\libc.a(lib_a-vfprintf.o)
 .debug_info    0x000000000002d44f      0xee5 c:/intelfpga_pro/18.1/nios2eds/bin/gnu/h-x86_64-mingw32/bin/../lib/gcc/nios2-elf/7.3.1/../../../../../H-x86_64-mingw32/nios2-elf/lib\libc.a(lib_a-wctomb_r.o)
 .debug_info    0x000000000002e334      0xb56 c:/intelfpga_pro/18.1/nios2eds/bin/gnu/h-x86_64-mingw32/bin/../lib/gcc/nios2-elf/7.3.1/../../../../../H-x86_64-mingw32/nios2-elf/lib\libc.a(lib_a-wsetup.o)
 .debug_info    0x000000000002ee8a      0xdd7 c:/intelfpga_pro/18.1/nios2eds/bin/gnu/h-x86_64-mingw32/bin/../lib/gcc/nios2-elf/7.3.1/../../../../../H-x86_64-mingw32/nios2-elf/lib\libc.a(lib_a-ctype_.o)
 .debug_info    0x000000000002fc61      0x90b c:/intelfpga_pro/18.1/nios2eds/bin/gnu/h-x86_64-mingw32/bin/../lib/gcc/nios2-elf/7.3.1/../../../../../H-x86_64-mingw32/nios2-elf/lib\libc.a(lib_a-div.o)
 .debug_info    0x000000000003056c     0x1803 c:/intelfpga_pro/18.1/nios2eds/bin/gnu/h-x86_64-mingw32/bin/../lib/gcc/nios2-elf/7.3.1/../../../../../H-x86_64-mingw32/nios2-elf/lib\libc.a(lib_a-dtoa.o)
 .debug_info    0x0000000000031d6f      0xca7 c:/intelfpga_pro/18.1/nios2eds/bin/gnu/h-x86_64-mingw32/bin/../lib/gcc/nios2-elf/7.3.1/../../../../../H-x86_64-mingw32/nios2-elf/lib\libc.a(lib_a-fflush.o)
 .debug_info    0x0000000000032a16     0x100b c:/intelfpga_pro/18.1/nios2eds/bin/gnu/h-x86_64-mingw32/bin/../lib/gcc/nios2-elf/7.3.1/../../../../../H-x86_64-mingw32/nios2-elf/lib\libc.a(lib_a-findfp.o)
 .debug_info    0x0000000000033a21      0xca1 c:/intelfpga_pro/18.1/nios2eds/bin/gnu/h-x86_64-mingw32/bin/../lib/gcc/nios2-elf/7.3.1/../../../../../H-x86_64-mingw32/nios2-elf/lib\libc.a(lib_a-freer.o)
 .debug_info    0x00000000000346c2      0xdea c:/intelfpga_pro/18.1/nios2eds/bin/gnu/h-x86_64-mingw32/bin/../lib/gcc/nios2-elf/7.3.1/../../../../../H-x86_64-mingw32/nios2-elf/lib\libc.a(lib_a-fvwrite.o)
 .debug_info    0x00000000000354ac      0xbdc c:/intelfpga_pro/18.1/nios2eds/bin/gnu/h-x86_64-mingw32/bin/../lib/gcc/nios2-elf/7.3.1/../../../../../H-x86_64-mingw32/nios2-elf/lib\libc.a(lib_a-fwalk.o)
 .debug_info    0x0000000000036088      0xa09 c:/intelfpga_pro/18.1/nios2eds/bin/gnu/h-x86_64-mingw32/bin/../lib/gcc/nios2-elf/7.3.1/../../../../../H-x86_64-mingw32/nios2-elf/lib\libc.a(lib_a-getenv_r.o)
 .debug_info    0x0000000000036a91      0x9d5 c:/intelfpga_pro/18.1/nios2eds/bin/gnu/h-x86_64-mingw32/bin/../lib/gcc/nios2-elf/7.3.1/../../../../../H-x86_64-mingw32/nios2-elf/lib\libc.a(lib_a-gettzinfo.o)
 .debug_info    0x0000000000037466      0x8a7 c:/intelfpga_pro/18.1/nios2eds/bin/gnu/h-x86_64-mingw32/bin/../lib/gcc/nios2-elf/7.3.1/../../../../../H-x86_64-mingw32/nios2-elf/lib\libc.a(lib_a-int_errno.o)
 .debug_info    0x0000000000037d0d      0xe81 c:/intelfpga_pro/18.1/nios2eds/bin/gnu/h-x86_64-mingw32/bin/../lib/gcc/nios2-elf/7.3.1/../../../../../H-x86_64-mingw32/nios2-elf/lib\libc.a(lib_a-localeconv.o)
 .debug_info    0x0000000000038b8e      0xdfe c:/intelfpga_pro/18.1/nios2eds/bin/gnu/h-x86_64-mingw32/bin/../lib/gcc/nios2-elf/7.3.1/../../../../../H-x86_64-mingw32/nios2-elf/lib\libc.a(lib_a-makebuf.o)
 .debug_info    0x000000000003998c      0x942 c:/intelfpga_pro/18.1/nios2eds/bin/gnu/h-x86_64-mingw32/bin/../lib/gcc/nios2-elf/7.3.1/../../../../../H-x86_64-mingw32/nios2-elf/lib\libc.a(lib_a-memchr.o)
 .debug_info    0x000000000003a2ce      0xe3c c:/intelfpga_pro/18.1/nios2eds/bin/gnu/h-x86_64-mingw32/bin/../lib/gcc/nios2-elf/7.3.1/../../../../../H-x86_64-mingw32/nios2-elf/lib\libc.a(lib_a-memmove.o)
 .debug_info    0x000000000003b10a      0x8f4 c:/intelfpga_pro/18.1/nios2eds/bin/gnu/h-x86_64-mingw32/bin/../lib/gcc/nios2-elf/7.3.1/../../../../../H-x86_64-mingw32/nios2-elf/lib\libc.a(lib_a-month_lengths.o)
 .debug_info    0x000000000003b9fe     0x1c45 c:/intelfpga_pro/18.1/nios2eds/bin/gnu/h-x86_64-mingw32/bin/../lib/gcc/nios2-elf/7.3.1/../../../../../H-x86_64-mingw32/nios2-elf/lib\libc.a(lib_a-mprec.o)
 .debug_info    0x000000000003d643      0xba6 c:/intelfpga_pro/18.1/nios2eds/bin/gnu/h-x86_64-mingw32/bin/../lib/gcc/nios2-elf/7.3.1/../../../../../H-x86_64-mingw32/nios2-elf/lib\libc.a(lib_a-putc.o)
 .debug_info    0x000000000003e1e9      0xde6 c:/intelfpga_pro/18.1/nios2eds/bin/gnu/h-x86_64-mingw32/bin/../lib/gcc/nios2-elf/7.3.1/../../../../../H-x86_64-mingw32/nios2-elf/lib\libc.a(lib_a-reallocr.o)
 .debug_info    0x000000000003efcf      0xc28 c:/intelfpga_pro/18.1/nios2eds/bin/gnu/h-x86_64-mingw32/bin/../lib/gcc/nios2-elf/7.3.1/../../../../../H-x86_64-mingw32/nios2-elf/lib\libc.a(lib_a-refill.o)
 .debug_info    0x000000000003fbf7      0xbef c:/intelfpga_pro/18.1/nios2eds/bin/gnu/h-x86_64-mingw32/bin/../lib/gcc/nios2-elf/7.3.1/../../../../../H-x86_64-mingw32/nios2-elf/lib\libc.a(lib_a-siscanf.o)
 .debug_info    0x00000000000407e6      0xd64 c:/intelfpga_pro/18.1/nios2eds/bin/gnu/h-x86_64-mingw32/bin/../lib/gcc/nios2-elf/7.3.1/../../../../../H-x86_64-mingw32/nios2-elf/lib\libc.a(lib_a-stdio.o)
 .debug_info    0x000000000004154a      0x903 c:/intelfpga_pro/18.1/nios2eds/bin/gnu/h-x86_64-mingw32/bin/../lib/gcc/nios2-elf/7.3.1/../../../../../H-x86_64-mingw32/nios2-elf/lib\libc.a(lib_a-strncmp.o)
 .debug_info    0x0000000000041e4d     0x10ca c:/intelfpga_pro/18.1/nios2eds/bin/gnu/h-x86_64-mingw32/bin/../lib/gcc/nios2-elf/7.3.1/../../../../../H-x86_64-mingw32/nios2-elf/lib\libc.a(lib_a-strtoul.o)
 .debug_info    0x0000000000042f17     0x1729 c:/intelfpga_pro/18.1/nios2eds/bin/gnu/h-x86_64-mingw32/bin/../lib/gcc/nios2-elf/7.3.1/../../../../../H-x86_64-mingw32/nios2-elf/lib\libc.a(lib_a-svfiprintf.o)
 .debug_info    0x0000000000044640     0x18a7 c:/intelfpga_pro/18.1/nios2eds/bin/gnu/h-x86_64-mingw32/bin/../lib/gcc/nios2-elf/7.3.1/../../../../../H-x86_64-mingw32/nios2-elf/lib\libc.a(lib_a-svfiscanf.o)
 .debug_info    0x0000000000045ee7      0xc9c c:/intelfpga_pro/18.1/nios2eds/bin/gnu/h-x86_64-mingw32/bin/../lib/gcc/nios2-elf/7.3.1/../../../../../H-x86_64-mingw32/nios2-elf/lib\libc.a(lib_a-ungetc.o)
 .debug_info    0x0000000000046b83     0x1c67 c:/intelfpga_pro/18.1/nios2eds/bin/gnu/h-x86_64-mingw32/bin/../lib/gcc/nios2-elf/7.3.1/../../../../../H-x86_64-mingw32/nios2-elf/lib\libc.a(lib_a-vfiprintf.o)
 .debug_info    0x00000000000487ea      0xbde c:/intelfpga_pro/18.1/nios2eds/bin/gnu/h-x86_64-mingw32/bin/../lib/gcc/nios2-elf/7.3.1/../../../../../H-x86_64-mingw32/nios2-elf/lib\libc.a(lib_a-wbuf.o)
 .debug_info    0x00000000000493c8      0x98f c:/intelfpga_pro/18.1/nios2eds/bin/gnu/h-x86_64-mingw32/bin/../lib/gcc/nios2-elf/7.3.1/../../../../../H-x86_64-mingw32/nios2-elf/lib\libc.a(lib_a-writer.o)
 .debug_info    0x0000000000049d57      0x946 c:/intelfpga_pro/18.1/nios2eds/bin/gnu/h-x86_64-mingw32/bin/../lib/gcc/nios2-elf/7.3.1/../../../../../H-x86_64-mingw32/nios2-elf/lib\libc.a(closer.o)
 .debug_info    0x000000000004a69d       0x6a c:/intelfpga_pro/18.1/nios2eds/bin/gnu/h-x86_64-mingw32/bin/../lib/gcc/nios2-elf/7.3.1/../../../../../H-x86_64-mingw32/nios2-elf/lib\libc.a(lib_a-environ.o)
 .debug_info    0x000000000004a707      0xc1c c:/intelfpga_pro/18.1/nios2eds/bin/gnu/h-x86_64-mingw32/bin/../lib/gcc/nios2-elf/7.3.1/../../../../../H-x86_64-mingw32/nios2-elf/lib\libc.a(lib_a-fclose.o)
 .debug_info    0x000000000004b323      0xd04 c:/intelfpga_pro/18.1/nios2eds/bin/gnu/h-x86_64-mingw32/bin/../lib/gcc/nios2-elf/7.3.1/../../../../../H-x86_64-mingw32/nios2-elf/lib\libc.a(lib_a-fputwc.o)
 .debug_info    0x000000000004c027      0xb58 c:/intelfpga_pro/18.1/nios2eds/bin/gnu/h-x86_64-mingw32/bin/../lib/gcc/nios2-elf/7.3.1/../../../../../H-x86_64-mingw32/nios2-elf/lib\libc.a(lib_a-fstatr.o)
 .debug_info    0x000000000004cb7f      0x946 c:/intelfpga_pro/18.1/nios2eds/bin/gnu/h-x86_64-mingw32/bin/../lib/gcc/nios2-elf/7.3.1/../../../../../H-x86_64-mingw32/nios2-elf/lib\libc.a(lib_a-isattyr.o)
 .debug_info    0x000000000004d4c5      0xdf7 c:/intelfpga_pro/18.1/nios2eds/bin/gnu/h-x86_64-mingw32/bin/../lib/gcc/nios2-elf/7.3.1/../../../../../H-x86_64-mingw32/nios2-elf/lib\libc.a(lib_a-iswspace.o)
 .debug_info    0x000000000004e2bc      0x972 c:/intelfpga_pro/18.1/nios2eds/bin/gnu/h-x86_64-mingw32/bin/../lib/gcc/nios2-elf/7.3.1/../../../../../H-x86_64-mingw32/nios2-elf/lib\libc.a(lib_a-lseekr.o)
 .debug_info    0x000000000004ec2e      0xfe6 c:/intelfpga_pro/18.1/nios2eds/bin/gnu/h-x86_64-mingw32/bin/../lib/gcc/nios2-elf/7.3.1/../../../../../H-x86_64-mingw32/nios2-elf/lib\libc.a(lib_a-mbrtowc.o)
 .debug_info    0x000000000004fc14      0x988 c:/intelfpga_pro/18.1/nios2eds/bin/gnu/h-x86_64-mingw32/bin/../lib/gcc/nios2-elf/7.3.1/../../../../../H-x86_64-mingw32/nios2-elf/lib\libc.a(lib_a-readr.o)
 .debug_info    0x000000000005059c      0xaee c:/intelfpga_pro/18.1/nios2eds/bin/gnu/h-x86_64-mingw32/bin/../lib/gcc/nios2-elf/7.3.1/../../../../../H-x86_64-mingw32/nios2-elf/lib\libc.a(lib_a-sccl.o)
 .debug_info    0x000000000005108a     0x10ca c:/intelfpga_pro/18.1/nios2eds/bin/gnu/h-x86_64-mingw32/bin/../lib/gcc/nios2-elf/7.3.1/../../../../../H-x86_64-mingw32/nios2-elf/lib\libc.a(lib_a-strtol.o)
 .debug_info    0x0000000000052154     0x10cc c:/intelfpga_pro/18.1/nios2eds/bin/gnu/h-x86_64-mingw32/bin/../lib/gcc/nios2-elf/7.3.1/../../../../../H-x86_64-mingw32/nios2-elf/lib\libc.a(lib_a-strtoll.o)
 .debug_info    0x0000000000053220     0x10cc c:/intelfpga_pro/18.1/nios2eds/bin/gnu/h-x86_64-mingw32/bin/../lib/gcc/nios2-elf/7.3.1/../../../../../H-x86_64-mingw32/nios2-elf/lib\libc.a(lib_a-strtoull.o)
 .debug_info    0x00000000000542ec      0xfd5 c:/intelfpga_pro/18.1/nios2eds/bin/gnu/h-x86_64-mingw32/bin/../lib/gcc/nios2-elf/7.3.1/../../../../../H-x86_64-mingw32/nios2-elf/lib\libc.a(lib_a-wcrtomb.o)
 .debug_info    0x00000000000552c1      0x259 c:/intelfpga_pro/18.1/nios2eds/bin/gnu/h-x86_64-mingw32/bin/../lib/gcc/nios2-elf/7.3.1\libgcc.a(eqdf2.o)
 .debug_info    0x000000000005551a      0x253 c:/intelfpga_pro/18.1/nios2eds/bin/gnu/h-x86_64-mingw32/bin/../lib/gcc/nios2-elf/7.3.1\libgcc.a(ledf2.o)
 .debug_info    0x000000000005576d      0x245 c:/intelfpga_pro/18.1/nios2eds/bin/gnu/h-x86_64-mingw32/bin/../lib/gcc/nios2-elf/7.3.1\libgcc.a(unorddf2.o)
 .debug_info    0x00000000000559b2      0x2a3 c:/intelfpga_pro/18.1/nios2eds/bin/gnu/h-x86_64-mingw32/bin/../lib/gcc/nios2-elf/7.3.1\libgcc.a(floatsidf.o)
 .debug_info    0x0000000000055c55      0xba3 C:/Git/ArrowESC/Cyclone10GX_Rev2_Demo/software/C10GX_SoM_Rev2_Demo_bsp/\libhal_bsp.a(alt_close.o)
 .debug_info    0x00000000000567f8      0x8f1 C:/Git/ArrowESC/Cyclone10GX_Rev2_Demo/software/C10GX_SoM_Rev2_Demo_bsp/\libhal_bsp.a(alt_dcache_flush.o)
 .debug_info    0x00000000000570e9      0xdf3 C:/Git/ArrowESC/Cyclone10GX_Rev2_Demo/software/C10GX_SoM_Rev2_Demo_bsp/\libhal_bsp.a(alt_dev.o)
 .debug_info    0x0000000000057edc      0x9d7 C:/Git/ArrowESC/Cyclone10GX_Rev2_Demo/software/C10GX_SoM_Rev2_Demo_bsp/\libhal_bsp.a(alt_dev_llist_insert.o)
 .debug_info    0x00000000000588b3      0x8d5 C:/Git/ArrowESC/Cyclone10GX_Rev2_Demo/software/C10GX_SoM_Rev2_Demo_bsp/\libhal_bsp.a(alt_env_lock.o)
 .debug_info    0x0000000000059188      0x8ea C:/Git/ArrowESC/Cyclone10GX_Rev2_Demo/software/C10GX_SoM_Rev2_Demo_bsp/\libhal_bsp.a(alt_errno.o)
 .debug_info    0x0000000000059a72      0xd4b C:/Git/ArrowESC/Cyclone10GX_Rev2_Demo/software/C10GX_SoM_Rev2_Demo_bsp/\libhal_bsp.a(alt_fstat.o)
 .debug_info    0x000000000005a7bd      0x8af C:/Git/ArrowESC/Cyclone10GX_Rev2_Demo/software/C10GX_SoM_Rev2_Demo_bsp/\libhal_bsp.a(alt_icache_flush_all.o)
 .debug_info    0x000000000005b06c      0xb71 C:/Git/ArrowESC/Cyclone10GX_Rev2_Demo/software/C10GX_SoM_Rev2_Demo_bsp/\libhal_bsp.a(alt_iic.o)
 .debug_info    0x000000000005bbdd      0xa26 C:/Git/ArrowESC/Cyclone10GX_Rev2_Demo/software/C10GX_SoM_Rev2_Demo_bsp/\libhal_bsp.a(alt_iic_isr_register.o)
 .debug_info    0x000000000005c603      0x1a3 C:/Git/ArrowESC/Cyclone10GX_Rev2_Demo/software/C10GX_SoM_Rev2_Demo_bsp/\libhal_bsp.a(alt_instruction_exception_register.o)
 .debug_info    0x000000000005c7a6       0x22 C:/Git/ArrowESC/Cyclone10GX_Rev2_Demo/software/C10GX_SoM_Rev2_Demo_bsp/\libhal_bsp.a(alt_irq_entry.o)
 .debug_info    0x000000000005c7c8      0x9be C:/Git/ArrowESC/Cyclone10GX_Rev2_Demo/software/C10GX_SoM_Rev2_Demo_bsp/\libhal_bsp.a(alt_irq_handler.o)
 .debug_info    0x000000000005d186       0x77 C:/Git/ArrowESC/Cyclone10GX_Rev2_Demo/software/C10GX_SoM_Rev2_Demo_bsp/\libhal_bsp.a(alt_irq_vars.o)
 .debug_info    0x000000000005d1fd      0xd4e C:/Git/ArrowESC/Cyclone10GX_Rev2_Demo/software/C10GX_SoM_Rev2_Demo_bsp/\libhal_bsp.a(alt_isatty.o)
 .debug_info    0x000000000005df4b      0x962 C:/Git/ArrowESC/Cyclone10GX_Rev2_Demo/software/C10GX_SoM_Rev2_Demo_bsp/\libhal_bsp.a(alt_load.o)
 .debug_info    0x000000000005e8ad      0xbd4 C:/Git/ArrowESC/Cyclone10GX_Rev2_Demo/software/C10GX_SoM_Rev2_Demo_bsp/\libhal_bsp.a(alt_lseek.o)
 .debug_info    0x000000000005f481      0xd83 C:/Git/ArrowESC/Cyclone10GX_Rev2_Demo/software/C10GX_SoM_Rev2_Demo_bsp/\libhal_bsp.a(alt_main.o)
 .debug_info    0x0000000000060204      0x8d5 C:/Git/ArrowESC/Cyclone10GX_Rev2_Demo/software/C10GX_SoM_Rev2_Demo_bsp/\libhal_bsp.a(alt_malloc_lock.o)
 .debug_info    0x0000000000060ad9      0x119 C:/Git/ArrowESC/Cyclone10GX_Rev2_Demo/software/C10GX_SoM_Rev2_Demo_bsp/\libhal_bsp.a(alt_printf.o)
 .debug_info    0x0000000000060bf2      0x8b5 C:/Git/ArrowESC/Cyclone10GX_Rev2_Demo/software/C10GX_SoM_Rev2_Demo_bsp/\libhal_bsp.a(alt_putchar.o)
 .debug_info    0x00000000000614a7      0xdbb C:/Git/ArrowESC/Cyclone10GX_Rev2_Demo/software/C10GX_SoM_Rev2_Demo_bsp/\libhal_bsp.a(alt_read.o)
 .debug_info    0x0000000000062262      0x2bc C:/Git/ArrowESC/Cyclone10GX_Rev2_Demo/software/C10GX_SoM_Rev2_Demo_bsp/\libhal_bsp.a(alt_release_fd.o)
 .debug_info    0x000000000006251e      0x9ea C:/Git/ArrowESC/Cyclone10GX_Rev2_Demo/software/C10GX_SoM_Rev2_Demo_bsp/\libhal_bsp.a(alt_sbrk.o)
 .debug_info    0x0000000000062f08      0x101 C:/Git/ArrowESC/Cyclone10GX_Rev2_Demo/software/C10GX_SoM_Rev2_Demo_bsp/\libhal_bsp.a(alt_usleep.o)
 .debug_info    0x0000000000063009      0xdc2 C:/Git/ArrowESC/Cyclone10GX_Rev2_Demo/software/C10GX_SoM_Rev2_Demo_bsp/\libhal_bsp.a(alt_write.o)
 .debug_info    0x0000000000063dcb     0x1251 C:/Git/ArrowESC/Cyclone10GX_Rev2_Demo/software/C10GX_SoM_Rev2_Demo_bsp/\libhal_bsp.a(alt_sys_init.o)
 .debug_info    0x000000000006501c     0x1925 C:/Git/ArrowESC/Cyclone10GX_Rev2_Demo/software/C10GX_SoM_Rev2_Demo_bsp/\libhal_bsp.a(altera_avalon_i2c.o)
 .debug_info    0x0000000000066941      0x511 C:/Git/ArrowESC/Cyclone10GX_Rev2_Demo/software/C10GX_SoM_Rev2_Demo_bsp/\libhal_bsp.a(altera_avalon_jtag_uart_fd.o)
 .debug_info    0x0000000000066e52      0xc19 C:/Git/ArrowESC/Cyclone10GX_Rev2_Demo/software/C10GX_SoM_Rev2_Demo_bsp/\libhal_bsp.a(altera_avalon_jtag_uart_init.o)
 .debug_info    0x0000000000067a6b      0xae0 C:/Git/ArrowESC/Cyclone10GX_Rev2_Demo/software/C10GX_SoM_Rev2_Demo_bsp/\libhal_bsp.a(altera_avalon_jtag_uart_ioctl.o)
 .debug_info    0x000000000006854b      0xba6 C:/Git/ArrowESC/Cyclone10GX_Rev2_Demo/software/C10GX_SoM_Rev2_Demo_bsp/\libhal_bsp.a(altera_avalon_jtag_uart_read.o)
 .debug_info    0x00000000000690f1      0xb9c C:/Git/ArrowESC/Cyclone10GX_Rev2_Demo/software/C10GX_SoM_Rev2_Demo_bsp/\libhal_bsp.a(altera_avalon_jtag_uart_write.o)
 .debug_info    0x0000000000069c8d      0xa7e C:/Git/ArrowESC/Cyclone10GX_Rev2_Demo/software/C10GX_SoM_Rev2_Demo_bsp/\libhal_bsp.a(altera_avalon_timer_sc.o)
 .debug_info    0x000000000006a70b      0x96f C:/Git/ArrowESC/Cyclone10GX_Rev2_Demo/software/C10GX_SoM_Rev2_Demo_bsp/\libhal_bsp.a(altera_avalon_timer_ts.o)
 .debug_info    0x000000000006b07a      0x8c6 C:/Git/ArrowESC/Cyclone10GX_Rev2_Demo/software/C10GX_SoM_Rev2_Demo_bsp/\libhal_bsp.a(altera_avalon_timer_vars.o)
 .debug_info    0x000000000006b940     0x2e13 C:/Git/ArrowESC/Cyclone10GX_Rev2_Demo/software/C10GX_SoM_Rev2_Demo_bsp/\libhal_bsp.a(altera_avalon_tse.o)
 .debug_info    0x000000000006e753     0x104d C:/Git/ArrowESC/Cyclone10GX_Rev2_Demo/software/C10GX_SoM_Rev2_Demo_bsp/\libhal_bsp.a(altera_avalon_tse_system_info.o)
 .debug_info    0x000000000006f7a0     0x10c1 C:/Git/ArrowESC/Cyclone10GX_Rev2_Demo/software/C10GX_SoM_Rev2_Demo_bsp/\libhal_bsp.a(altera_generic_quad_spi_controller2.o)
 .debug_info    0x0000000000070861     0x20e7 C:/Git/ArrowESC/Cyclone10GX_Rev2_Demo/software/C10GX_SoM_Rev2_Demo_bsp/\libhal_bsp.a(altera_msgdma.o)
 .debug_info    0x0000000000072948      0xaf7 C:/Git/ArrowESC/Cyclone10GX_Rev2_Demo/software/C10GX_SoM_Rev2_Demo_bsp/\libhal_bsp.a(alt_alarm_start.o)
 .debug_info    0x000000000007343f      0x8e9 C:/Git/ArrowESC/Cyclone10GX_Rev2_Demo/software/C10GX_SoM_Rev2_Demo_bsp/\libhal_bsp.a(alt_busy_sleep.o)
 .debug_info    0x0000000000073d28      0x8bc C:/Git/ArrowESC/Cyclone10GX_Rev2_Demo/software/C10GX_SoM_Rev2_Demo_bsp/\libhal_bsp.a(alt_dcache_flush_all.o)
 .debug_info    0x00000000000745e4       0x83 C:/Git/ArrowESC/Cyclone10GX_Rev2_Demo/software/C10GX_SoM_Rev2_Demo_bsp/\libhal_bsp.a(alt_do_ctors.o)
 .debug_info    0x0000000000074667       0x83 C:/Git/ArrowESC/Cyclone10GX_Rev2_Demo/software/C10GX_SoM_Rev2_Demo_bsp/\libhal_bsp.a(alt_do_dtors.o)
 .debug_info    0x00000000000746ea       0x22 C:/Git/ArrowESC/Cyclone10GX_Rev2_Demo/software/C10GX_SoM_Rev2_Demo_bsp/\libhal_bsp.a(alt_exception_entry.o)
 .debug_info    0x000000000007470c      0xb0d C:/Git/ArrowESC/Cyclone10GX_Rev2_Demo/software/C10GX_SoM_Rev2_Demo_bsp/\libhal_bsp.a(alt_find_dev.o)
 .debug_info    0x0000000000075219      0xe33 C:/Git/ArrowESC/Cyclone10GX_Rev2_Demo/software/C10GX_SoM_Rev2_Demo_bsp/\libhal_bsp.a(alt_flash_dev.o)
 .debug_info    0x000000000007604c      0x8f1 C:/Git/ArrowESC/Cyclone10GX_Rev2_Demo/software/C10GX_SoM_Rev2_Demo_bsp/\libhal_bsp.a(alt_icache_flush.o)
 .debug_info    0x000000000007693d      0x1f1 C:/Git/ArrowESC/Cyclone10GX_Rev2_Demo/software/C10GX_SoM_Rev2_Demo_bsp/\libhal_bsp.a(alt_instruction_exception_entry.o)
 .debug_info    0x0000000000076b2e      0xd81 C:/Git/ArrowESC/Cyclone10GX_Rev2_Demo/software/C10GX_SoM_Rev2_Demo_bsp/\libhal_bsp.a(alt_io_redirect.o)
 .debug_info    0x00000000000778af      0xbdf C:/Git/ArrowESC/Cyclone10GX_Rev2_Demo/software/C10GX_SoM_Rev2_Demo_bsp/\libhal_bsp.a(alt_open.o)
 .debug_info    0x000000000007848e      0xad9 C:/Git/ArrowESC/Cyclone10GX_Rev2_Demo/software/C10GX_SoM_Rev2_Demo_bsp/\libhal_bsp.a(alt_tick.o)
 .debug_info    0x0000000000078f67      0x8cf C:/Git/ArrowESC/Cyclone10GX_Rev2_Demo/software/C10GX_SoM_Rev2_Demo_bsp/\libhal_bsp.a(altera_nios2_gen2_irq.o)
 .debug_info    0x0000000000079836      0xaff C:/Git/ArrowESC/Cyclone10GX_Rev2_Demo/software/C10GX_SoM_Rev2_Demo_bsp/\libhal_bsp.a(alt_find_file.o)
 .debug_info    0x000000000007a335      0xb34 C:/Git/ArrowESC/Cyclone10GX_Rev2_Demo/software/C10GX_SoM_Rev2_Demo_bsp/\libhal_bsp.a(alt_get_fd.o)
 .debug_info    0x000000000007ae69      0x915 c:/intelfpga_pro/18.1/nios2eds/bin/gnu/h-x86_64-mingw32/bin/../lib/gcc/nios2-elf/7.3.1/../../../../../H-x86_64-mingw32/nios2-elf/lib\libc.a(lib_a-atexit.o)
 .debug_info    0x000000000007b77e      0x94a c:/intelfpga_pro/18.1/nios2eds/bin/gnu/h-x86_64-mingw32/bin/../lib/gcc/nios2-elf/7.3.1/../../../../../H-x86_64-mingw32/nios2-elf/lib\libc.a(lib_a-exit.o)
 .debug_info    0x000000000007c0c8      0x95e c:/intelfpga_pro/18.1/nios2eds/bin/gnu/h-x86_64-mingw32/bin/../lib/gcc/nios2-elf/7.3.1/../../../../../H-x86_64-mingw32/nios2-elf/lib\libc.a(lib_a-__atexit.o)
 .debug_info    0x000000000007ca26      0x983 c:/intelfpga_pro/18.1/nios2eds/bin/gnu/h-x86_64-mingw32/bin/../lib/gcc/nios2-elf/7.3.1/../../../../../H-x86_64-mingw32/nios2-elf/lib\libc.a(lib_a-__call_atexit.o)
 .debug_info    0x000000000007d3a9      0x929 C:/Git/ArrowESC/Cyclone10GX_Rev2_Demo/software/C10GX_SoM_Rev2_Demo_bsp/\libhal_bsp.a(alt_exit.o)

.debug_abbrev   0x0000000000000000    0x17419
 *(.debug_abbrev)
 .debug_abbrev  0x0000000000000000       0x12 C:/Git/ArrowESC/Cyclone10GX_Rev2_Demo/software/C10GX_SoM_Rev2_Demo_bsp//obj/HAL/src/crt0.o
 .debug_abbrev  0x0000000000000012       0x89 obj/default/crc.o
 .debug_abbrev  0x000000000000009b      0x52d obj/default/ethernet.o
 .debug_abbrev  0x00000000000005c8      0x28f obj/default/fmc/ad9144/ad9144.o
 .debug_abbrev  0x0000000000000857      0x297 obj/default/fmc/ad9523/ad9523.o
 .debug_abbrev  0x0000000000000aee      0x210 obj/default/fmc/ad9680/ad9680.o
 .debug_abbrev  0x0000000000000cfe      0x284 obj/default/fmc/common_drivers/adc_core/adc_core.o
 .debug_abbrev  0x0000000000000f82       0x6d obj/default/fmc/common_drivers/communication/generic/Communication.o
 .debug_abbrev  0x0000000000000fef      0x1f9 obj/default/fmc/common_drivers/dac_buffer/dac_buffer.o
 .debug_abbrev  0x00000000000011e8      0x239 obj/default/fmc/common_drivers/dac_core/dac_core.o
 .debug_abbrev  0x0000000000001421      0x210 obj/default/fmc/common_drivers/dmac_core/dmac_core.o
 .debug_abbrev  0x0000000000001631      0x2d3 obj/default/fmc/common_drivers/fru_tools/fru_tools.o
 .debug_abbrev  0x0000000000001904      0x273 obj/default/fmc/common_drivers/jesd_core/jesd_core.o
 .debug_abbrev  0x0000000000001b77      0x2e6 obj/default/fmc/common_drivers/platform_drivers/platform_drivers.o
 .debug_abbrev  0x0000000000001e5d      0x296 obj/default/fmc/common_drivers/xcvr_core/xcvr_core.o
 .debug_abbrev  0x00000000000020f3      0x2ba obj/default/fmc/common_drivers/xcvr_core/xcvr_modules/altera_a10_atx_pll.o
 .debug_abbrev  0x00000000000023ad      0x28f obj/default/fmc/common_drivers/xcvr_core/xcvr_modules/altera_a10_fpll.o
 .debug_abbrev  0x000000000000263c      0x26f obj/default/fmc/common_drivers/xcvr_core/xcvr_modules/altera_a10_xcvr_channel.o
 .debug_abbrev  0x00000000000028ab      0x253 obj/default/fmc/common_drivers/xcvr_core/xcvr_modules/altera_pll_common.o
 .debug_abbrev  0x0000000000002afe      0x19a obj/default/fmc/common_drivers/xcvr_core/xcvr_modules/xilinx_qpll.o
 .debug_abbrev  0x0000000000002c98      0x19a obj/default/fmc/common_drivers/xcvr_core/xcvr_modules/xilinx_xcvr_channel.o
 .debug_abbrev  0x0000000000002e32      0x294 obj/default/iioscope.o
 .debug_abbrev  0x00000000000030c6      0x3c5 obj/default/jesd204b.o
 .debug_abbrev  0x000000000000348b      0x21a obj/default/main.o
 .debug_abbrev  0x00000000000036a5       0x74 obj/default/support.o
 .debug_abbrev  0x0000000000003719      0x146 c:/intelfpga_pro/18.1/nios2eds/bin/gnu/h-x86_64-mingw32/bin/../lib/gcc/nios2-elf/7.3.1\libgcc.a(_muldi3.o)
 .debug_abbrev  0x000000000000385f       0xc0 c:/intelfpga_pro/18.1/nios2eds/bin/gnu/h-x86_64-mingw32/bin/../lib/gcc/nios2-elf/7.3.1\libgcc.a(_bswapsi2.o)
 .debug_abbrev  0x000000000000391f       0xc0 c:/intelfpga_pro/18.1/nios2eds/bin/gnu/h-x86_64-mingw32/bin/../lib/gcc/nios2-elf/7.3.1\libgcc.a(_fixunsdfsi.o)
 .debug_abbrev  0x00000000000039df       0xdc c:/intelfpga_pro/18.1/nios2eds/bin/gnu/h-x86_64-mingw32/bin/../lib/gcc/nios2-elf/7.3.1\libgcc.a(_fixunsdfdi.o)
 .debug_abbrev  0x0000000000003abb      0x19f c:/intelfpga_pro/18.1/nios2eds/bin/gnu/h-x86_64-mingw32/bin/../lib/gcc/nios2-elf/7.3.1\libgcc.a(_udivdi3.o)
 .debug_abbrev  0x0000000000003c5a      0x1c6 c:/intelfpga_pro/18.1/nios2eds/bin/gnu/h-x86_64-mingw32/bin/../lib/gcc/nios2-elf/7.3.1\libgcc.a(_umoddi3.o)
 .debug_abbrev  0x0000000000003e20       0xe0 c:/intelfpga_pro/18.1/nios2eds/bin/gnu/h-x86_64-mingw32/bin/../lib/gcc/nios2-elf/7.3.1\libgcc.a(lib2-divmod.o)
 .debug_abbrev  0x0000000000003f00      0x17d c:/intelfpga_pro/18.1/nios2eds/bin/gnu/h-x86_64-mingw32/bin/../lib/gcc/nios2-elf/7.3.1\libgcc.a(adddf3.o)
 .debug_abbrev  0x000000000000407d      0x170 c:/intelfpga_pro/18.1/nios2eds/bin/gnu/h-x86_64-mingw32/bin/../lib/gcc/nios2-elf/7.3.1\libgcc.a(divdf3.o)
 .debug_abbrev  0x00000000000041ed      0x175 c:/intelfpga_pro/18.1/nios2eds/bin/gnu/h-x86_64-mingw32/bin/../lib/gcc/nios2-elf/7.3.1\libgcc.a(gedf2.o)
 .debug_abbrev  0x0000000000004362      0x177 c:/intelfpga_pro/18.1/nios2eds/bin/gnu/h-x86_64-mingw32/bin/../lib/gcc/nios2-elf/7.3.1\libgcc.a(muldf3.o)
 .debug_abbrev  0x00000000000044d9      0x17d c:/intelfpga_pro/18.1/nios2eds/bin/gnu/h-x86_64-mingw32/bin/../lib/gcc/nios2-elf/7.3.1\libgcc.a(subdf3.o)
 .debug_abbrev  0x0000000000004656      0x166 c:/intelfpga_pro/18.1/nios2eds/bin/gnu/h-x86_64-mingw32/bin/../lib/gcc/nios2-elf/7.3.1\libgcc.a(fixdfsi.o)
 .debug_abbrev  0x00000000000047bc      0x16c c:/intelfpga_pro/18.1/nios2eds/bin/gnu/h-x86_64-mingw32/bin/../lib/gcc/nios2-elf/7.3.1\libgcc.a(floatunsidf.o)
 .debug_abbrev  0x0000000000004928      0x152 c:/intelfpga_pro/18.1/nios2eds/bin/gnu/h-x86_64-mingw32/bin/../lib/gcc/nios2-elf/7.3.1\libgcc.a(extendsfdf2.o)
 .debug_abbrev  0x0000000000004a7a       0xa0 c:/intelfpga_pro/18.1/nios2eds/bin/gnu/h-x86_64-mingw32/bin/../lib/gcc/nios2-elf/7.3.1\libgcc.a(_clz.o)
 .debug_abbrev  0x0000000000004b1a       0xe3 c:/intelfpga_pro/18.1/nios2eds/bin/gnu/h-x86_64-mingw32/bin/../lib/gcc/nios2-elf/7.3.1\libgcc.a(_clzsi2.o)
 .debug_abbrev  0x0000000000004bfd      0x203 c:/intelfpga_pro/18.1/nios2eds/bin/gnu/h-x86_64-mingw32/bin/../lib/gcc/nios2-elf/7.3.1/../../../../../H-x86_64-mingw32/nios2-elf/lib\libc.a(lib_a-calloc.o)
 .debug_abbrev  0x0000000000004e00      0x235 c:/intelfpga_pro/18.1/nios2eds/bin/gnu/h-x86_64-mingw32/bin/../lib/gcc/nios2-elf/7.3.1/../../../../../H-x86_64-mingw32/nios2-elf/lib\libc.a(lib_a-callocr.o)
 .debug_abbrev  0x0000000000005035      0x272 c:/intelfpga_pro/18.1/nios2eds/bin/gnu/h-x86_64-mingw32/bin/../lib/gcc/nios2-elf/7.3.1/../../../../../H-x86_64-mingw32/nios2-elf/lib\libc.a(lib_a-getc.o)
 .debug_abbrev  0x00000000000052a7      0x1a1 c:/intelfpga_pro/18.1/nios2eds/bin/gnu/h-x86_64-mingw32/bin/../lib/gcc/nios2-elf/7.3.1/../../../../../H-x86_64-mingw32/nios2-elf/lib\libc.a(lib_a-impure.o)
 .debug_abbrev  0x0000000000005448      0x2ae c:/intelfpga_pro/18.1/nios2eds/bin/gnu/h-x86_64-mingw32/bin/../lib/gcc/nios2-elf/7.3.1/../../../../../H-x86_64-mingw32/nios2-elf/lib\libc.a(lib_a-locale.o)
 .debug_abbrev  0x00000000000056f6      0x20e c:/intelfpga_pro/18.1/nios2eds/bin/gnu/h-x86_64-mingw32/bin/../lib/gcc/nios2-elf/7.3.1/../../../../../H-x86_64-mingw32/nios2-elf/lib\libc.a(lib_a-malloc.o)
 .debug_abbrev  0x0000000000005904      0x2cd c:/intelfpga_pro/18.1/nios2eds/bin/gnu/h-x86_64-mingw32/bin/../lib/gcc/nios2-elf/7.3.1/../../../../../H-x86_64-mingw32/nios2-elf/lib\libc.a(lib_a-mallocr.o)
 .debug_abbrev  0x0000000000005bd1      0x250 c:/intelfpga_pro/18.1/nios2eds/bin/gnu/h-x86_64-mingw32/bin/../lib/gcc/nios2-elf/7.3.1/../../../../../H-x86_64-mingw32/nios2-elf/lib\libc.a(lib_a-mbtowc_r.o)
 .debug_abbrev  0x0000000000005e21      0x1e2 c:/intelfpga_pro/18.1/nios2eds/bin/gnu/h-x86_64-mingw32/bin/../lib/gcc/nios2-elf/7.3.1/../../../../../H-x86_64-mingw32/nios2-elf/lib\libc.a(lib_a-memcpy.o)
 .debug_abbrev  0x0000000000006003      0x1fc c:/intelfpga_pro/18.1/nios2eds/bin/gnu/h-x86_64-mingw32/bin/../lib/gcc/nios2-elf/7.3.1/../../../../../H-x86_64-mingw32/nios2-elf/lib\libc.a(lib_a-memset.o)
 .debug_abbrev  0x00000000000061ff      0x27e c:/intelfpga_pro/18.1/nios2eds/bin/gnu/h-x86_64-mingw32/bin/../lib/gcc/nios2-elf/7.3.1/../../../../../H-x86_64-mingw32/nios2-elf/lib\libc.a(lib_a-mktime.o)
 .debug_abbrev  0x000000000000647d      0x270 c:/intelfpga_pro/18.1/nios2eds/bin/gnu/h-x86_64-mingw32/bin/../lib/gcc/nios2-elf/7.3.1/../../../../../H-x86_64-mingw32/nios2-elf/lib\libc.a(lib_a-printf.o)
 .debug_abbrev  0x00000000000066ed      0x226 c:/intelfpga_pro/18.1/nios2eds/bin/gnu/h-x86_64-mingw32/bin/../lib/gcc/nios2-elf/7.3.1/../../../../../H-x86_64-mingw32/nios2-elf/lib\libc.a(lib_a-putchar.o)
 .debug_abbrev  0x0000000000006913      0x279 c:/intelfpga_pro/18.1/nios2eds/bin/gnu/h-x86_64-mingw32/bin/../lib/gcc/nios2-elf/7.3.1/../../../../../H-x86_64-mingw32/nios2-elf/lib\libc.a(lib_a-puts.o)
 .debug_abbrev  0x0000000000006b8c      0x266 c:/intelfpga_pro/18.1/nios2eds/bin/gnu/h-x86_64-mingw32/bin/../lib/gcc/nios2-elf/7.3.1/../../../../../H-x86_64-mingw32/nios2-elf/lib\libc.a(lib_a-rget.o)
 .debug_abbrev  0x0000000000006df2      0x224 c:/intelfpga_pro/18.1/nios2eds/bin/gnu/h-x86_64-mingw32/bin/../lib/gcc/nios2-elf/7.3.1/../../../../../H-x86_64-mingw32/nios2-elf/lib\libc.a(lib_a-sbrkr.o)
 .debug_abbrev  0x0000000000007016      0x25a c:/intelfpga_pro/18.1/nios2eds/bin/gnu/h-x86_64-mingw32/bin/../lib/gcc/nios2-elf/7.3.1/../../../../../H-x86_64-mingw32/nios2-elf/lib\libc.a(lib_a-sprintf.o)
 .debug_abbrev  0x0000000000007270      0x1c7 c:/intelfpga_pro/18.1/nios2eds/bin/gnu/h-x86_64-mingw32/bin/../lib/gcc/nios2-elf/7.3.1/../../../../../H-x86_64-mingw32/nios2-elf/lib\libc.a(lib_a-strcmp.o)
 .debug_abbrev  0x0000000000007437      0x1d6 c:/intelfpga_pro/18.1/nios2eds/bin/gnu/h-x86_64-mingw32/bin/../lib/gcc/nios2-elf/7.3.1/../../../../../H-x86_64-mingw32/nios2-elf/lib\libc.a(lib_a-strcpy.o)
 .debug_abbrev  0x000000000000760d      0x1c7 c:/intelfpga_pro/18.1/nios2eds/bin/gnu/h-x86_64-mingw32/bin/../lib/gcc/nios2-elf/7.3.1/../../../../../H-x86_64-mingw32/nios2-elf/lib\libc.a(lib_a-strlen.o)
 .debug_abbrev  0x00000000000077d4      0x3a4 c:/intelfpga_pro/18.1/nios2eds/bin/gnu/h-x86_64-mingw32/bin/../lib/gcc/nios2-elf/7.3.1/../../../../../H-x86_64-mingw32/nios2-elf/lib\libc.a(lib_a-svfprintf.o)
 .debug_abbrev  0x0000000000007b78      0x219 c:/intelfpga_pro/18.1/nios2eds/bin/gnu/h-x86_64-mingw32/bin/../lib/gcc/nios2-elf/7.3.1/../../../../../H-x86_64-mingw32/nios2-elf/lib\libc.a(lib_a-tzcalc_limits.o)
 .debug_abbrev  0x0000000000007d91      0x1dd c:/intelfpga_pro/18.1/nios2eds/bin/gnu/h-x86_64-mingw32/bin/../lib/gcc/nios2-elf/7.3.1/../../../../../H-x86_64-mingw32/nios2-elf/lib\libc.a(lib_a-tzlock.o)
 .debug_abbrev  0x0000000000007f6e      0x1e2 c:/intelfpga_pro/18.1/nios2eds/bin/gnu/h-x86_64-mingw32/bin/../lib/gcc/nios2-elf/7.3.1/../../../../../H-x86_64-mingw32/nios2-elf/lib\libc.a(lib_a-tzset.o)
 .debug_abbrev  0x0000000000008150      0x26b c:/intelfpga_pro/18.1/nios2eds/bin/gnu/h-x86_64-mingw32/bin/../lib/gcc/nios2-elf/7.3.1/../../../../../H-x86_64-mingw32/nios2-elf/lib\libc.a(lib_a-tzset_r.o)
 .debug_abbrev  0x00000000000083bb      0x1a3 c:/intelfpga_pro/18.1/nios2eds/bin/gnu/h-x86_64-mingw32/bin/../lib/gcc/nios2-elf/7.3.1/../../../../../H-x86_64-mingw32/nios2-elf/lib\libc.a(lib_a-tzvars.o)
 .debug_abbrev  0x000000000000855e      0x3f1 c:/intelfpga_pro/18.1/nios2eds/bin/gnu/h-x86_64-mingw32/bin/../lib/gcc/nios2-elf/7.3.1/../../../../../H-x86_64-mingw32/nios2-elf/lib\libc.a(lib_a-vfprintf.o)
 .debug_abbrev  0x000000000000894f      0x249 c:/intelfpga_pro/18.1/nios2eds/bin/gnu/h-x86_64-mingw32/bin/../lib/gcc/nios2-elf/7.3.1/../../../../../H-x86_64-mingw32/nios2-elf/lib\libc.a(lib_a-wctomb_r.o)
 .debug_abbrev  0x0000000000008b98      0x25a c:/intelfpga_pro/18.1/nios2eds/bin/gnu/h-x86_64-mingw32/bin/../lib/gcc/nios2-elf/7.3.1/../../../../../H-x86_64-mingw32/nios2-elf/lib\libc.a(lib_a-wsetup.o)
 .debug_abbrev  0x0000000000008df2      0x1ac c:/intelfpga_pro/18.1/nios2eds/bin/gnu/h-x86_64-mingw32/bin/../lib/gcc/nios2-elf/7.3.1/../../../../../H-x86_64-mingw32/nios2-elf/lib\libc.a(lib_a-ctype_.o)
 .debug_abbrev  0x0000000000008f9e      0x1e5 c:/intelfpga_pro/18.1/nios2eds/bin/gnu/h-x86_64-mingw32/bin/../lib/gcc/nios2-elf/7.3.1/../../../../../H-x86_64-mingw32/nios2-elf/lib\libc.a(lib_a-div.o)
 .debug_abbrev  0x0000000000009183      0x2ee c:/intelfpga_pro/18.1/nios2eds/bin/gnu/h-x86_64-mingw32/bin/../lib/gcc/nios2-elf/7.3.1/../../../../../H-x86_64-mingw32/nios2-elf/lib\libc.a(lib_a-dtoa.o)
 .debug_abbrev  0x0000000000009471      0x2e0 c:/intelfpga_pro/18.1/nios2eds/bin/gnu/h-x86_64-mingw32/bin/../lib/gcc/nios2-elf/7.3.1/../../../../../H-x86_64-mingw32/nios2-elf/lib\libc.a(lib_a-fflush.o)
 .debug_abbrev  0x0000000000009751      0x3d9 c:/intelfpga_pro/18.1/nios2eds/bin/gnu/h-x86_64-mingw32/bin/../lib/gcc/nios2-elf/7.3.1/../../../../../H-x86_64-mingw32/nios2-elf/lib\libc.a(lib_a-findfp.o)
 .debug_abbrev  0x0000000000009b2a      0x281 c:/intelfpga_pro/18.1/nios2eds/bin/gnu/h-x86_64-mingw32/bin/../lib/gcc/nios2-elf/7.3.1/../../../../../H-x86_64-mingw32/nios2-elf/lib\libc.a(lib_a-freer.o)
 .debug_abbrev  0x0000000000009dab      0x27b c:/intelfpga_pro/18.1/nios2eds/bin/gnu/h-x86_64-mingw32/bin/../lib/gcc/nios2-elf/7.3.1/../../../../../H-x86_64-mingw32/nios2-elf/lib\libc.a(lib_a-fvwrite.o)
 .debug_abbrev  0x000000000000a026      0x224 c:/intelfpga_pro/18.1/nios2eds/bin/gnu/h-x86_64-mingw32/bin/../lib/gcc/nios2-elf/7.3.1/../../../../../H-x86_64-mingw32/nios2-elf/lib\libc.a(lib_a-fwalk.o)
 .debug_abbrev  0x000000000000a24a      0x236 c:/intelfpga_pro/18.1/nios2eds/bin/gnu/h-x86_64-mingw32/bin/../lib/gcc/nios2-elf/7.3.1/../../../../../H-x86_64-mingw32/nios2-elf/lib\libc.a(lib_a-getenv_r.o)
 .debug_abbrev  0x000000000000a480      0x1c7 c:/intelfpga_pro/18.1/nios2eds/bin/gnu/h-x86_64-mingw32/bin/../lib/gcc/nios2-elf/7.3.1/../../../../../H-x86_64-mingw32/nios2-elf/lib\libc.a(lib_a-gettzinfo.o)
 .debug_abbrev  0x000000000000a647      0x1ab c:/intelfpga_pro/18.1/nios2eds/bin/gnu/h-x86_64-mingw32/bin/../lib/gcc/nios2-elf/7.3.1/../../../../../H-x86_64-mingw32/nios2-elf/lib\libc.a(lib_a-int_errno.o)
 .debug_abbrev  0x000000000000a7f2      0x242 c:/intelfpga_pro/18.1/nios2eds/bin/gnu/h-x86_64-mingw32/bin/../lib/gcc/nios2-elf/7.3.1/../../../../../H-x86_64-mingw32/nios2-elf/lib\libc.a(lib_a-localeconv.o)
 .debug_abbrev  0x000000000000aa34      0x2a6 c:/intelfpga_pro/18.1/nios2eds/bin/gnu/h-x86_64-mingw32/bin/../lib/gcc/nios2-elf/7.3.1/../../../../../H-x86_64-mingw32/nios2-elf/lib\libc.a(lib_a-makebuf.o)
 .debug_abbrev  0x000000000000acda      0x1ea c:/intelfpga_pro/18.1/nios2eds/bin/gnu/h-x86_64-mingw32/bin/../lib/gcc/nios2-elf/7.3.1/../../../../../H-x86_64-mingw32/nios2-elf/lib\libc.a(lib_a-memchr.o)
 .debug_abbrev  0x000000000000aec4      0x1e3 c:/intelfpga_pro/18.1/nios2eds/bin/gnu/h-x86_64-mingw32/bin/../lib/gcc/nios2-elf/7.3.1/../../../../../H-x86_64-mingw32/nios2-elf/lib\libc.a(lib_a-memmove.o)
 .debug_abbrev  0x000000000000b0a7      0x1a7 c:/intelfpga_pro/18.1/nios2eds/bin/gnu/h-x86_64-mingw32/bin/../lib/gcc/nios2-elf/7.3.1/../../../../../H-x86_64-mingw32/nios2-elf/lib\libc.a(lib_a-month_lengths.o)
 .debug_abbrev  0x000000000000b24e      0x426 c:/intelfpga_pro/18.1/nios2eds/bin/gnu/h-x86_64-mingw32/bin/../lib/gcc/nios2-elf/7.3.1/../../../../../H-x86_64-mingw32/nios2-elf/lib\libc.a(lib_a-mprec.o)
 .debug_abbrev  0x000000000000b674      0x271 c:/intelfpga_pro/18.1/nios2eds/bin/gnu/h-x86_64-mingw32/bin/../lib/gcc/nios2-elf/7.3.1/../../../../../H-x86_64-mingw32/nios2-elf/lib\libc.a(lib_a-putc.o)
 .debug_abbrev  0x000000000000b8e5      0x262 c:/intelfpga_pro/18.1/nios2eds/bin/gnu/h-x86_64-mingw32/bin/../lib/gcc/nios2-elf/7.3.1/../../../../../H-x86_64-mingw32/nios2-elf/lib\libc.a(lib_a-reallocr.o)
 .debug_abbrev  0x000000000000bb47      0x298 c:/intelfpga_pro/18.1/nios2eds/bin/gnu/h-x86_64-mingw32/bin/../lib/gcc/nios2-elf/7.3.1/../../../../../H-x86_64-mingw32/nios2-elf/lib\libc.a(lib_a-refill.o)
 .debug_abbrev  0x000000000000bddf      0x24d c:/intelfpga_pro/18.1/nios2eds/bin/gnu/h-x86_64-mingw32/bin/../lib/gcc/nios2-elf/7.3.1/../../../../../H-x86_64-mingw32/nios2-elf/lib\libc.a(lib_a-siscanf.o)
 .debug_abbrev  0x000000000000c02c      0x287 c:/intelfpga_pro/18.1/nios2eds/bin/gnu/h-x86_64-mingw32/bin/../lib/gcc/nios2-elf/7.3.1/../../../../../H-x86_64-mingw32/nios2-elf/lib\libc.a(lib_a-stdio.o)
 .debug_abbrev  0x000000000000c2b3      0x1c7 c:/intelfpga_pro/18.1/nios2eds/bin/gnu/h-x86_64-mingw32/bin/../lib/gcc/nios2-elf/7.3.1/../../../../../H-x86_64-mingw32/nios2-elf/lib\libc.a(lib_a-strncmp.o)
 .debug_abbrev  0x000000000000c47a      0x2c1 c:/intelfpga_pro/18.1/nios2eds/bin/gnu/h-x86_64-mingw32/bin/../lib/gcc/nios2-elf/7.3.1/../../../../../H-x86_64-mingw32/nios2-elf/lib\libc.a(lib_a-strtoul.o)
 .debug_abbrev  0x000000000000c73b      0x2fc c:/intelfpga_pro/18.1/nios2eds/bin/gnu/h-x86_64-mingw32/bin/../lib/gcc/nios2-elf/7.3.1/../../../../../H-x86_64-mingw32/nios2-elf/lib\libc.a(lib_a-svfiprintf.o)
 .debug_abbrev  0x000000000000ca37      0x363 c:/intelfpga_pro/18.1/nios2eds/bin/gnu/h-x86_64-mingw32/bin/../lib/gcc/nios2-elf/7.3.1/../../../../../H-x86_64-mingw32/nios2-elf/lib\libc.a(lib_a-svfiscanf.o)
 .debug_abbrev  0x000000000000cd9a      0x2f6 c:/intelfpga_pro/18.1/nios2eds/bin/gnu/h-x86_64-mingw32/bin/../lib/gcc/nios2-elf/7.3.1/../../../../../H-x86_64-mingw32/nios2-elf/lib\libc.a(lib_a-ungetc.o)
 .debug_abbrev  0x000000000000d090      0x41d c:/intelfpga_pro/18.1/nios2eds/bin/gnu/h-x86_64-mingw32/bin/../lib/gcc/nios2-elf/7.3.1/../../../../../H-x86_64-mingw32/nios2-elf/lib\libc.a(lib_a-vfiprintf.o)
 .debug_abbrev  0x000000000000d4ad      0x293 c:/intelfpga_pro/18.1/nios2eds/bin/gnu/h-x86_64-mingw32/bin/../lib/gcc/nios2-elf/7.3.1/../../../../../H-x86_64-mingw32/nios2-elf/lib\libc.a(lib_a-wbuf.o)
 .debug_abbrev  0x000000000000d740      0x205 c:/intelfpga_pro/18.1/nios2eds/bin/gnu/h-x86_64-mingw32/bin/../lib/gcc/nios2-elf/7.3.1/../../../../../H-x86_64-mingw32/nios2-elf/lib\libc.a(lib_a-writer.o)
 .debug_abbrev  0x000000000000d945      0x200 c:/intelfpga_pro/18.1/nios2eds/bin/gnu/h-x86_64-mingw32/bin/../lib/gcc/nios2-elf/7.3.1/../../../../../H-x86_64-mingw32/nios2-elf/lib\libc.a(closer.o)
 .debug_abbrev  0x000000000000db45       0x56 c:/intelfpga_pro/18.1/nios2eds/bin/gnu/h-x86_64-mingw32/bin/../lib/gcc/nios2-elf/7.3.1/../../../../../H-x86_64-mingw32/nios2-elf/lib\libc.a(lib_a-environ.o)
 .debug_abbrev  0x000000000000db9b      0x2e8 c:/intelfpga_pro/18.1/nios2eds/bin/gnu/h-x86_64-mingw32/bin/../lib/gcc/nios2-elf/7.3.1/../../../../../H-x86_64-mingw32/nios2-elf/lib\libc.a(lib_a-fclose.o)
 .debug_abbrev  0x000000000000de83      0x2fb c:/intelfpga_pro/18.1/nios2eds/bin/gnu/h-x86_64-mingw32/bin/../lib/gcc/nios2-elf/7.3.1/../../../../../H-x86_64-mingw32/nios2-elf/lib\libc.a(lib_a-fputwc.o)
 .debug_abbrev  0x000000000000e17e      0x20f c:/intelfpga_pro/18.1/nios2eds/bin/gnu/h-x86_64-mingw32/bin/../lib/gcc/nios2-elf/7.3.1/../../../../../H-x86_64-mingw32/nios2-elf/lib\libc.a(lib_a-fstatr.o)
 .debug_abbrev  0x000000000000e38d      0x200 c:/intelfpga_pro/18.1/nios2eds/bin/gnu/h-x86_64-mingw32/bin/../lib/gcc/nios2-elf/7.3.1/../../../../../H-x86_64-mingw32/nios2-elf/lib\libc.a(lib_a-isattyr.o)
 .debug_abbrev  0x000000000000e58d      0x1e1 c:/intelfpga_pro/18.1/nios2eds/bin/gnu/h-x86_64-mingw32/bin/../lib/gcc/nios2-elf/7.3.1/../../../../../H-x86_64-mingw32/nios2-elf/lib\libc.a(lib_a-iswspace.o)
 .debug_abbrev  0x000000000000e76e      0x20f c:/intelfpga_pro/18.1/nios2eds/bin/gnu/h-x86_64-mingw32/bin/../lib/gcc/nios2-elf/7.3.1/../../../../../H-x86_64-mingw32/nios2-elf/lib\libc.a(lib_a-lseekr.o)
 .debug_abbrev  0x000000000000e97d      0x22a c:/intelfpga_pro/18.1/nios2eds/bin/gnu/h-x86_64-mingw32/bin/../lib/gcc/nios2-elf/7.3.1/../../../../../H-x86_64-mingw32/nios2-elf/lib\libc.a(lib_a-mbrtowc.o)
 .debug_abbrev  0x000000000000eba7      0x200 c:/intelfpga_pro/18.1/nios2eds/bin/gnu/h-x86_64-mingw32/bin/../lib/gcc/nios2-elf/7.3.1/../../../../../H-x86_64-mingw32/nios2-elf/lib\libc.a(lib_a-readr.o)
 .debug_abbrev  0x000000000000eda7      0x217 c:/intelfpga_pro/18.1/nios2eds/bin/gnu/h-x86_64-mingw32/bin/../lib/gcc/nios2-elf/7.3.1/../../../../../H-x86_64-mingw32/nios2-elf/lib\libc.a(lib_a-sccl.o)
 .debug_abbrev  0x000000000000efbe      0x2c1 c:/intelfpga_pro/18.1/nios2eds/bin/gnu/h-x86_64-mingw32/bin/../lib/gcc/nios2-elf/7.3.1/../../../../../H-x86_64-mingw32/nios2-elf/lib\libc.a(lib_a-strtol.o)
 .debug_abbrev  0x000000000000f27f      0x2dd c:/intelfpga_pro/18.1/nios2eds/bin/gnu/h-x86_64-mingw32/bin/../lib/gcc/nios2-elf/7.3.1/../../../../../H-x86_64-mingw32/nios2-elf/lib\libc.a(lib_a-strtoll.o)
 .debug_abbrev  0x000000000000f55c      0x2dd c:/intelfpga_pro/18.1/nios2eds/bin/gnu/h-x86_64-mingw32/bin/../lib/gcc/nios2-elf/7.3.1/../../../../../H-x86_64-mingw32/nios2-elf/lib\libc.a(lib_a-strtoull.o)
 .debug_abbrev  0x000000000000f839      0x239 c:/intelfpga_pro/18.1/nios2eds/bin/gnu/h-x86_64-mingw32/bin/../lib/gcc/nios2-elf/7.3.1/../../../../../H-x86_64-mingw32/nios2-elf/lib\libc.a(lib_a-wcrtomb.o)
 .debug_abbrev  0x000000000000fa72      0x173 c:/intelfpga_pro/18.1/nios2eds/bin/gnu/h-x86_64-mingw32/bin/../lib/gcc/nios2-elf/7.3.1\libgcc.a(eqdf2.o)
 .debug_abbrev  0x000000000000fbe5      0x175 c:/intelfpga_pro/18.1/nios2eds/bin/gnu/h-x86_64-mingw32/bin/../lib/gcc/nios2-elf/7.3.1\libgcc.a(ledf2.o)
 .debug_abbrev  0x000000000000fd5a      0x164 c:/intelfpga_pro/18.1/nios2eds/bin/gnu/h-x86_64-mingw32/bin/../lib/gcc/nios2-elf/7.3.1\libgcc.a(unorddf2.o)
 .debug_abbrev  0x000000000000febe      0x16c c:/intelfpga_pro/18.1/nios2eds/bin/gnu/h-x86_64-mingw32/bin/../lib/gcc/nios2-elf/7.3.1\libgcc.a(floatsidf.o)
 .debug_abbrev  0x000000000001002a      0x20d C:/Git/ArrowESC/Cyclone10GX_Rev2_Demo/software/C10GX_SoM_Rev2_Demo_bsp/\libhal_bsp.a(alt_close.o)
 .debug_abbrev  0x0000000000010237      0x1e3 C:/Git/ArrowESC/Cyclone10GX_Rev2_Demo/software/C10GX_SoM_Rev2_Demo_bsp/\libhal_bsp.a(alt_dcache_flush.o)
 .debug_abbrev  0x000000000001041a      0x1fe C:/Git/ArrowESC/Cyclone10GX_Rev2_Demo/software/C10GX_SoM_Rev2_Demo_bsp/\libhal_bsp.a(alt_dev.o)
 .debug_abbrev  0x0000000000010618      0x232 C:/Git/ArrowESC/Cyclone10GX_Rev2_Demo/software/C10GX_SoM_Rev2_Demo_bsp/\libhal_bsp.a(alt_dev_llist_insert.o)
 .debug_abbrev  0x000000000001084a      0x1ce C:/Git/ArrowESC/Cyclone10GX_Rev2_Demo/software/C10GX_SoM_Rev2_Demo_bsp/\libhal_bsp.a(alt_env_lock.o)
 .debug_abbrev  0x0000000000010a18      0x1b5 C:/Git/ArrowESC/Cyclone10GX_Rev2_Demo/software/C10GX_SoM_Rev2_Demo_bsp/\libhal_bsp.a(alt_errno.o)
 .debug_abbrev  0x0000000000010bcd      0x20d C:/Git/ArrowESC/Cyclone10GX_Rev2_Demo/software/C10GX_SoM_Rev2_Demo_bsp/\libhal_bsp.a(alt_fstat.o)
 .debug_abbrev  0x0000000000010dda      0x1b6 C:/Git/ArrowESC/Cyclone10GX_Rev2_Demo/software/C10GX_SoM_Rev2_Demo_bsp/\libhal_bsp.a(alt_icache_flush_all.o)
 .debug_abbrev  0x0000000000010f90      0x2af C:/Git/ArrowESC/Cyclone10GX_Rev2_Demo/software/C10GX_SoM_Rev2_Demo_bsp/\libhal_bsp.a(alt_iic.o)
 .debug_abbrev  0x000000000001123f      0x272 C:/Git/ArrowESC/Cyclone10GX_Rev2_Demo/software/C10GX_SoM_Rev2_Demo_bsp/\libhal_bsp.a(alt_iic_isr_register.o)
 .debug_abbrev  0x00000000000114b1       0xaf C:/Git/ArrowESC/Cyclone10GX_Rev2_Demo/software/C10GX_SoM_Rev2_Demo_bsp/\libhal_bsp.a(alt_instruction_exception_register.o)
 .debug_abbrev  0x0000000000011560       0x12 C:/Git/ArrowESC/Cyclone10GX_Rev2_Demo/software/C10GX_SoM_Rev2_Demo_bsp/\libhal_bsp.a(alt_irq_entry.o)
 .debug_abbrev  0x0000000000011572      0x23c C:/Git/ArrowESC/Cyclone10GX_Rev2_Demo/software/C10GX_SoM_Rev2_Demo_bsp/\libhal_bsp.a(alt_irq_handler.o)
 .debug_abbrev  0x00000000000117ae       0x40 C:/Git/ArrowESC/Cyclone10GX_Rev2_Demo/software/C10GX_SoM_Rev2_Demo_bsp/\libhal_bsp.a(alt_irq_vars.o)
 .debug_abbrev  0x00000000000117ee      0x20d C:/Git/ArrowESC/Cyclone10GX_Rev2_Demo/software/C10GX_SoM_Rev2_Demo_bsp/\libhal_bsp.a(alt_isatty.o)
 .debug_abbrev  0x00000000000119fb      0x1ec C:/Git/ArrowESC/Cyclone10GX_Rev2_Demo/software/C10GX_SoM_Rev2_Demo_bsp/\libhal_bsp.a(alt_load.o)
 .debug_abbrev  0x0000000000011be7      0x20d C:/Git/ArrowESC/Cyclone10GX_Rev2_Demo/software/C10GX_SoM_Rev2_Demo_bsp/\libhal_bsp.a(alt_lseek.o)
 .debug_abbrev  0x0000000000011df4      0x1ee C:/Git/ArrowESC/Cyclone10GX_Rev2_Demo/software/C10GX_SoM_Rev2_Demo_bsp/\libhal_bsp.a(alt_main.o)
 .debug_abbrev  0x0000000000011fe2      0x1ce C:/Git/ArrowESC/Cyclone10GX_Rev2_Demo/software/C10GX_SoM_Rev2_Demo_bsp/\libhal_bsp.a(alt_malloc_lock.o)
 .debug_abbrev  0x00000000000121b0       0xb0 C:/Git/ArrowESC/Cyclone10GX_Rev2_Demo/software/C10GX_SoM_Rev2_Demo_bsp/\libhal_bsp.a(alt_printf.o)
 .debug_abbrev  0x0000000000012260      0x1b6 C:/Git/ArrowESC/Cyclone10GX_Rev2_Demo/software/C10GX_SoM_Rev2_Demo_bsp/\libhal_bsp.a(alt_putchar.o)
 .debug_abbrev  0x0000000000012416      0x21c C:/Git/ArrowESC/Cyclone10GX_Rev2_Demo/software/C10GX_SoM_Rev2_Demo_bsp/\libhal_bsp.a(alt_read.o)
 .debug_abbrev  0x0000000000012632       0xdc C:/Git/ArrowESC/Cyclone10GX_Rev2_Demo/software/C10GX_SoM_Rev2_Demo_bsp/\libhal_bsp.a(alt_release_fd.o)
 .debug_abbrev  0x000000000001270e      0x254 C:/Git/ArrowESC/Cyclone10GX_Rev2_Demo/software/C10GX_SoM_Rev2_Demo_bsp/\libhal_bsp.a(alt_sbrk.o)
 .debug_abbrev  0x0000000000012962       0x7a C:/Git/ArrowESC/Cyclone10GX_Rev2_Demo/software/C10GX_SoM_Rev2_Demo_bsp/\libhal_bsp.a(alt_usleep.o)
 .debug_abbrev  0x00000000000129dc      0x221 C:/Git/ArrowESC/Cyclone10GX_Rev2_Demo/software/C10GX_SoM_Rev2_Demo_bsp/\libhal_bsp.a(alt_write.o)
 .debug_abbrev  0x0000000000012bfd      0x251 C:/Git/ArrowESC/Cyclone10GX_Rev2_Demo/software/C10GX_SoM_Rev2_Demo_bsp/\libhal_bsp.a(alt_sys_init.o)
 .debug_abbrev  0x0000000000012e4e      0x3ec C:/Git/ArrowESC/Cyclone10GX_Rev2_Demo/software/C10GX_SoM_Rev2_Demo_bsp/\libhal_bsp.a(altera_avalon_i2c.o)
 .debug_abbrev  0x000000000001323a      0x141 C:/Git/ArrowESC/Cyclone10GX_Rev2_Demo/software/C10GX_SoM_Rev2_Demo_bsp/\libhal_bsp.a(altera_avalon_jtag_uart_fd.o)
 .debug_abbrev  0x000000000001337b      0x292 C:/Git/ArrowESC/Cyclone10GX_Rev2_Demo/software/C10GX_SoM_Rev2_Demo_bsp/\libhal_bsp.a(altera_avalon_jtag_uart_init.o)
 .debug_abbrev  0x000000000001360d      0x205 C:/Git/ArrowESC/Cyclone10GX_Rev2_Demo/software/C10GX_SoM_Rev2_Demo_bsp/\libhal_bsp.a(altera_avalon_jtag_uart_ioctl.o)
 .debug_abbrev  0x0000000000013812      0x29c C:/Git/ArrowESC/Cyclone10GX_Rev2_Demo/software/C10GX_SoM_Rev2_Demo_bsp/\libhal_bsp.a(altera_avalon_jtag_uart_read.o)
 .debug_abbrev  0x0000000000013aae      0x293 C:/Git/ArrowESC/Cyclone10GX_Rev2_Demo/software/C10GX_SoM_Rev2_Demo_bsp/\libhal_bsp.a(altera_avalon_jtag_uart_write.o)
 .debug_abbrev  0x0000000000013d41      0x293 C:/Git/ArrowESC/Cyclone10GX_Rev2_Demo/software/C10GX_SoM_Rev2_Demo_bsp/\libhal_bsp.a(altera_avalon_timer_sc.o)
 .debug_abbrev  0x0000000000013fd4      0x206 C:/Git/ArrowESC/Cyclone10GX_Rev2_Demo/software/C10GX_SoM_Rev2_Demo_bsp/\libhal_bsp.a(altera_avalon_timer_ts.o)
 .debug_abbrev  0x00000000000141da      0x1a7 C:/Git/ArrowESC/Cyclone10GX_Rev2_Demo/software/C10GX_SoM_Rev2_Demo_bsp/\libhal_bsp.a(altera_avalon_timer_vars.o)
 .debug_abbrev  0x0000000000014381      0x331 C:/Git/ArrowESC/Cyclone10GX_Rev2_Demo/software/C10GX_SoM_Rev2_Demo_bsp/\libhal_bsp.a(altera_avalon_tse.o)
 .debug_abbrev  0x00000000000146b2      0x1b7 C:/Git/ArrowESC/Cyclone10GX_Rev2_Demo/software/C10GX_SoM_Rev2_Demo_bsp/\libhal_bsp.a(altera_avalon_tse_system_info.o)
 .debug_abbrev  0x0000000000014869      0x29a C:/Git/ArrowESC/Cyclone10GX_Rev2_Demo/software/C10GX_SoM_Rev2_Demo_bsp/\libhal_bsp.a(altera_generic_quad_spi_controller2.o)
 .debug_abbrev  0x0000000000014b03      0x405 C:/Git/ArrowESC/Cyclone10GX_Rev2_Demo/software/C10GX_SoM_Rev2_Demo_bsp/\libhal_bsp.a(altera_msgdma.o)
 .debug_abbrev  0x0000000000014f08      0x28c C:/Git/ArrowESC/Cyclone10GX_Rev2_Demo/software/C10GX_SoM_Rev2_Demo_bsp/\libhal_bsp.a(alt_alarm_start.o)
 .debug_abbrev  0x0000000000015194      0x1d4 C:/Git/ArrowESC/Cyclone10GX_Rev2_Demo/software/C10GX_SoM_Rev2_Demo_bsp/\libhal_bsp.a(alt_busy_sleep.o)
 .debug_abbrev  0x0000000000015368      0x1c5 C:/Git/ArrowESC/Cyclone10GX_Rev2_Demo/software/C10GX_SoM_Rev2_Demo_bsp/\libhal_bsp.a(alt_dcache_flush_all.o)
 .debug_abbrev  0x000000000001552d       0x79 C:/Git/ArrowESC/Cyclone10GX_Rev2_Demo/software/C10GX_SoM_Rev2_Demo_bsp/\libhal_bsp.a(alt_do_ctors.o)
 .debug_abbrev  0x00000000000155a6       0x79 C:/Git/ArrowESC/Cyclone10GX_Rev2_Demo/software/C10GX_SoM_Rev2_Demo_bsp/\libhal_bsp.a(alt_do_dtors.o)
 .debug_abbrev  0x000000000001561f       0x12 C:/Git/ArrowESC/Cyclone10GX_Rev2_Demo/software/C10GX_SoM_Rev2_Demo_bsp/\libhal_bsp.a(alt_exception_entry.o)
 .debug_abbrev  0x0000000000015631      0x1ea C:/Git/ArrowESC/Cyclone10GX_Rev2_Demo/software/C10GX_SoM_Rev2_Demo_bsp/\libhal_bsp.a(alt_find_dev.o)
 .debug_abbrev  0x000000000001581b      0x236 C:/Git/ArrowESC/Cyclone10GX_Rev2_Demo/software/C10GX_SoM_Rev2_Demo_bsp/\libhal_bsp.a(alt_flash_dev.o)
 .debug_abbrev  0x0000000000015a51      0x1e3 C:/Git/ArrowESC/Cyclone10GX_Rev2_Demo/software/C10GX_SoM_Rev2_Demo_bsp/\libhal_bsp.a(alt_icache_flush.o)
 .debug_abbrev  0x0000000000015c34       0xdc C:/Git/ArrowESC/Cyclone10GX_Rev2_Demo/software/C10GX_SoM_Rev2_Demo_bsp/\libhal_bsp.a(alt_instruction_exception_entry.o)
 .debug_abbrev  0x0000000000015d10      0x200 C:/Git/ArrowESC/Cyclone10GX_Rev2_Demo/software/C10GX_SoM_Rev2_Demo_bsp/\libhal_bsp.a(alt_io_redirect.o)
 .debug_abbrev  0x0000000000015f10      0x236 C:/Git/ArrowESC/Cyclone10GX_Rev2_Demo/software/C10GX_SoM_Rev2_Demo_bsp/\libhal_bsp.a(alt_open.o)
 .debug_abbrev  0x0000000000016146      0x280 C:/Git/ArrowESC/Cyclone10GX_Rev2_Demo/software/C10GX_SoM_Rev2_Demo_bsp/\libhal_bsp.a(alt_tick.o)
 .debug_abbrev  0x00000000000163c6      0x1bb C:/Git/ArrowESC/Cyclone10GX_Rev2_Demo/software/C10GX_SoM_Rev2_Demo_bsp/\libhal_bsp.a(altera_nios2_gen2_irq.o)
 .debug_abbrev  0x0000000000016581      0x1ea C:/Git/ArrowESC/Cyclone10GX_Rev2_Demo/software/C10GX_SoM_Rev2_Demo_bsp/\libhal_bsp.a(alt_find_file.o)
 .debug_abbrev  0x000000000001676b      0x1fb C:/Git/ArrowESC/Cyclone10GX_Rev2_Demo/software/C10GX_SoM_Rev2_Demo_bsp/\libhal_bsp.a(alt_get_fd.o)
 .debug_abbrev  0x0000000000016966      0x210 c:/intelfpga_pro/18.1/nios2eds/bin/gnu/h-x86_64-mingw32/bin/../lib/gcc/nios2-elf/7.3.1/../../../../../H-x86_64-mingw32/nios2-elf/lib\libc.a(lib_a-atexit.o)
 .debug_abbrev  0x0000000000016b76      0x1ff c:/intelfpga_pro/18.1/nios2eds/bin/gnu/h-x86_64-mingw32/bin/../lib/gcc/nios2-elf/7.3.1/../../../../../H-x86_64-mingw32/nios2-elf/lib\libc.a(lib_a-exit.o)
 .debug_abbrev  0x0000000000016d75      0x23a c:/intelfpga_pro/18.1/nios2eds/bin/gnu/h-x86_64-mingw32/bin/../lib/gcc/nios2-elf/7.3.1/../../../../../H-x86_64-mingw32/nios2-elf/lib\libc.a(lib_a-__atexit.o)
 .debug_abbrev  0x0000000000016faf      0x248 c:/intelfpga_pro/18.1/nios2eds/bin/gnu/h-x86_64-mingw32/bin/../lib/gcc/nios2-elf/7.3.1/../../../../../H-x86_64-mingw32/nios2-elf/lib\libc.a(lib_a-__call_atexit.o)
 .debug_abbrev  0x00000000000171f7      0x222 C:/Git/ArrowESC/Cyclone10GX_Rev2_Demo/software/C10GX_SoM_Rev2_Demo_bsp/\libhal_bsp.a(alt_exit.o)

.debug_line     0x0000000000000000    0x1cc3a
 *(.debug_line)
 .debug_line    0x0000000000000000       0x72 C:/Git/ArrowESC/Cyclone10GX_Rev2_Demo/software/C10GX_SoM_Rev2_Demo_bsp//obj/HAL/src/crt0.o
 .debug_line    0x0000000000000072      0x11d obj/default/crc.o
 .debug_line    0x000000000000018f      0x848 obj/default/ethernet.o
 .debug_line    0x00000000000009d7      0x4af obj/default/fmc/ad9144/ad9144.o
 .debug_line    0x0000000000000e86      0x668 obj/default/fmc/ad9523/ad9523.o
 .debug_line    0x00000000000014ee      0x2a0 obj/default/fmc/ad9680/ad9680.o
 .debug_line    0x000000000000178e      0x463 obj/default/fmc/common_drivers/adc_core/adc_core.o
 .debug_line    0x0000000000001bf1       0x8c obj/default/fmc/common_drivers/communication/generic/Communication.o
 .debug_line    0x0000000000001c7d      0x25e obj/default/fmc/common_drivers/dac_buffer/dac_buffer.o
 .debug_line    0x0000000000001edb      0x2ec obj/default/fmc/common_drivers/dac_core/dac_core.o
 .debug_line    0x00000000000021c7      0x265 obj/default/fmc/common_drivers/dmac_core/dmac_core.o
 .debug_line    0x000000000000242c      0x563 obj/default/fmc/common_drivers/fru_tools/fru_tools.o
 .debug_line    0x000000000000298f      0x406 obj/default/fmc/common_drivers/jesd_core/jesd_core.o
 .debug_line    0x0000000000002d95      0x34a obj/default/fmc/common_drivers/platform_drivers/platform_drivers.o
 .debug_line    0x00000000000030df      0x369 obj/default/fmc/common_drivers/xcvr_core/xcvr_core.o
 .debug_line    0x0000000000003448      0x3c4 obj/default/fmc/common_drivers/xcvr_core/xcvr_modules/altera_a10_atx_pll.o
 .debug_line    0x000000000000380c      0x378 obj/default/fmc/common_drivers/xcvr_core/xcvr_modules/altera_a10_fpll.o
 .debug_line    0x0000000000003b84      0x4cb obj/default/fmc/common_drivers/xcvr_core/xcvr_modules/altera_a10_xcvr_channel.o
 .debug_line    0x000000000000404f      0x2cd obj/default/fmc/common_drivers/xcvr_core/xcvr_modules/altera_pll_common.o
 .debug_line    0x000000000000431c      0x152 obj/default/fmc/common_drivers/xcvr_core/xcvr_modules/xilinx_qpll.o
 .debug_line    0x000000000000446e      0x152 obj/default/fmc/common_drivers/xcvr_core/xcvr_modules/xilinx_xcvr_channel.o
 .debug_line    0x00000000000045c0      0x290 obj/default/iioscope.o
 .debug_line    0x0000000000004850      0x5fd obj/default/jesd204b.o
 .debug_line    0x0000000000004e4d      0x2bb obj/default/main.o
 .debug_line    0x0000000000005108       0x5f obj/default/support.o
 .debug_line    0x0000000000005167       0xe3 c:/intelfpga_pro/18.1/nios2eds/bin/gnu/h-x86_64-mingw32/bin/../lib/gcc/nios2-elf/7.3.1\libgcc.a(_muldi3.o)
 .debug_line    0x000000000000524a       0xc4 c:/intelfpga_pro/18.1/nios2eds/bin/gnu/h-x86_64-mingw32/bin/../lib/gcc/nios2-elf/7.3.1\libgcc.a(_bswapsi2.o)
 .debug_line    0x000000000000530e       0xc3 c:/intelfpga_pro/18.1/nios2eds/bin/gnu/h-x86_64-mingw32/bin/../lib/gcc/nios2-elf/7.3.1\libgcc.a(_fixunsdfsi.o)
 .debug_line    0x00000000000053d1       0xc5 c:/intelfpga_pro/18.1/nios2eds/bin/gnu/h-x86_64-mingw32/bin/../lib/gcc/nios2-elf/7.3.1\libgcc.a(_fixunsdfdi.o)
 .debug_line    0x0000000000005496      0x15d c:/intelfpga_pro/18.1/nios2eds/bin/gnu/h-x86_64-mingw32/bin/../lib/gcc/nios2-elf/7.3.1\libgcc.a(_udivdi3.o)
 .debug_line    0x00000000000055f3      0x166 c:/intelfpga_pro/18.1/nios2eds/bin/gnu/h-x86_64-mingw32/bin/../lib/gcc/nios2-elf/7.3.1\libgcc.a(_umoddi3.o)
 .debug_line    0x0000000000005759      0x10d c:/intelfpga_pro/18.1/nios2eds/bin/gnu/h-x86_64-mingw32/bin/../lib/gcc/nios2-elf/7.3.1\libgcc.a(lib2-divmod.o)
 .debug_line    0x0000000000005866      0x3d2 c:/intelfpga_pro/18.1/nios2eds/bin/gnu/h-x86_64-mingw32/bin/../lib/gcc/nios2-elf/7.3.1\libgcc.a(adddf3.o)
 .debug_line    0x0000000000005c38      0x2db c:/intelfpga_pro/18.1/nios2eds/bin/gnu/h-x86_64-mingw32/bin/../lib/gcc/nios2-elf/7.3.1\libgcc.a(divdf3.o)
 .debug_line    0x0000000000005f13      0x119 c:/intelfpga_pro/18.1/nios2eds/bin/gnu/h-x86_64-mingw32/bin/../lib/gcc/nios2-elf/7.3.1\libgcc.a(gedf2.o)
 .debug_line    0x000000000000602c      0x211 c:/intelfpga_pro/18.1/nios2eds/bin/gnu/h-x86_64-mingw32/bin/../lib/gcc/nios2-elf/7.3.1\libgcc.a(muldf3.o)
 .debug_line    0x000000000000623d      0x3dc c:/intelfpga_pro/18.1/nios2eds/bin/gnu/h-x86_64-mingw32/bin/../lib/gcc/nios2-elf/7.3.1\libgcc.a(subdf3.o)
 .debug_line    0x0000000000006619       0xdb c:/intelfpga_pro/18.1/nios2eds/bin/gnu/h-x86_64-mingw32/bin/../lib/gcc/nios2-elf/7.3.1\libgcc.a(fixdfsi.o)
 .debug_line    0x00000000000066f4       0xce c:/intelfpga_pro/18.1/nios2eds/bin/gnu/h-x86_64-mingw32/bin/../lib/gcc/nios2-elf/7.3.1\libgcc.a(floatunsidf.o)
 .debug_line    0x00000000000067c2      0x109 c:/intelfpga_pro/18.1/nios2eds/bin/gnu/h-x86_64-mingw32/bin/../lib/gcc/nios2-elf/7.3.1\libgcc.a(extendsfdf2.o)
 .debug_line    0x00000000000068cb       0xab c:/intelfpga_pro/18.1/nios2eds/bin/gnu/h-x86_64-mingw32/bin/../lib/gcc/nios2-elf/7.3.1\libgcc.a(_clz.o)
 .debug_line    0x0000000000006976       0xd4 c:/intelfpga_pro/18.1/nios2eds/bin/gnu/h-x86_64-mingw32/bin/../lib/gcc/nios2-elf/7.3.1\libgcc.a(_clzsi2.o)
 .debug_line    0x0000000000006a4a      0x1e2 c:/intelfpga_pro/18.1/nios2eds/bin/gnu/h-x86_64-mingw32/bin/../lib/gcc/nios2-elf/7.3.1/../../../../../H-x86_64-mingw32/nios2-elf/lib\libc.a(lib_a-calloc.o)
 .debug_line    0x0000000000006c2c      0x1bf c:/intelfpga_pro/18.1/nios2eds/bin/gnu/h-x86_64-mingw32/bin/../lib/gcc/nios2-elf/7.3.1/../../../../../H-x86_64-mingw32/nios2-elf/lib\libc.a(lib_a-callocr.o)
 .debug_line    0x0000000000006deb      0x277 c:/intelfpga_pro/18.1/nios2eds/bin/gnu/h-x86_64-mingw32/bin/../lib/gcc/nios2-elf/7.3.1/../../../../../H-x86_64-mingw32/nios2-elf/lib\libc.a(lib_a-getc.o)
 .debug_line    0x0000000000007062      0x161 c:/intelfpga_pro/18.1/nios2eds/bin/gnu/h-x86_64-mingw32/bin/../lib/gcc/nios2-elf/7.3.1/../../../../../H-x86_64-mingw32/nios2-elf/lib\libc.a(lib_a-impure.o)
 .debug_line    0x00000000000071c3      0x332 c:/intelfpga_pro/18.1/nios2eds/bin/gnu/h-x86_64-mingw32/bin/../lib/gcc/nios2-elf/7.3.1/../../../../../H-x86_64-mingw32/nios2-elf/lib\libc.a(lib_a-locale.o)
 .debug_line    0x00000000000074f5      0x202 c:/intelfpga_pro/18.1/nios2eds/bin/gnu/h-x86_64-mingw32/bin/../lib/gcc/nios2-elf/7.3.1/../../../../../H-x86_64-mingw32/nios2-elf/lib\libc.a(lib_a-malloc.o)
 .debug_line    0x00000000000076f7      0x438 c:/intelfpga_pro/18.1/nios2eds/bin/gnu/h-x86_64-mingw32/bin/../lib/gcc/nios2-elf/7.3.1/../../../../../H-x86_64-mingw32/nios2-elf/lib\libc.a(lib_a-mallocr.o)
 .debug_line    0x0000000000007b2f      0x296 c:/intelfpga_pro/18.1/nios2eds/bin/gnu/h-x86_64-mingw32/bin/../lib/gcc/nios2-elf/7.3.1/../../../../../H-x86_64-mingw32/nios2-elf/lib\libc.a(lib_a-mbtowc_r.o)
 .debug_line    0x0000000000007dc5      0x215 c:/intelfpga_pro/18.1/nios2eds/bin/gnu/h-x86_64-mingw32/bin/../lib/gcc/nios2-elf/7.3.1/../../../../../H-x86_64-mingw32/nios2-elf/lib\libc.a(lib_a-memcpy.o)
 .debug_line    0x0000000000007fda      0x292 c:/intelfpga_pro/18.1/nios2eds/bin/gnu/h-x86_64-mingw32/bin/../lib/gcc/nios2-elf/7.3.1/../../../../../H-x86_64-mingw32/nios2-elf/lib\libc.a(lib_a-memset.o)
 .debug_line    0x000000000000826c      0x3e6 c:/intelfpga_pro/18.1/nios2eds/bin/gnu/h-x86_64-mingw32/bin/../lib/gcc/nios2-elf/7.3.1/../../../../../H-x86_64-mingw32/nios2-elf/lib\libc.a(lib_a-mktime.o)
 .debug_line    0x0000000000008652      0x226 c:/intelfpga_pro/18.1/nios2eds/bin/gnu/h-x86_64-mingw32/bin/../lib/gcc/nios2-elf/7.3.1/../../../../../H-x86_64-mingw32/nios2-elf/lib\libc.a(lib_a-printf.o)
 .debug_line    0x0000000000008878      0x219 c:/intelfpga_pro/18.1/nios2eds/bin/gnu/h-x86_64-mingw32/bin/../lib/gcc/nios2-elf/7.3.1/../../../../../H-x86_64-mingw32/nios2-elf/lib\libc.a(lib_a-putchar.o)
 .debug_line    0x0000000000008a91      0x265 c:/intelfpga_pro/18.1/nios2eds/bin/gnu/h-x86_64-mingw32/bin/../lib/gcc/nios2-elf/7.3.1/../../../../../H-x86_64-mingw32/nios2-elf/lib\libc.a(lib_a-puts.o)
 .debug_line    0x0000000000008cf6      0x234 c:/intelfpga_pro/18.1/nios2eds/bin/gnu/h-x86_64-mingw32/bin/../lib/gcc/nios2-elf/7.3.1/../../../../../H-x86_64-mingw32/nios2-elf/lib\libc.a(lib_a-rget.o)
 .debug_line    0x0000000000008f2a      0x1f6 c:/intelfpga_pro/18.1/nios2eds/bin/gnu/h-x86_64-mingw32/bin/../lib/gcc/nios2-elf/7.3.1/../../../../../H-x86_64-mingw32/nios2-elf/lib\libc.a(lib_a-sbrkr.o)
 .debug_line    0x0000000000009120      0x243 c:/intelfpga_pro/18.1/nios2eds/bin/gnu/h-x86_64-mingw32/bin/../lib/gcc/nios2-elf/7.3.1/../../../../../H-x86_64-mingw32/nios2-elf/lib\libc.a(lib_a-sprintf.o)
 .debug_line    0x0000000000009363      0x207 c:/intelfpga_pro/18.1/nios2eds/bin/gnu/h-x86_64-mingw32/bin/../lib/gcc/nios2-elf/7.3.1/../../../../../H-x86_64-mingw32/nios2-elf/lib\libc.a(lib_a-strcmp.o)
 .debug_line    0x000000000000956a      0x1fc c:/intelfpga_pro/18.1/nios2eds/bin/gnu/h-x86_64-mingw32/bin/../lib/gcc/nios2-elf/7.3.1/../../../../../H-x86_64-mingw32/nios2-elf/lib\libc.a(lib_a-strcpy.o)
 .debug_line    0x0000000000009766      0x1f6 c:/intelfpga_pro/18.1/nios2eds/bin/gnu/h-x86_64-mingw32/bin/../lib/gcc/nios2-elf/7.3.1/../../../../../H-x86_64-mingw32/nios2-elf/lib\libc.a(lib_a-strlen.o)
 .debug_line    0x000000000000995c      0xab1 c:/intelfpga_pro/18.1/nios2eds/bin/gnu/h-x86_64-mingw32/bin/../lib/gcc/nios2-elf/7.3.1/../../../../../H-x86_64-mingw32/nios2-elf/lib\libc.a(lib_a-svfprintf.o)
 .debug_line    0x000000000000a40d      0x29c c:/intelfpga_pro/18.1/nios2eds/bin/gnu/h-x86_64-mingw32/bin/../lib/gcc/nios2-elf/7.3.1/../../../../../H-x86_64-mingw32/nios2-elf/lib\libc.a(lib_a-tzcalc_limits.o)
 .debug_line    0x000000000000a6a9      0x1e7 c:/intelfpga_pro/18.1/nios2eds/bin/gnu/h-x86_64-mingw32/bin/../lib/gcc/nios2-elf/7.3.1/../../../../../H-x86_64-mingw32/nios2-elf/lib\libc.a(lib_a-tzlock.o)
 .debug_line    0x000000000000a890      0x1fd c:/intelfpga_pro/18.1/nios2eds/bin/gnu/h-x86_64-mingw32/bin/../lib/gcc/nios2-elf/7.3.1/../../../../../H-x86_64-mingw32/nios2-elf/lib\libc.a(lib_a-tzset.o)
 .debug_line    0x000000000000aa8d      0x325 c:/intelfpga_pro/18.1/nios2eds/bin/gnu/h-x86_64-mingw32/bin/../lib/gcc/nios2-elf/7.3.1/../../../../../H-x86_64-mingw32/nios2-elf/lib\libc.a(lib_a-tzset_r.o)
 .debug_line    0x000000000000adb2      0x18f c:/intelfpga_pro/18.1/nios2eds/bin/gnu/h-x86_64-mingw32/bin/../lib/gcc/nios2-elf/7.3.1/../../../../../H-x86_64-mingw32/nios2-elf/lib\libc.a(lib_a-tzvars.o)
 .debug_line    0x000000000000af41      0xb3b c:/intelfpga_pro/18.1/nios2eds/bin/gnu/h-x86_64-mingw32/bin/../lib/gcc/nios2-elf/7.3.1/../../../../../H-x86_64-mingw32/nios2-elf/lib\libc.a(lib_a-vfprintf.o)
 .debug_line    0x000000000000ba7c      0x286 c:/intelfpga_pro/18.1/nios2eds/bin/gnu/h-x86_64-mingw32/bin/../lib/gcc/nios2-elf/7.3.1/../../../../../H-x86_64-mingw32/nios2-elf/lib\libc.a(lib_a-wctomb_r.o)
 .debug_line    0x000000000000bd02      0x27b c:/intelfpga_pro/18.1/nios2eds/bin/gnu/h-x86_64-mingw32/bin/../lib/gcc/nios2-elf/7.3.1/../../../../../H-x86_64-mingw32/nios2-elf/lib\libc.a(lib_a-wsetup.o)
 .debug_line    0x000000000000bf7d      0x248 c:/intelfpga_pro/18.1/nios2eds/bin/gnu/h-x86_64-mingw32/bin/../lib/gcc/nios2-elf/7.3.1/../../../../../H-x86_64-mingw32/nios2-elf/lib\libc.a(lib_a-ctype_.o)
 .debug_line    0x000000000000c1c5      0x1fc c:/intelfpga_pro/18.1/nios2eds/bin/gnu/h-x86_64-mingw32/bin/../lib/gcc/nios2-elf/7.3.1/../../../../../H-x86_64-mingw32/nios2-elf/lib\libc.a(lib_a-div.o)
 .debug_line    0x000000000000c3c1      0x875 c:/intelfpga_pro/18.1/nios2eds/bin/gnu/h-x86_64-mingw32/bin/../lib/gcc/nios2-elf/7.3.1/../../../../../H-x86_64-mingw32/nios2-elf/lib\libc.a(lib_a-dtoa.o)
 .debug_line    0x000000000000cc36      0x305 c:/intelfpga_pro/18.1/nios2eds/bin/gnu/h-x86_64-mingw32/bin/../lib/gcc/nios2-elf/7.3.1/../../../../../H-x86_64-mingw32/nios2-elf/lib\libc.a(lib_a-fflush.o)
 .debug_line    0x000000000000cf3b      0x393 c:/intelfpga_pro/18.1/nios2eds/bin/gnu/h-x86_64-mingw32/bin/../lib/gcc/nios2-elf/7.3.1/../../../../../H-x86_64-mingw32/nios2-elf/lib\libc.a(lib_a-findfp.o)
 .debug_line    0x000000000000d2ce      0x306 c:/intelfpga_pro/18.1/nios2eds/bin/gnu/h-x86_64-mingw32/bin/../lib/gcc/nios2-elf/7.3.1/../../../../../H-x86_64-mingw32/nios2-elf/lib\libc.a(lib_a-freer.o)
 .debug_line    0x000000000000d5d4      0x392 c:/intelfpga_pro/18.1/nios2eds/bin/gnu/h-x86_64-mingw32/bin/../lib/gcc/nios2-elf/7.3.1/../../../../../H-x86_64-mingw32/nios2-elf/lib\libc.a(lib_a-fvwrite.o)
 .debug_line    0x000000000000d966      0x26e c:/intelfpga_pro/18.1/nios2eds/bin/gnu/h-x86_64-mingw32/bin/../lib/gcc/nios2-elf/7.3.1/../../../../../H-x86_64-mingw32/nios2-elf/lib\libc.a(lib_a-fwalk.o)
 .debug_line    0x000000000000dbd4      0x23f c:/intelfpga_pro/18.1/nios2eds/bin/gnu/h-x86_64-mingw32/bin/../lib/gcc/nios2-elf/7.3.1/../../../../../H-x86_64-mingw32/nios2-elf/lib\libc.a(lib_a-getenv_r.o)
 .debug_line    0x000000000000de13      0x1f8 c:/intelfpga_pro/18.1/nios2eds/bin/gnu/h-x86_64-mingw32/bin/../lib/gcc/nios2-elf/7.3.1/../../../../../H-x86_64-mingw32/nios2-elf/lib\libc.a(lib_a-gettzinfo.o)
 .debug_line    0x000000000000e00b      0x1d2 c:/intelfpga_pro/18.1/nios2eds/bin/gnu/h-x86_64-mingw32/bin/../lib/gcc/nios2-elf/7.3.1/../../../../../H-x86_64-mingw32/nios2-elf/lib\libc.a(lib_a-int_errno.o)
 .debug_line    0x000000000000e1dd      0x243 c:/intelfpga_pro/18.1/nios2eds/bin/gnu/h-x86_64-mingw32/bin/../lib/gcc/nios2-elf/7.3.1/../../../../../H-x86_64-mingw32/nios2-elf/lib\libc.a(lib_a-localeconv.o)
 .debug_line    0x000000000000e420      0x339 c:/intelfpga_pro/18.1/nios2eds/bin/gnu/h-x86_64-mingw32/bin/../lib/gcc/nios2-elf/7.3.1/../../../../../H-x86_64-mingw32/nios2-elf/lib\libc.a(lib_a-makebuf.o)
 .debug_line    0x000000000000e759      0x215 c:/intelfpga_pro/18.1/nios2eds/bin/gnu/h-x86_64-mingw32/bin/../lib/gcc/nios2-elf/7.3.1/../../../../../H-x86_64-mingw32/nios2-elf/lib\libc.a(lib_a-memchr.o)
 .debug_line    0x000000000000e96e      0x28e c:/intelfpga_pro/18.1/nios2eds/bin/gnu/h-x86_64-mingw32/bin/../lib/gcc/nios2-elf/7.3.1/../../../../../H-x86_64-mingw32/nios2-elf/lib\libc.a(lib_a-memmove.o)
 .debug_line    0x000000000000ebfc      0x1de c:/intelfpga_pro/18.1/nios2eds/bin/gnu/h-x86_64-mingw32/bin/../lib/gcc/nios2-elf/7.3.1/../../../../../H-x86_64-mingw32/nios2-elf/lib\libc.a(lib_a-month_lengths.o)
 .debug_line    0x000000000000edda      0x832 c:/intelfpga_pro/18.1/nios2eds/bin/gnu/h-x86_64-mingw32/bin/../lib/gcc/nios2-elf/7.3.1/../../../../../H-x86_64-mingw32/nios2-elf/lib\libc.a(lib_a-mprec.o)
 .debug_line    0x000000000000f60c      0x2ab c:/intelfpga_pro/18.1/nios2eds/bin/gnu/h-x86_64-mingw32/bin/../lib/gcc/nios2-elf/7.3.1/../../../../../H-x86_64-mingw32/nios2-elf/lib\libc.a(lib_a-putc.o)
 .debug_line    0x000000000000f8b7      0x2fc c:/intelfpga_pro/18.1/nios2eds/bin/gnu/h-x86_64-mingw32/bin/../lib/gcc/nios2-elf/7.3.1/../../../../../H-x86_64-mingw32/nios2-elf/lib\libc.a(lib_a-reallocr.o)
 .debug_line    0x000000000000fbb3      0x290 c:/intelfpga_pro/18.1/nios2eds/bin/gnu/h-x86_64-mingw32/bin/../lib/gcc/nios2-elf/7.3.1/../../../../../H-x86_64-mingw32/nios2-elf/lib\libc.a(lib_a-refill.o)
 .debug_line    0x000000000000fe43      0x25a c:/intelfpga_pro/18.1/nios2eds/bin/gnu/h-x86_64-mingw32/bin/../lib/gcc/nios2-elf/7.3.1/../../../../../H-x86_64-mingw32/nios2-elf/lib\libc.a(lib_a-siscanf.o)
 .debug_line    0x000000000001009d      0x298 c:/intelfpga_pro/18.1/nios2eds/bin/gnu/h-x86_64-mingw32/bin/../lib/gcc/nios2-elf/7.3.1/../../../../../H-x86_64-mingw32/nios2-elf/lib\libc.a(lib_a-stdio.o)
 .debug_line    0x0000000000010335      0x229 c:/intelfpga_pro/18.1/nios2eds/bin/gnu/h-x86_64-mingw32/bin/../lib/gcc/nios2-elf/7.3.1/../../../../../H-x86_64-mingw32/nios2-elf/lib\libc.a(lib_a-strncmp.o)
 .debug_line    0x000000000001055e      0x30b c:/intelfpga_pro/18.1/nios2eds/bin/gnu/h-x86_64-mingw32/bin/../lib/gcc/nios2-elf/7.3.1/../../../../../H-x86_64-mingw32/nios2-elf/lib\libc.a(lib_a-strtoul.o)
 .debug_line    0x0000000000010869      0x7eb c:/intelfpga_pro/18.1/nios2eds/bin/gnu/h-x86_64-mingw32/bin/../lib/gcc/nios2-elf/7.3.1/../../../../../H-x86_64-mingw32/nios2-elf/lib\libc.a(lib_a-svfiprintf.o)
 .debug_line    0x0000000000011054      0x733 c:/intelfpga_pro/18.1/nios2eds/bin/gnu/h-x86_64-mingw32/bin/../lib/gcc/nios2-elf/7.3.1/../../../../../H-x86_64-mingw32/nios2-elf/lib\libc.a(lib_a-svfiscanf.o)
 .debug_line    0x0000000000011787      0x2b3 c:/intelfpga_pro/18.1/nios2eds/bin/gnu/h-x86_64-mingw32/bin/../lib/gcc/nios2-elf/7.3.1/../../../../../H-x86_64-mingw32/nios2-elf/lib\libc.a(lib_a-ungetc.o)
 .debug_line    0x0000000000011a3a      0x8d9 c:/intelfpga_pro/18.1/nios2eds/bin/gnu/h-x86_64-mingw32/bin/../lib/gcc/nios2-elf/7.3.1/../../../../../H-x86_64-mingw32/nios2-elf/lib\libc.a(lib_a-vfiprintf.o)
 .debug_line    0x0000000000012313      0x299 c:/intelfpga_pro/18.1/nios2eds/bin/gnu/h-x86_64-mingw32/bin/../lib/gcc/nios2-elf/7.3.1/../../../../../H-x86_64-mingw32/nios2-elf/lib\libc.a(lib_a-wbuf.o)
 .debug_line    0x00000000000125ac      0x1f7 c:/intelfpga_pro/18.1/nios2eds/bin/gnu/h-x86_64-mingw32/bin/../lib/gcc/nios2-elf/7.3.1/../../../../../H-x86_64-mingw32/nios2-elf/lib\libc.a(lib_a-writer.o)
 .debug_line    0x00000000000127a3      0x1f7 c:/intelfpga_pro/18.1/nios2eds/bin/gnu/h-x86_64-mingw32/bin/../lib/gcc/nios2-elf/7.3.1/../../../../../H-x86_64-mingw32/nios2-elf/lib\libc.a(closer.o)
 .debug_line    0x000000000001299a       0x5d c:/intelfpga_pro/18.1/nios2eds/bin/gnu/h-x86_64-mingw32/bin/../lib/gcc/nios2-elf/7.3.1/../../../../../H-x86_64-mingw32/nios2-elf/lib\libc.a(lib_a-environ.o)
 .debug_line    0x00000000000129f7      0x248 c:/intelfpga_pro/18.1/nios2eds/bin/gnu/h-x86_64-mingw32/bin/../lib/gcc/nios2-elf/7.3.1/../../../../../H-x86_64-mingw32/nios2-elf/lib\libc.a(lib_a-fclose.o)
 .debug_line    0x0000000000012c3f      0x2b9 c:/intelfpga_pro/18.1/nios2eds/bin/gnu/h-x86_64-mingw32/bin/../lib/gcc/nios2-elf/7.3.1/../../../../../H-x86_64-mingw32/nios2-elf/lib\libc.a(lib_a-fputwc.o)
 .debug_line    0x0000000000012ef8      0x2a3 c:/intelfpga_pro/18.1/nios2eds/bin/gnu/h-x86_64-mingw32/bin/../lib/gcc/nios2-elf/7.3.1/../../../../../H-x86_64-mingw32/nios2-elf/lib\libc.a(lib_a-fstatr.o)
 .debug_line    0x000000000001319b      0x1f8 c:/intelfpga_pro/18.1/nios2eds/bin/gnu/h-x86_64-mingw32/bin/../lib/gcc/nios2-elf/7.3.1/../../../../../H-x86_64-mingw32/nios2-elf/lib\libc.a(lib_a-isattyr.o)
 .debug_line    0x0000000000013393      0x271 c:/intelfpga_pro/18.1/nios2eds/bin/gnu/h-x86_64-mingw32/bin/../lib/gcc/nios2-elf/7.3.1/../../../../../H-x86_64-mingw32/nios2-elf/lib\libc.a(lib_a-iswspace.o)
 .debug_line    0x0000000000013604      0x1f7 c:/intelfpga_pro/18.1/nios2eds/bin/gnu/h-x86_64-mingw32/bin/../lib/gcc/nios2-elf/7.3.1/../../../../../H-x86_64-mingw32/nios2-elf/lib\libc.a(lib_a-lseekr.o)
 .debug_line    0x00000000000137fb      0x2c5 c:/intelfpga_pro/18.1/nios2eds/bin/gnu/h-x86_64-mingw32/bin/../lib/gcc/nios2-elf/7.3.1/../../../../../H-x86_64-mingw32/nios2-elf/lib\libc.a(lib_a-mbrtowc.o)
 .debug_line    0x0000000000013ac0      0x1f6 c:/intelfpga_pro/18.1/nios2eds/bin/gnu/h-x86_64-mingw32/bin/../lib/gcc/nios2-elf/7.3.1/../../../../../H-x86_64-mingw32/nios2-elf/lib\libc.a(lib_a-readr.o)
 .debug_line    0x0000000000013cb6      0x23a c:/intelfpga_pro/18.1/nios2eds/bin/gnu/h-x86_64-mingw32/bin/../lib/gcc/nios2-elf/7.3.1/../../../../../H-x86_64-mingw32/nios2-elf/lib\libc.a(lib_a-sccl.o)
 .debug_line    0x0000000000013ef0      0x30d c:/intelfpga_pro/18.1/nios2eds/bin/gnu/h-x86_64-mingw32/bin/../lib/gcc/nios2-elf/7.3.1/../../../../../H-x86_64-mingw32/nios2-elf/lib\libc.a(lib_a-strtol.o)
 .debug_line    0x00000000000141fd      0x320 c:/intelfpga_pro/18.1/nios2eds/bin/gnu/h-x86_64-mingw32/bin/../lib/gcc/nios2-elf/7.3.1/../../../../../H-x86_64-mingw32/nios2-elf/lib\libc.a(lib_a-strtoll.o)
 .debug_line    0x000000000001451d      0x317 c:/intelfpga_pro/18.1/nios2eds/bin/gnu/h-x86_64-mingw32/bin/../lib/gcc/nios2-elf/7.3.1/../../../../../H-x86_64-mingw32/nios2-elf/lib\libc.a(lib_a-strtoull.o)
 .debug_line    0x0000000000014834      0x2c5 c:/intelfpga_pro/18.1/nios2eds/bin/gnu/h-x86_64-mingw32/bin/../lib/gcc/nios2-elf/7.3.1/../../../../../H-x86_64-mingw32/nios2-elf/lib\libc.a(lib_a-wcrtomb.o)
 .debug_line    0x0000000000014af9       0xe5 c:/intelfpga_pro/18.1/nios2eds/bin/gnu/h-x86_64-mingw32/bin/../lib/gcc/nios2-elf/7.3.1\libgcc.a(eqdf2.o)
 .debug_line    0x0000000000014bde      0x119 c:/intelfpga_pro/18.1/nios2eds/bin/gnu/h-x86_64-mingw32/bin/../lib/gcc/nios2-elf/7.3.1\libgcc.a(ledf2.o)
 .debug_line    0x0000000000014cf7       0xcc c:/intelfpga_pro/18.1/nios2eds/bin/gnu/h-x86_64-mingw32/bin/../lib/gcc/nios2-elf/7.3.1\libgcc.a(unorddf2.o)
 .debug_line    0x0000000000014dc3       0xd7 c:/intelfpga_pro/18.1/nios2eds/bin/gnu/h-x86_64-mingw32/bin/../lib/gcc/nios2-elf/7.3.1\libgcc.a(floatsidf.o)
 .debug_line    0x0000000000014e9a      0x1f4 C:/Git/ArrowESC/Cyclone10GX_Rev2_Demo/software/C10GX_SoM_Rev2_Demo_bsp/\libhal_bsp.a(alt_close.o)
 .debug_line    0x000000000001508e      0x1a5 C:/Git/ArrowESC/Cyclone10GX_Rev2_Demo/software/C10GX_SoM_Rev2_Demo_bsp/\libhal_bsp.a(alt_dcache_flush.o)
 .debug_line    0x0000000000015233      0x286 C:/Git/ArrowESC/Cyclone10GX_Rev2_Demo/software/C10GX_SoM_Rev2_Demo_bsp/\libhal_bsp.a(alt_dev.o)
 .debug_line    0x00000000000154b9      0x1ad C:/Git/ArrowESC/Cyclone10GX_Rev2_Demo/software/C10GX_SoM_Rev2_Demo_bsp/\libhal_bsp.a(alt_dev_llist_insert.o)
 .debug_line    0x0000000000015666      0x11d C:/Git/ArrowESC/Cyclone10GX_Rev2_Demo/software/C10GX_SoM_Rev2_Demo_bsp/\libhal_bsp.a(alt_env_lock.o)
 .debug_line    0x0000000000015783      0x12f C:/Git/ArrowESC/Cyclone10GX_Rev2_Demo/software/C10GX_SoM_Rev2_Demo_bsp/\libhal_bsp.a(alt_errno.o)
 .debug_line    0x00000000000158b2      0x2ab C:/Git/ArrowESC/Cyclone10GX_Rev2_Demo/software/C10GX_SoM_Rev2_Demo_bsp/\libhal_bsp.a(alt_fstat.o)
 .debug_line    0x0000000000015b5d      0x179 C:/Git/ArrowESC/Cyclone10GX_Rev2_Demo/software/C10GX_SoM_Rev2_Demo_bsp/\libhal_bsp.a(alt_icache_flush_all.o)
 .debug_line    0x0000000000015cd6      0x1c9 C:/Git/ArrowESC/Cyclone10GX_Rev2_Demo/software/C10GX_SoM_Rev2_Demo_bsp/\libhal_bsp.a(alt_iic.o)
 .debug_line    0x0000000000015e9f      0x1b9 C:/Git/ArrowESC/Cyclone10GX_Rev2_Demo/software/C10GX_SoM_Rev2_Demo_bsp/\libhal_bsp.a(alt_iic_isr_register.o)
 .debug_line    0x0000000000016058       0xcd C:/Git/ArrowESC/Cyclone10GX_Rev2_Demo/software/C10GX_SoM_Rev2_Demo_bsp/\libhal_bsp.a(alt_instruction_exception_register.o)
 .debug_line    0x0000000000016125       0x6b C:/Git/ArrowESC/Cyclone10GX_Rev2_Demo/software/C10GX_SoM_Rev2_Demo_bsp/\libhal_bsp.a(alt_irq_entry.o)
 .debug_line    0x0000000000016190      0x18c C:/Git/ArrowESC/Cyclone10GX_Rev2_Demo/software/C10GX_SoM_Rev2_Demo_bsp/\libhal_bsp.a(alt_irq_handler.o)
 .debug_line    0x000000000001631c       0x50 C:/Git/ArrowESC/Cyclone10GX_Rev2_Demo/software/C10GX_SoM_Rev2_Demo_bsp/\libhal_bsp.a(alt_irq_vars.o)
 .debug_line    0x000000000001636c      0x2ac C:/Git/ArrowESC/Cyclone10GX_Rev2_Demo/software/C10GX_SoM_Rev2_Demo_bsp/\libhal_bsp.a(alt_isatty.o)
 .debug_line    0x0000000000016618      0x1b7 C:/Git/ArrowESC/Cyclone10GX_Rev2_Demo/software/C10GX_SoM_Rev2_Demo_bsp/\libhal_bsp.a(alt_load.o)
 .debug_line    0x00000000000167cf      0x1e6 C:/Git/ArrowESC/Cyclone10GX_Rev2_Demo/software/C10GX_SoM_Rev2_Demo_bsp/\libhal_bsp.a(alt_lseek.o)
 .debug_line    0x00000000000169b5      0x29d C:/Git/ArrowESC/Cyclone10GX_Rev2_Demo/software/C10GX_SoM_Rev2_Demo_bsp/\libhal_bsp.a(alt_main.o)
 .debug_line    0x0000000000016c52      0x120 C:/Git/ArrowESC/Cyclone10GX_Rev2_Demo/software/C10GX_SoM_Rev2_Demo_bsp/\libhal_bsp.a(alt_malloc_lock.o)
 .debug_line    0x0000000000016d72       0xee C:/Git/ArrowESC/Cyclone10GX_Rev2_Demo/software/C10GX_SoM_Rev2_Demo_bsp/\libhal_bsp.a(alt_printf.o)
 .debug_line    0x0000000000016e60      0x11d C:/Git/ArrowESC/Cyclone10GX_Rev2_Demo/software/C10GX_SoM_Rev2_Demo_bsp/\libhal_bsp.a(alt_putchar.o)
 .debug_line    0x0000000000016f7d      0x2c2 C:/Git/ArrowESC/Cyclone10GX_Rev2_Demo/software/C10GX_SoM_Rev2_Demo_bsp/\libhal_bsp.a(alt_read.o)
 .debug_line    0x000000000001723f       0xae C:/Git/ArrowESC/Cyclone10GX_Rev2_Demo/software/C10GX_SoM_Rev2_Demo_bsp/\libhal_bsp.a(alt_release_fd.o)
 .debug_line    0x00000000000172ed      0x182 C:/Git/ArrowESC/Cyclone10GX_Rev2_Demo/software/C10GX_SoM_Rev2_Demo_bsp/\libhal_bsp.a(alt_sbrk.o)
 .debug_line    0x000000000001746f       0xb8 C:/Git/ArrowESC/Cyclone10GX_Rev2_Demo/software/C10GX_SoM_Rev2_Demo_bsp/\libhal_bsp.a(alt_usleep.o)
 .debug_line    0x0000000000017527      0x2c1 C:/Git/ArrowESC/Cyclone10GX_Rev2_Demo/software/C10GX_SoM_Rev2_Demo_bsp/\libhal_bsp.a(alt_write.o)
 .debug_line    0x00000000000177e8      0x29a C:/Git/ArrowESC/Cyclone10GX_Rev2_Demo/software/C10GX_SoM_Rev2_Demo_bsp/\libhal_bsp.a(alt_sys_init.o)
 .debug_line    0x0000000000017a82      0x60b C:/Git/ArrowESC/Cyclone10GX_Rev2_Demo/software/C10GX_SoM_Rev2_Demo_bsp/\libhal_bsp.a(altera_avalon_i2c.o)
 .debug_line    0x000000000001808d      0x12f C:/Git/ArrowESC/Cyclone10GX_Rev2_Demo/software/C10GX_SoM_Rev2_Demo_bsp/\libhal_bsp.a(altera_avalon_jtag_uart_fd.o)
 .debug_line    0x00000000000181bc      0x2b3 C:/Git/ArrowESC/Cyclone10GX_Rev2_Demo/software/C10GX_SoM_Rev2_Demo_bsp/\libhal_bsp.a(altera_avalon_jtag_uart_init.o)
 .debug_line    0x000000000001846f      0x256 C:/Git/ArrowESC/Cyclone10GX_Rev2_Demo/software/C10GX_SoM_Rev2_Demo_bsp/\libhal_bsp.a(altera_avalon_jtag_uart_ioctl.o)
 .debug_line    0x00000000000186c5      0x296 C:/Git/ArrowESC/Cyclone10GX_Rev2_Demo/software/C10GX_SoM_Rev2_Demo_bsp/\libhal_bsp.a(altera_avalon_jtag_uart_read.o)
 .debug_line    0x000000000001895b      0x295 C:/Git/ArrowESC/Cyclone10GX_Rev2_Demo/software/C10GX_SoM_Rev2_Demo_bsp/\libhal_bsp.a(altera_avalon_jtag_uart_write.o)
 .debug_line    0x0000000000018bf0      0x1f5 C:/Git/ArrowESC/Cyclone10GX_Rev2_Demo/software/C10GX_SoM_Rev2_Demo_bsp/\libhal_bsp.a(altera_avalon_timer_sc.o)
 .debug_line    0x0000000000018de5      0x193 C:/Git/ArrowESC/Cyclone10GX_Rev2_Demo/software/C10GX_SoM_Rev2_Demo_bsp/\libhal_bsp.a(altera_avalon_timer_ts.o)
 .debug_line    0x0000000000018f78      0x15a C:/Git/ArrowESC/Cyclone10GX_Rev2_Demo/software/C10GX_SoM_Rev2_Demo_bsp/\libhal_bsp.a(altera_avalon_timer_vars.o)
 .debug_line    0x00000000000190d2      0xe51 C:/Git/ArrowESC/Cyclone10GX_Rev2_Demo/software/C10GX_SoM_Rev2_Demo_bsp/\libhal_bsp.a(altera_avalon_tse.o)
 .debug_line    0x0000000000019f23      0x181 C:/Git/ArrowESC/Cyclone10GX_Rev2_Demo/software/C10GX_SoM_Rev2_Demo_bsp/\libhal_bsp.a(altera_avalon_tse_system_info.o)
 .debug_line    0x000000000001a0a4      0x3a5 C:/Git/ArrowESC/Cyclone10GX_Rev2_Demo/software/C10GX_SoM_Rev2_Demo_bsp/\libhal_bsp.a(altera_generic_quad_spi_controller2.o)
 .debug_line    0x000000000001a449      0x71f C:/Git/ArrowESC/Cyclone10GX_Rev2_Demo/software/C10GX_SoM_Rev2_Demo_bsp/\libhal_bsp.a(altera_msgdma.o)
 .debug_line    0x000000000001ab68      0x1d8 C:/Git/ArrowESC/Cyclone10GX_Rev2_Demo/software/C10GX_SoM_Rev2_Demo_bsp/\libhal_bsp.a(alt_alarm_start.o)
 .debug_line    0x000000000001ad40      0x173 C:/Git/ArrowESC/Cyclone10GX_Rev2_Demo/software/C10GX_SoM_Rev2_Demo_bsp/\libhal_bsp.a(alt_busy_sleep.o)
 .debug_line    0x000000000001aeb3      0x18a C:/Git/ArrowESC/Cyclone10GX_Rev2_Demo/software/C10GX_SoM_Rev2_Demo_bsp/\libhal_bsp.a(alt_dcache_flush_all.o)
 .debug_line    0x000000000001b03d       0x59 C:/Git/ArrowESC/Cyclone10GX_Rev2_Demo/software/C10GX_SoM_Rev2_Demo_bsp/\libhal_bsp.a(alt_do_ctors.o)
 .debug_line    0x000000000001b096       0x59 C:/Git/ArrowESC/Cyclone10GX_Rev2_Demo/software/C10GX_SoM_Rev2_Demo_bsp/\libhal_bsp.a(alt_do_dtors.o)
 .debug_line    0x000000000001b0ef       0xb6 C:/Git/ArrowESC/Cyclone10GX_Rev2_Demo/software/C10GX_SoM_Rev2_Demo_bsp/\libhal_bsp.a(alt_exception_entry.o)
 .debug_line    0x000000000001b1a5      0x1b6 C:/Git/ArrowESC/Cyclone10GX_Rev2_Demo/software/C10GX_SoM_Rev2_Demo_bsp/\libhal_bsp.a(alt_find_dev.o)
 .debug_line    0x000000000001b35b      0x1e1 C:/Git/ArrowESC/Cyclone10GX_Rev2_Demo/software/C10GX_SoM_Rev2_Demo_bsp/\libhal_bsp.a(alt_flash_dev.o)
 .debug_line    0x000000000001b53c      0x1aa C:/Git/ArrowESC/Cyclone10GX_Rev2_Demo/software/C10GX_SoM_Rev2_Demo_bsp/\libhal_bsp.a(alt_icache_flush.o)
 .debug_line    0x000000000001b6e6       0xba C:/Git/ArrowESC/Cyclone10GX_Rev2_Demo/software/C10GX_SoM_Rev2_Demo_bsp/\libhal_bsp.a(alt_instruction_exception_entry.o)
 .debug_line    0x000000000001b7a0      0x27d C:/Git/ArrowESC/Cyclone10GX_Rev2_Demo/software/C10GX_SoM_Rev2_Demo_bsp/\libhal_bsp.a(alt_io_redirect.o)
 .debug_line    0x000000000001ba1d      0x205 C:/Git/ArrowESC/Cyclone10GX_Rev2_Demo/software/C10GX_SoM_Rev2_Demo_bsp/\libhal_bsp.a(alt_open.o)
 .debug_line    0x000000000001bc22      0x1d0 C:/Git/ArrowESC/Cyclone10GX_Rev2_Demo/software/C10GX_SoM_Rev2_Demo_bsp/\libhal_bsp.a(alt_tick.o)
 .debug_line    0x000000000001bdf2      0x12f C:/Git/ArrowESC/Cyclone10GX_Rev2_Demo/software/C10GX_SoM_Rev2_Demo_bsp/\libhal_bsp.a(altera_nios2_gen2_irq.o)
 .debug_line    0x000000000001bf21      0x1b0 C:/Git/ArrowESC/Cyclone10GX_Rev2_Demo/software/C10GX_SoM_Rev2_Demo_bsp/\libhal_bsp.a(alt_find_file.o)
 .debug_line    0x000000000001c0d1      0x1b5 C:/Git/ArrowESC/Cyclone10GX_Rev2_Demo/software/C10GX_SoM_Rev2_Demo_bsp/\libhal_bsp.a(alt_get_fd.o)
 .debug_line    0x000000000001c286      0x1ee c:/intelfpga_pro/18.1/nios2eds/bin/gnu/h-x86_64-mingw32/bin/../lib/gcc/nios2-elf/7.3.1/../../../../../H-x86_64-mingw32/nios2-elf/lib\libc.a(lib_a-atexit.o)
 .debug_line    0x000000000001c474      0x1fe c:/intelfpga_pro/18.1/nios2eds/bin/gnu/h-x86_64-mingw32/bin/../lib/gcc/nios2-elf/7.3.1/../../../../../H-x86_64-mingw32/nios2-elf/lib\libc.a(lib_a-exit.o)
 .debug_line    0x000000000001c672      0x22b c:/intelfpga_pro/18.1/nios2eds/bin/gnu/h-x86_64-mingw32/bin/../lib/gcc/nios2-elf/7.3.1/../../../../../H-x86_64-mingw32/nios2-elf/lib\libc.a(lib_a-__atexit.o)
 .debug_line    0x000000000001c89d      0x24e c:/intelfpga_pro/18.1/nios2eds/bin/gnu/h-x86_64-mingw32/bin/../lib/gcc/nios2-elf/7.3.1/../../../../../H-x86_64-mingw32/nios2-elf/lib\libc.a(lib_a-__call_atexit.o)
 .debug_line    0x000000000001caeb      0x14f C:/Git/ArrowESC/Cyclone10GX_Rev2_Demo/software/C10GX_SoM_Rev2_Demo_bsp/\libhal_bsp.a(alt_exit.o)

.debug_frame    0x0000000000000000     0x6334
 *(.debug_frame)
 .debug_frame   0x0000000000000000       0x34 obj/default/crc.o
 .debug_frame   0x0000000000000034      0x6f8 obj/default/ethernet.o
 .debug_frame   0x000000000000072c      0x1f0 obj/default/fmc/ad9144/ad9144.o
 .debug_frame   0x000000000000091c      0x19c obj/default/fmc/ad9523/ad9523.o
 .debug_frame   0x0000000000000ab8      0x100 obj/default/fmc/ad9680/ad9680.o
 .debug_frame   0x0000000000000bb8      0x14c obj/default/fmc/common_drivers/adc_core/adc_core.o
 .debug_frame   0x0000000000000d04       0xe8 obj/default/fmc/common_drivers/communication/generic/Communication.o
 .debug_frame   0x0000000000000dec       0x38 obj/default/fmc/common_drivers/dac_buffer/dac_buffer.o
 .debug_frame   0x0000000000000e24      0x184 obj/default/fmc/common_drivers/dac_core/dac_core.o
 .debug_frame   0x0000000000000fa8       0x80 obj/default/fmc/common_drivers/dmac_core/dmac_core.o
 .debug_frame   0x0000000000001028      0x1c4 obj/default/fmc/common_drivers/fru_tools/fru_tools.o
 .debug_frame   0x00000000000011ec      0x150 obj/default/fmc/common_drivers/jesd_core/jesd_core.o
 .debug_frame   0x000000000000133c      0x344 obj/default/fmc/common_drivers/platform_drivers/platform_drivers.o
 .debug_frame   0x0000000000001680      0x120 obj/default/fmc/common_drivers/xcvr_core/xcvr_core.o
 .debug_frame   0x00000000000017a0      0x158 obj/default/fmc/common_drivers/xcvr_core/xcvr_modules/altera_a10_atx_pll.o
 .debug_frame   0x00000000000018f8      0x118 obj/default/fmc/common_drivers/xcvr_core/xcvr_modules/altera_a10_fpll.o
 .debug_frame   0x0000000000001a10      0x1dc obj/default/fmc/common_drivers/xcvr_core/xcvr_modules/altera_a10_xcvr_channel.o
 .debug_frame   0x0000000000001bec      0x170 obj/default/fmc/common_drivers/xcvr_core/xcvr_modules/altera_pll_common.o
 .debug_frame   0x0000000000001d5c       0xb8 obj/default/iioscope.o
 .debug_frame   0x0000000000001e14      0x1e0 obj/default/jesd204b.o
 .debug_frame   0x0000000000001ff4       0x50 obj/default/main.o
 .debug_frame   0x0000000000002044       0x34 obj/default/support.o
 .debug_frame   0x0000000000002078       0x20 c:/intelfpga_pro/18.1/nios2eds/bin/gnu/h-x86_64-mingw32/bin/../lib/gcc/nios2-elf/7.3.1\libgcc.a(_muldi3.o)
 .debug_frame   0x0000000000002098       0x20 c:/intelfpga_pro/18.1/nios2eds/bin/gnu/h-x86_64-mingw32/bin/../lib/gcc/nios2-elf/7.3.1\libgcc.a(_bswapsi2.o)
 .debug_frame   0x00000000000020b8       0x38 c:/intelfpga_pro/18.1/nios2eds/bin/gnu/h-x86_64-mingw32/bin/../lib/gcc/nios2-elf/7.3.1\libgcc.a(_fixunsdfsi.o)
 .debug_frame   0x00000000000020f0       0x38 c:/intelfpga_pro/18.1/nios2eds/bin/gnu/h-x86_64-mingw32/bin/../lib/gcc/nios2-elf/7.3.1\libgcc.a(_fixunsdfdi.o)
 .debug_frame   0x0000000000002128       0x54 c:/intelfpga_pro/18.1/nios2eds/bin/gnu/h-x86_64-mingw32/bin/../lib/gcc/nios2-elf/7.3.1\libgcc.a(_udivdi3.o)
 .debug_frame   0x000000000000217c       0x54 c:/intelfpga_pro/18.1/nios2eds/bin/gnu/h-x86_64-mingw32/bin/../lib/gcc/nios2-elf/7.3.1\libgcc.a(_umoddi3.o)
 .debug_frame   0x00000000000021d0       0x50 c:/intelfpga_pro/18.1/nios2eds/bin/gnu/h-x86_64-mingw32/bin/../lib/gcc/nios2-elf/7.3.1\libgcc.a(lib2-divmod.o)
 .debug_frame   0x0000000000002220       0x44 c:/intelfpga_pro/18.1/nios2eds/bin/gnu/h-x86_64-mingw32/bin/../lib/gcc/nios2-elf/7.3.1\libgcc.a(adddf3.o)
 .debug_frame   0x0000000000002264       0x58 c:/intelfpga_pro/18.1/nios2eds/bin/gnu/h-x86_64-mingw32/bin/../lib/gcc/nios2-elf/7.3.1\libgcc.a(divdf3.o)
 .debug_frame   0x00000000000022bc       0x20 c:/intelfpga_pro/18.1/nios2eds/bin/gnu/h-x86_64-mingw32/bin/../lib/gcc/nios2-elf/7.3.1\libgcc.a(gedf2.o)
 .debug_frame   0x00000000000022dc       0x58 c:/intelfpga_pro/18.1/nios2eds/bin/gnu/h-x86_64-mingw32/bin/../lib/gcc/nios2-elf/7.3.1\libgcc.a(muldf3.o)
 .debug_frame   0x0000000000002334       0x44 c:/intelfpga_pro/18.1/nios2eds/bin/gnu/h-x86_64-mingw32/bin/../lib/gcc/nios2-elf/7.3.1\libgcc.a(subdf3.o)
 .debug_frame   0x0000000000002378       0x20 c:/intelfpga_pro/18.1/nios2eds/bin/gnu/h-x86_64-mingw32/bin/../lib/gcc/nios2-elf/7.3.1\libgcc.a(fixdfsi.o)
 .debug_frame   0x0000000000002398       0x34 c:/intelfpga_pro/18.1/nios2eds/bin/gnu/h-x86_64-mingw32/bin/../lib/gcc/nios2-elf/7.3.1\libgcc.a(floatunsidf.o)
 .debug_frame   0x00000000000023cc       0x38 c:/intelfpga_pro/18.1/nios2eds/bin/gnu/h-x86_64-mingw32/bin/../lib/gcc/nios2-elf/7.3.1\libgcc.a(extendsfdf2.o)
 .debug_frame   0x0000000000002404       0x20 c:/intelfpga_pro/18.1/nios2eds/bin/gnu/h-x86_64-mingw32/bin/../lib/gcc/nios2-elf/7.3.1\libgcc.a(_clzsi2.o)
 .debug_frame   0x0000000000002424       0x20 c:/intelfpga_pro/18.1/nios2eds/bin/gnu/h-x86_64-mingw32/bin/../lib/gcc/nios2-elf/7.3.1/../../../../../H-x86_64-mingw32/nios2-elf/lib\libc.a(lib_a-calloc.o)
 .debug_frame   0x0000000000002444       0x34 c:/intelfpga_pro/18.1/nios2eds/bin/gnu/h-x86_64-mingw32/bin/../lib/gcc/nios2-elf/7.3.1/../../../../../H-x86_64-mingw32/nios2-elf/lib\libc.a(lib_a-callocr.o)
 .debug_frame   0x0000000000002478       0x6c c:/intelfpga_pro/18.1/nios2eds/bin/gnu/h-x86_64-mingw32/bin/../lib/gcc/nios2-elf/7.3.1/../../../../../H-x86_64-mingw32/nios2-elf/lib\libc.a(lib_a-getc.o)
 .debug_frame   0x00000000000024e4       0x78 c:/intelfpga_pro/18.1/nios2eds/bin/gnu/h-x86_64-mingw32/bin/../lib/gcc/nios2-elf/7.3.1/../../../../../H-x86_64-mingw32/nios2-elf/lib\libc.a(lib_a-locale.o)
 .debug_frame   0x000000000000255c       0x30 c:/intelfpga_pro/18.1/nios2eds/bin/gnu/h-x86_64-mingw32/bin/../lib/gcc/nios2-elf/7.3.1/../../../../../H-x86_64-mingw32/nios2-elf/lib\libc.a(lib_a-malloc.o)
 .debug_frame   0x000000000000258c       0x4c c:/intelfpga_pro/18.1/nios2eds/bin/gnu/h-x86_64-mingw32/bin/../lib/gcc/nios2-elf/7.3.1/../../../../../H-x86_64-mingw32/nios2-elf/lib\libc.a(lib_a-mallocr.o)
 .debug_frame   0x00000000000025d8       0x40 c:/intelfpga_pro/18.1/nios2eds/bin/gnu/h-x86_64-mingw32/bin/../lib/gcc/nios2-elf/7.3.1/../../../../../H-x86_64-mingw32/nios2-elf/lib\libc.a(lib_a-mbtowc_r.o)
 .debug_frame   0x0000000000002618       0x20 c:/intelfpga_pro/18.1/nios2eds/bin/gnu/h-x86_64-mingw32/bin/../lib/gcc/nios2-elf/7.3.1/../../../../../H-x86_64-mingw32/nios2-elf/lib\libc.a(lib_a-memcpy.o)
 .debug_frame   0x0000000000002638       0x20 c:/intelfpga_pro/18.1/nios2eds/bin/gnu/h-x86_64-mingw32/bin/../lib/gcc/nios2-elf/7.3.1/../../../../../H-x86_64-mingw32/nios2-elf/lib\libc.a(lib_a-memset.o)
 .debug_frame   0x0000000000002658       0x84 c:/intelfpga_pro/18.1/nios2eds/bin/gnu/h-x86_64-mingw32/bin/../lib/gcc/nios2-elf/7.3.1/../../../../../H-x86_64-mingw32/nios2-elf/lib\libc.a(lib_a-mktime.o)
 .debug_frame   0x00000000000026dc       0x48 c:/intelfpga_pro/18.1/nios2eds/bin/gnu/h-x86_64-mingw32/bin/../lib/gcc/nios2-elf/7.3.1/../../../../../H-x86_64-mingw32/nios2-elf/lib\libc.a(lib_a-printf.o)
 .debug_frame   0x0000000000002724       0x30 c:/intelfpga_pro/18.1/nios2eds/bin/gnu/h-x86_64-mingw32/bin/../lib/gcc/nios2-elf/7.3.1/../../../../../H-x86_64-mingw32/nios2-elf/lib\libc.a(lib_a-putchar.o)
 .debug_frame   0x0000000000002754       0x48 c:/intelfpga_pro/18.1/nios2eds/bin/gnu/h-x86_64-mingw32/bin/../lib/gcc/nios2-elf/7.3.1/../../../../../H-x86_64-mingw32/nios2-elf/lib\libc.a(lib_a-puts.o)
 .debug_frame   0x000000000000279c       0x48 c:/intelfpga_pro/18.1/nios2eds/bin/gnu/h-x86_64-mingw32/bin/../lib/gcc/nios2-elf/7.3.1/../../../../../H-x86_64-mingw32/nios2-elf/lib\libc.a(lib_a-rget.o)
 .debug_frame   0x00000000000027e4       0x3c c:/intelfpga_pro/18.1/nios2eds/bin/gnu/h-x86_64-mingw32/bin/../lib/gcc/nios2-elf/7.3.1/../../../../../H-x86_64-mingw32/nios2-elf/lib\libc.a(lib_a-sbrkr.o)
 .debug_frame   0x0000000000002820       0x48 c:/intelfpga_pro/18.1/nios2eds/bin/gnu/h-x86_64-mingw32/bin/../lib/gcc/nios2-elf/7.3.1/../../../../../H-x86_64-mingw32/nios2-elf/lib\libc.a(lib_a-sprintf.o)
 .debug_frame   0x0000000000002868       0x20 c:/intelfpga_pro/18.1/nios2eds/bin/gnu/h-x86_64-mingw32/bin/../lib/gcc/nios2-elf/7.3.1/../../../../../H-x86_64-mingw32/nios2-elf/lib\libc.a(lib_a-strcmp.o)
 .debug_frame   0x0000000000002888       0x20 c:/intelfpga_pro/18.1/nios2eds/bin/gnu/h-x86_64-mingw32/bin/../lib/gcc/nios2-elf/7.3.1/../../../../../H-x86_64-mingw32/nios2-elf/lib\libc.a(lib_a-strcpy.o)
 .debug_frame   0x00000000000028a8       0x20 c:/intelfpga_pro/18.1/nios2eds/bin/gnu/h-x86_64-mingw32/bin/../lib/gcc/nios2-elf/7.3.1/../../../../../H-x86_64-mingw32/nios2-elf/lib\libc.a(lib_a-strlen.o)
 .debug_frame   0x00000000000028c8       0x58 c:/intelfpga_pro/18.1/nios2eds/bin/gnu/h-x86_64-mingw32/bin/../lib/gcc/nios2-elf/7.3.1/../../../../../H-x86_64-mingw32/nios2-elf/lib\libc.a(lib_a-svfprintf.o)
 .debug_frame   0x0000000000002920       0x54 c:/intelfpga_pro/18.1/nios2eds/bin/gnu/h-x86_64-mingw32/bin/../lib/gcc/nios2-elf/7.3.1/../../../../../H-x86_64-mingw32/nios2-elf/lib\libc.a(lib_a-tzcalc_limits.o)
 .debug_frame   0x0000000000002974       0x30 c:/intelfpga_pro/18.1/nios2eds/bin/gnu/h-x86_64-mingw32/bin/../lib/gcc/nios2-elf/7.3.1/../../../../../H-x86_64-mingw32/nios2-elf/lib\libc.a(lib_a-tzlock.o)
 .debug_frame   0x00000000000029a4       0x3c c:/intelfpga_pro/18.1/nios2eds/bin/gnu/h-x86_64-mingw32/bin/../lib/gcc/nios2-elf/7.3.1/../../../../../H-x86_64-mingw32/nios2-elf/lib\libc.a(lib_a-tzset.o)
 .debug_frame   0x00000000000029e0       0x6c c:/intelfpga_pro/18.1/nios2eds/bin/gnu/h-x86_64-mingw32/bin/../lib/gcc/nios2-elf/7.3.1/../../../../../H-x86_64-mingw32/nios2-elf/lib\libc.a(lib_a-tzset_r.o)
 .debug_frame   0x0000000000002a4c       0x98 c:/intelfpga_pro/18.1/nios2eds/bin/gnu/h-x86_64-mingw32/bin/../lib/gcc/nios2-elf/7.3.1/../../../../../H-x86_64-mingw32/nios2-elf/lib\libc.a(lib_a-vfprintf.o)
 .debug_frame   0x0000000000002ae4       0x30 c:/intelfpga_pro/18.1/nios2eds/bin/gnu/h-x86_64-mingw32/bin/../lib/gcc/nios2-elf/7.3.1/../../../../../H-x86_64-mingw32/nios2-elf/lib\libc.a(lib_a-wctomb_r.o)
 .debug_frame   0x0000000000002b14       0x38 c:/intelfpga_pro/18.1/nios2eds/bin/gnu/h-x86_64-mingw32/bin/../lib/gcc/nios2-elf/7.3.1/../../../../../H-x86_64-mingw32/nios2-elf/lib\libc.a(lib_a-wsetup.o)
 .debug_frame   0x0000000000002b4c       0x3c c:/intelfpga_pro/18.1/nios2eds/bin/gnu/h-x86_64-mingw32/bin/../lib/gcc/nios2-elf/7.3.1/../../../../../H-x86_64-mingw32/nios2-elf/lib\libc.a(lib_a-div.o)
 .debug_frame   0x0000000000002b88       0x98 c:/intelfpga_pro/18.1/nios2eds/bin/gnu/h-x86_64-mingw32/bin/../lib/gcc/nios2-elf/7.3.1/../../../../../H-x86_64-mingw32/nios2-elf/lib\libc.a(lib_a-dtoa.o)
 .debug_frame   0x0000000000002c20       0x7c c:/intelfpga_pro/18.1/nios2eds/bin/gnu/h-x86_64-mingw32/bin/../lib/gcc/nios2-elf/7.3.1/../../../../../H-x86_64-mingw32/nios2-elf/lib\libc.a(lib_a-fflush.o)
 .debug_frame   0x0000000000002c9c      0x154 c:/intelfpga_pro/18.1/nios2eds/bin/gnu/h-x86_64-mingw32/bin/../lib/gcc/nios2-elf/7.3.1/../../../../../H-x86_64-mingw32/nios2-elf/lib\libc.a(lib_a-findfp.o)
 .debug_frame   0x0000000000002df0       0x78 c:/intelfpga_pro/18.1/nios2eds/bin/gnu/h-x86_64-mingw32/bin/../lib/gcc/nios2-elf/7.3.1/../../../../../H-x86_64-mingw32/nios2-elf/lib\libc.a(lib_a-freer.o)
 .debug_frame   0x0000000000002e68       0x68 c:/intelfpga_pro/18.1/nios2eds/bin/gnu/h-x86_64-mingw32/bin/../lib/gcc/nios2-elf/7.3.1/../../../../../H-x86_64-mingw32/nios2-elf/lib\libc.a(lib_a-fvwrite.o)
 .debug_frame   0x0000000000002ed0       0x7c c:/intelfpga_pro/18.1/nios2eds/bin/gnu/h-x86_64-mingw32/bin/../lib/gcc/nios2-elf/7.3.1/../../../../../H-x86_64-mingw32/nios2-elf/lib\libc.a(lib_a-fwalk.o)
 .debug_frame   0x0000000000002f4c       0x64 c:/intelfpga_pro/18.1/nios2eds/bin/gnu/h-x86_64-mingw32/bin/../lib/gcc/nios2-elf/7.3.1/../../../../../H-x86_64-mingw32/nios2-elf/lib\libc.a(lib_a-getenv_r.o)
 .debug_frame   0x0000000000002fb0       0x20 c:/intelfpga_pro/18.1/nios2eds/bin/gnu/h-x86_64-mingw32/bin/../lib/gcc/nios2-elf/7.3.1/../../../../../H-x86_64-mingw32/nios2-elf/lib\libc.a(lib_a-gettzinfo.o)
 .debug_frame   0x0000000000002fd0       0x40 c:/intelfpga_pro/18.1/nios2eds/bin/gnu/h-x86_64-mingw32/bin/../lib/gcc/nios2-elf/7.3.1/../../../../../H-x86_64-mingw32/nios2-elf/lib\libc.a(lib_a-localeconv.o)
 .debug_frame   0x0000000000003010       0x64 c:/intelfpga_pro/18.1/nios2eds/bin/gnu/h-x86_64-mingw32/bin/../lib/gcc/nios2-elf/7.3.1/../../../../../H-x86_64-mingw32/nios2-elf/lib\libc.a(lib_a-makebuf.o)
 .debug_frame   0x0000000000003074       0x20 c:/intelfpga_pro/18.1/nios2eds/bin/gnu/h-x86_64-mingw32/bin/../lib/gcc/nios2-elf/7.3.1/../../../../../H-x86_64-mingw32/nios2-elf/lib\libc.a(lib_a-memchr.o)
 .debug_frame   0x0000000000003094       0x20 c:/intelfpga_pro/18.1/nios2eds/bin/gnu/h-x86_64-mingw32/bin/../lib/gcc/nios2-elf/7.3.1/../../../../../H-x86_64-mingw32/nios2-elf/lib\libc.a(lib_a-memmove.o)
 .debug_frame   0x00000000000030b4      0x2d8 c:/intelfpga_pro/18.1/nios2eds/bin/gnu/h-x86_64-mingw32/bin/../lib/gcc/nios2-elf/7.3.1/../../../../../H-x86_64-mingw32/nios2-elf/lib\libc.a(lib_a-mprec.o)
 .debug_frame   0x000000000000338c       0x78 c:/intelfpga_pro/18.1/nios2eds/bin/gnu/h-x86_64-mingw32/bin/../lib/gcc/nios2-elf/7.3.1/../../../../../H-x86_64-mingw32/nios2-elf/lib\libc.a(lib_a-putc.o)
 .debug_frame   0x0000000000003404       0x70 c:/intelfpga_pro/18.1/nios2eds/bin/gnu/h-x86_64-mingw32/bin/../lib/gcc/nios2-elf/7.3.1/../../../../../H-x86_64-mingw32/nios2-elf/lib\libc.a(lib_a-reallocr.o)
 .debug_frame   0x0000000000003474       0x4c c:/intelfpga_pro/18.1/nios2eds/bin/gnu/h-x86_64-mingw32/bin/../lib/gcc/nios2-elf/7.3.1/../../../../../H-x86_64-mingw32/nios2-elf/lib\libc.a(lib_a-refill.o)
 .debug_frame   0x00000000000034c0       0x58 c:/intelfpga_pro/18.1/nios2eds/bin/gnu/h-x86_64-mingw32/bin/../lib/gcc/nios2-elf/7.3.1/../../../../../H-x86_64-mingw32/nios2-elf/lib\libc.a(lib_a-siscanf.o)
 .debug_frame   0x0000000000003518       0xb4 c:/intelfpga_pro/18.1/nios2eds/bin/gnu/h-x86_64-mingw32/bin/../lib/gcc/nios2-elf/7.3.1/../../../../../H-x86_64-mingw32/nios2-elf/lib\libc.a(lib_a-stdio.o)
 .debug_frame   0x00000000000035cc       0x20 c:/intelfpga_pro/18.1/nios2eds/bin/gnu/h-x86_64-mingw32/bin/../lib/gcc/nios2-elf/7.3.1/../../../../../H-x86_64-mingw32/nios2-elf/lib\libc.a(lib_a-strncmp.o)
 .debug_frame   0x00000000000035ec       0xa4 c:/intelfpga_pro/18.1/nios2eds/bin/gnu/h-x86_64-mingw32/bin/../lib/gcc/nios2-elf/7.3.1/../../../../../H-x86_64-mingw32/nios2-elf/lib\libc.a(lib_a-strtoul.o)
 .debug_frame   0x0000000000003690       0x9c c:/intelfpga_pro/18.1/nios2eds/bin/gnu/h-x86_64-mingw32/bin/../lib/gcc/nios2-elf/7.3.1/../../../../../H-x86_64-mingw32/nios2-elf/lib\libc.a(lib_a-svfiprintf.o)
 .debug_frame   0x000000000000372c       0xe8 c:/intelfpga_pro/18.1/nios2eds/bin/gnu/h-x86_64-mingw32/bin/../lib/gcc/nios2-elf/7.3.1/../../../../../H-x86_64-mingw32/nios2-elf/lib\libc.a(lib_a-svfiscanf.o)
 .debug_frame   0x0000000000003814       0x84 c:/intelfpga_pro/18.1/nios2eds/bin/gnu/h-x86_64-mingw32/bin/../lib/gcc/nios2-elf/7.3.1/../../../../../H-x86_64-mingw32/nios2-elf/lib\libc.a(lib_a-ungetc.o)
 .debug_frame   0x0000000000003898       0xec c:/intelfpga_pro/18.1/nios2eds/bin/gnu/h-x86_64-mingw32/bin/../lib/gcc/nios2-elf/7.3.1/../../../../../H-x86_64-mingw32/nios2-elf/lib\libc.a(lib_a-vfiprintf.o)
 .debug_frame   0x0000000000003984       0x50 c:/intelfpga_pro/18.1/nios2eds/bin/gnu/h-x86_64-mingw32/bin/../lib/gcc/nios2-elf/7.3.1/../../../../../H-x86_64-mingw32/nios2-elf/lib\libc.a(lib_a-wbuf.o)
 .debug_frame   0x00000000000039d4       0x3c c:/intelfpga_pro/18.1/nios2eds/bin/gnu/h-x86_64-mingw32/bin/../lib/gcc/nios2-elf/7.3.1/../../../../../H-x86_64-mingw32/nios2-elf/lib\libc.a(lib_a-writer.o)
 .debug_frame   0x0000000000003a10       0x3c c:/intelfpga_pro/18.1/nios2eds/bin/gnu/h-x86_64-mingw32/bin/../lib/gcc/nios2-elf/7.3.1/../../../../../H-x86_64-mingw32/nios2-elf/lib\libc.a(closer.o)
 .debug_frame   0x0000000000003a4c       0x4c c:/intelfpga_pro/18.1/nios2eds/bin/gnu/h-x86_64-mingw32/bin/../lib/gcc/nios2-elf/7.3.1/../../../../../H-x86_64-mingw32/nios2-elf/lib\libc.a(lib_a-fclose.o)
 .debug_frame   0x0000000000003a98       0x7c c:/intelfpga_pro/18.1/nios2eds/bin/gnu/h-x86_64-mingw32/bin/../lib/gcc/nios2-elf/7.3.1/../../../../../H-x86_64-mingw32/nios2-elf/lib\libc.a(lib_a-fputwc.o)
 .debug_frame   0x0000000000003b14       0x3c c:/intelfpga_pro/18.1/nios2eds/bin/gnu/h-x86_64-mingw32/bin/../lib/gcc/nios2-elf/7.3.1/../../../../../H-x86_64-mingw32/nios2-elf/lib\libc.a(lib_a-fstatr.o)
 .debug_frame   0x0000000000003b50       0x3c c:/intelfpga_pro/18.1/nios2eds/bin/gnu/h-x86_64-mingw32/bin/../lib/gcc/nios2-elf/7.3.1/../../../../../H-x86_64-mingw32/nios2-elf/lib\libc.a(lib_a-isattyr.o)
 .debug_frame   0x0000000000003b8c       0x30 c:/intelfpga_pro/18.1/nios2eds/bin/gnu/h-x86_64-mingw32/bin/../lib/gcc/nios2-elf/7.3.1/../../../../../H-x86_64-mingw32/nios2-elf/lib\libc.a(lib_a-iswspace.o)
 .debug_frame   0x0000000000003bbc       0x3c c:/intelfpga_pro/18.1/nios2eds/bin/gnu/h-x86_64-mingw32/bin/../lib/gcc/nios2-elf/7.3.1/../../../../../H-x86_64-mingw32/nios2-elf/lib\libc.a(lib_a-lseekr.o)
 .debug_frame   0x0000000000003bf8       0x60 c:/intelfpga_pro/18.1/nios2eds/bin/gnu/h-x86_64-mingw32/bin/../lib/gcc/nios2-elf/7.3.1/../../../../../H-x86_64-mingw32/nios2-elf/lib\libc.a(lib_a-mbrtowc.o)
 .debug_frame   0x0000000000003c58       0x3c c:/intelfpga_pro/18.1/nios2eds/bin/gnu/h-x86_64-mingw32/bin/../lib/gcc/nios2-elf/7.3.1/../../../../../H-x86_64-mingw32/nios2-elf/lib\libc.a(lib_a-readr.o)
 .debug_frame   0x0000000000003c94       0x20 c:/intelfpga_pro/18.1/nios2eds/bin/gnu/h-x86_64-mingw32/bin/../lib/gcc/nios2-elf/7.3.1/../../../../../H-x86_64-mingw32/nios2-elf/lib\libc.a(lib_a-sccl.o)
 .debug_frame   0x0000000000003cb4       0xa8 c:/intelfpga_pro/18.1/nios2eds/bin/gnu/h-x86_64-mingw32/bin/../lib/gcc/nios2-elf/7.3.1/../../../../../H-x86_64-mingw32/nios2-elf/lib\libc.a(lib_a-strtol.o)
 .debug_frame   0x0000000000003d5c       0xa8 c:/intelfpga_pro/18.1/nios2eds/bin/gnu/h-x86_64-mingw32/bin/../lib/gcc/nios2-elf/7.3.1/../../../../../H-x86_64-mingw32/nios2-elf/lib\libc.a(lib_a-strtoll.o)
 .debug_frame   0x0000000000003e04       0xa8 c:/intelfpga_pro/18.1/nios2eds/bin/gnu/h-x86_64-mingw32/bin/../lib/gcc/nios2-elf/7.3.1/../../../../../H-x86_64-mingw32/nios2-elf/lib\libc.a(lib_a-strtoull.o)
 .debug_frame   0x0000000000003eac       0x60 c:/intelfpga_pro/18.1/nios2eds/bin/gnu/h-x86_64-mingw32/bin/../lib/gcc/nios2-elf/7.3.1/../../../../../H-x86_64-mingw32/nios2-elf/lib\libc.a(lib_a-wcrtomb.o)
 .debug_frame   0x0000000000003f0c       0x20 c:/intelfpga_pro/18.1/nios2eds/bin/gnu/h-x86_64-mingw32/bin/../lib/gcc/nios2-elf/7.3.1\libgcc.a(eqdf2.o)
 .debug_frame   0x0000000000003f2c       0x20 c:/intelfpga_pro/18.1/nios2eds/bin/gnu/h-x86_64-mingw32/bin/../lib/gcc/nios2-elf/7.3.1\libgcc.a(ledf2.o)
 .debug_frame   0x0000000000003f4c       0x20 c:/intelfpga_pro/18.1/nios2eds/bin/gnu/h-x86_64-mingw32/bin/../lib/gcc/nios2-elf/7.3.1\libgcc.a(unorddf2.o)
 .debug_frame   0x0000000000003f6c       0x38 c:/intelfpga_pro/18.1/nios2eds/bin/gnu/h-x86_64-mingw32/bin/../lib/gcc/nios2-elf/7.3.1\libgcc.a(floatsidf.o)
 .debug_frame   0x0000000000003fa4       0x60 C:/Git/ArrowESC/Cyclone10GX_Rev2_Demo/software/C10GX_SoM_Rev2_Demo_bsp/\libhal_bsp.a(alt_close.o)
 .debug_frame   0x0000000000004004       0x34 C:/Git/ArrowESC/Cyclone10GX_Rev2_Demo/software/C10GX_SoM_Rev2_Demo_bsp/\libhal_bsp.a(alt_dcache_flush.o)
 .debug_frame   0x0000000000004038       0x5c C:/Git/ArrowESC/Cyclone10GX_Rev2_Demo/software/C10GX_SoM_Rev2_Demo_bsp/\libhal_bsp.a(alt_dev.o)
 .debug_frame   0x0000000000004094       0x60 C:/Git/ArrowESC/Cyclone10GX_Rev2_Demo/software/C10GX_SoM_Rev2_Demo_bsp/\libhal_bsp.a(alt_dev_llist_insert.o)
 .debug_frame   0x00000000000040f4       0x58 C:/Git/ArrowESC/Cyclone10GX_Rev2_Demo/software/C10GX_SoM_Rev2_Demo_bsp/\libhal_bsp.a(alt_env_lock.o)
 .debug_frame   0x000000000000414c       0x60 C:/Git/ArrowESC/Cyclone10GX_Rev2_Demo/software/C10GX_SoM_Rev2_Demo_bsp/\libhal_bsp.a(alt_fstat.o)
 .debug_frame   0x00000000000041ac       0x38 C:/Git/ArrowESC/Cyclone10GX_Rev2_Demo/software/C10GX_SoM_Rev2_Demo_bsp/\libhal_bsp.a(alt_icache_flush_all.o)
 .debug_frame   0x00000000000041e4       0xa4 C:/Git/ArrowESC/Cyclone10GX_Rev2_Demo/software/C10GX_SoM_Rev2_Demo_bsp/\libhal_bsp.a(alt_iic.o)
 .debug_frame   0x0000000000004288       0x38 C:/Git/ArrowESC/Cyclone10GX_Rev2_Demo/software/C10GX_SoM_Rev2_Demo_bsp/\libhal_bsp.a(alt_iic_isr_register.o)
 .debug_frame   0x00000000000042c0       0x34 C:/Git/ArrowESC/Cyclone10GX_Rev2_Demo/software/C10GX_SoM_Rev2_Demo_bsp/\libhal_bsp.a(alt_instruction_exception_register.o)
 .debug_frame   0x00000000000042f4       0x38 C:/Git/ArrowESC/Cyclone10GX_Rev2_Demo/software/C10GX_SoM_Rev2_Demo_bsp/\libhal_bsp.a(alt_irq_handler.o)
 .debug_frame   0x000000000000432c       0x60 C:/Git/ArrowESC/Cyclone10GX_Rev2_Demo/software/C10GX_SoM_Rev2_Demo_bsp/\libhal_bsp.a(alt_isatty.o)
 .debug_frame   0x000000000000438c       0x5c C:/Git/ArrowESC/Cyclone10GX_Rev2_Demo/software/C10GX_SoM_Rev2_Demo_bsp/\libhal_bsp.a(alt_load.o)
 .debug_frame   0x00000000000043e8       0x60 C:/Git/ArrowESC/Cyclone10GX_Rev2_Demo/software/C10GX_SoM_Rev2_Demo_bsp/\libhal_bsp.a(alt_lseek.o)
 .debug_frame   0x0000000000004448       0x2c C:/Git/ArrowESC/Cyclone10GX_Rev2_Demo/software/C10GX_SoM_Rev2_Demo_bsp/\libhal_bsp.a(alt_main.o)
 .debug_frame   0x0000000000004474       0x58 C:/Git/ArrowESC/Cyclone10GX_Rev2_Demo/software/C10GX_SoM_Rev2_Demo_bsp/\libhal_bsp.a(alt_malloc_lock.o)
 .debug_frame   0x00000000000044cc       0x38 C:/Git/ArrowESC/Cyclone10GX_Rev2_Demo/software/C10GX_SoM_Rev2_Demo_bsp/\libhal_bsp.a(alt_printf.o)
 .debug_frame   0x0000000000004504       0x38 C:/Git/ArrowESC/Cyclone10GX_Rev2_Demo/software/C10GX_SoM_Rev2_Demo_bsp/\libhal_bsp.a(alt_putchar.o)
 .debug_frame   0x000000000000453c       0x60 C:/Git/ArrowESC/Cyclone10GX_Rev2_Demo/software/C10GX_SoM_Rev2_Demo_bsp/\libhal_bsp.a(alt_read.o)
 .debug_frame   0x000000000000459c       0x34 C:/Git/ArrowESC/Cyclone10GX_Rev2_Demo/software/C10GX_SoM_Rev2_Demo_bsp/\libhal_bsp.a(alt_release_fd.o)
 .debug_frame   0x00000000000045d0       0x34 C:/Git/ArrowESC/Cyclone10GX_Rev2_Demo/software/C10GX_SoM_Rev2_Demo_bsp/\libhal_bsp.a(alt_sbrk.o)
 .debug_frame   0x0000000000004604       0x38 C:/Git/ArrowESC/Cyclone10GX_Rev2_Demo/software/C10GX_SoM_Rev2_Demo_bsp/\libhal_bsp.a(alt_usleep.o)
 .debug_frame   0x000000000000463c       0x60 C:/Git/ArrowESC/Cyclone10GX_Rev2_Demo/software/C10GX_SoM_Rev2_Demo_bsp/\libhal_bsp.a(alt_write.o)
 .debug_frame   0x000000000000469c       0x60 C:/Git/ArrowESC/Cyclone10GX_Rev2_Demo/software/C10GX_SoM_Rev2_Demo_bsp/\libhal_bsp.a(alt_sys_init.o)
 .debug_frame   0x00000000000046fc      0x5dc C:/Git/ArrowESC/Cyclone10GX_Rev2_Demo/software/C10GX_SoM_Rev2_Demo_bsp/\libhal_bsp.a(altera_avalon_i2c.o)
 .debug_frame   0x0000000000004cd8       0xb0 C:/Git/ArrowESC/Cyclone10GX_Rev2_Demo/software/C10GX_SoM_Rev2_Demo_bsp/\libhal_bsp.a(altera_avalon_jtag_uart_fd.o)
 .debug_frame   0x0000000000004d88       0xa4 C:/Git/ArrowESC/Cyclone10GX_Rev2_Demo/software/C10GX_SoM_Rev2_Demo_bsp/\libhal_bsp.a(altera_avalon_jtag_uart_init.o)
 .debug_frame   0x0000000000004e2c       0x34 C:/Git/ArrowESC/Cyclone10GX_Rev2_Demo/software/C10GX_SoM_Rev2_Demo_bsp/\libhal_bsp.a(altera_avalon_jtag_uart_ioctl.o)
 .debug_frame   0x0000000000004e60       0x38 C:/Git/ArrowESC/Cyclone10GX_Rev2_Demo/software/C10GX_SoM_Rev2_Demo_bsp/\libhal_bsp.a(altera_avalon_jtag_uart_read.o)
 .debug_frame   0x0000000000004e98       0x38 C:/Git/ArrowESC/Cyclone10GX_Rev2_Demo/software/C10GX_SoM_Rev2_Demo_bsp/\libhal_bsp.a(altera_avalon_jtag_uart_write.o)
 .debug_frame   0x0000000000004ed0       0x60 C:/Git/ArrowESC/Cyclone10GX_Rev2_Demo/software/C10GX_SoM_Rev2_Demo_bsp/\libhal_bsp.a(altera_avalon_timer_sc.o)
 .debug_frame   0x0000000000004f30       0xa4 C:/Git/ArrowESC/Cyclone10GX_Rev2_Demo/software/C10GX_SoM_Rev2_Demo_bsp/\libhal_bsp.a(altera_avalon_timer_ts.o)
 .debug_frame   0x0000000000004fd4      0x718 C:/Git/ArrowESC/Cyclone10GX_Rev2_Demo/software/C10GX_SoM_Rev2_Demo_bsp/\libhal_bsp.a(altera_avalon_tse.o)
 .debug_frame   0x00000000000056ec      0x16c C:/Git/ArrowESC/Cyclone10GX_Rev2_Demo/software/C10GX_SoM_Rev2_Demo_bsp/\libhal_bsp.a(altera_generic_quad_spi_controller2.o)
 .debug_frame   0x0000000000005858      0x598 C:/Git/ArrowESC/Cyclone10GX_Rev2_Demo/software/C10GX_SoM_Rev2_Demo_bsp/\libhal_bsp.a(altera_msgdma.o)
 .debug_frame   0x0000000000005df0       0x34 C:/Git/ArrowESC/Cyclone10GX_Rev2_Demo/software/C10GX_SoM_Rev2_Demo_bsp/\libhal_bsp.a(alt_alarm_start.o)
 .debug_frame   0x0000000000005e24       0x38 C:/Git/ArrowESC/Cyclone10GX_Rev2_Demo/software/C10GX_SoM_Rev2_Demo_bsp/\libhal_bsp.a(alt_busy_sleep.o)
 .debug_frame   0x0000000000005e5c       0x34 C:/Git/ArrowESC/Cyclone10GX_Rev2_Demo/software/C10GX_SoM_Rev2_Demo_bsp/\libhal_bsp.a(alt_dcache_flush_all.o)
 .debug_frame   0x0000000000005e90       0x38 C:/Git/ArrowESC/Cyclone10GX_Rev2_Demo/software/C10GX_SoM_Rev2_Demo_bsp/\libhal_bsp.a(alt_do_ctors.o)
 .debug_frame   0x0000000000005ec8       0x38 C:/Git/ArrowESC/Cyclone10GX_Rev2_Demo/software/C10GX_SoM_Rev2_Demo_bsp/\libhal_bsp.a(alt_do_dtors.o)
 .debug_frame   0x0000000000005f00       0x34 C:/Git/ArrowESC/Cyclone10GX_Rev2_Demo/software/C10GX_SoM_Rev2_Demo_bsp/\libhal_bsp.a(alt_find_dev.o)
 .debug_frame   0x0000000000005f34       0x88 C:/Git/ArrowESC/Cyclone10GX_Rev2_Demo/software/C10GX_SoM_Rev2_Demo_bsp/\libhal_bsp.a(alt_flash_dev.o)
 .debug_frame   0x0000000000005fbc       0x34 C:/Git/ArrowESC/Cyclone10GX_Rev2_Demo/software/C10GX_SoM_Rev2_Demo_bsp/\libhal_bsp.a(alt_icache_flush.o)
 .debug_frame   0x0000000000005ff0       0x5c C:/Git/ArrowESC/Cyclone10GX_Rev2_Demo/software/C10GX_SoM_Rev2_Demo_bsp/\libhal_bsp.a(alt_instruction_exception_entry.o)
 .debug_frame   0x000000000000604c       0x60 C:/Git/ArrowESC/Cyclone10GX_Rev2_Demo/software/C10GX_SoM_Rev2_Demo_bsp/\libhal_bsp.a(alt_io_redirect.o)
 .debug_frame   0x00000000000060ac       0x84 C:/Git/ArrowESC/Cyclone10GX_Rev2_Demo/software/C10GX_SoM_Rev2_Demo_bsp/\libhal_bsp.a(alt_open.o)
 .debug_frame   0x0000000000006130       0x64 C:/Git/ArrowESC/Cyclone10GX_Rev2_Demo/software/C10GX_SoM_Rev2_Demo_bsp/\libhal_bsp.a(alt_tick.o)
 .debug_frame   0x0000000000006194       0x34 C:/Git/ArrowESC/Cyclone10GX_Rev2_Demo/software/C10GX_SoM_Rev2_Demo_bsp/\libhal_bsp.a(altera_nios2_gen2_irq.o)
 .debug_frame   0x00000000000061c8       0x34 C:/Git/ArrowESC/Cyclone10GX_Rev2_Demo/software/C10GX_SoM_Rev2_Demo_bsp/\libhal_bsp.a(alt_find_file.o)
 .debug_frame   0x00000000000061fc       0x34 C:/Git/ArrowESC/Cyclone10GX_Rev2_Demo/software/C10GX_SoM_Rev2_Demo_bsp/\libhal_bsp.a(alt_get_fd.o)
 .debug_frame   0x0000000000006230       0x20 c:/intelfpga_pro/18.1/nios2eds/bin/gnu/h-x86_64-mingw32/bin/../lib/gcc/nios2-elf/7.3.1/../../../../../H-x86_64-mingw32/nios2-elf/lib\libc.a(lib_a-atexit.o)
 .debug_frame   0x0000000000006250       0x28 c:/intelfpga_pro/18.1/nios2eds/bin/gnu/h-x86_64-mingw32/bin/../lib/gcc/nios2-elf/7.3.1/../../../../../H-x86_64-mingw32/nios2-elf/lib\libc.a(lib_a-exit.o)
 .debug_frame   0x0000000000006278       0x38 c:/intelfpga_pro/18.1/nios2eds/bin/gnu/h-x86_64-mingw32/bin/../lib/gcc/nios2-elf/7.3.1/../../../../../H-x86_64-mingw32/nios2-elf/lib\libc.a(lib_a-__atexit.o)
 .debug_frame   0x00000000000062b0       0x58 c:/intelfpga_pro/18.1/nios2eds/bin/gnu/h-x86_64-mingw32/bin/../lib/gcc/nios2-elf/7.3.1/../../../../../H-x86_64-mingw32/nios2-elf/lib\libc.a(lib_a-__call_atexit.o)
 .debug_frame   0x0000000000006308       0x2c C:/Git/ArrowESC/Cyclone10GX_Rev2_Demo/software/C10GX_SoM_Rev2_Demo_bsp/\libhal_bsp.a(alt_exit.o)

.debug_str      0x0000000000000000     0xa9c2
 *(.debug_str)
 .debug_str     0x0000000000000000       0x65 C:/Git/ArrowESC/Cyclone10GX_Rev2_Demo/software/C10GX_SoM_Rev2_Demo_bsp//obj/HAL/src/crt0.o
 .debug_str     0x0000000000000065      0x22c obj/default/crc.o
                                        0x290 (size before relaxing)
 .debug_str     0x0000000000000291     0x13c2 obj/default/ethernet.o
                                       0x19a4 (size before relaxing)
 .debug_str     0x0000000000001653      0x3aa obj/default/fmc/ad9144/ad9144.o
                                        0xa64 (size before relaxing)
 .debug_str     0x00000000000019fd      0x4c1 obj/default/fmc/ad9523/ad9523.o
                                        0xc34 (size before relaxing)
 .debug_str     0x0000000000001ebe       0xf2 obj/default/fmc/ad9680/ad9680.o
                                        0x833 (size before relaxing)
 .debug_str     0x0000000000001fb0      0x229 obj/default/fmc/common_drivers/adc_core/adc_core.o
                                        0x8f9 (size before relaxing)
 .debug_str     0x00000000000021d9       0xd0 obj/default/fmc/common_drivers/communication/generic/Communication.o
                                        0x2a1 (size before relaxing)
 .debug_str     0x00000000000022a9      0x163 obj/default/fmc/common_drivers/dac_buffer/dac_buffer.o
                                        0x829 (size before relaxing)
 .debug_str     0x000000000000240c       0xc6 obj/default/fmc/common_drivers/dac_core/dac_core.o
                                        0x8ae (size before relaxing)
 .debug_str     0x00000000000024d2       0x7e obj/default/fmc/common_drivers/dmac_core/dmac_core.o
                                        0x748 (size before relaxing)
 .debug_str     0x0000000000002550      0x21a obj/default/fmc/common_drivers/fru_tools/fru_tools.o
                                        0x8c8 (size before relaxing)
 .debug_str     0x000000000000276a      0x2a9 obj/default/fmc/common_drivers/jesd_core/jesd_core.o
                                        0x97a (size before relaxing)
 .debug_str     0x0000000000002a13      0x1fd obj/default/fmc/common_drivers/platform_drivers/platform_drivers.o
                                        0x9a2 (size before relaxing)
 .debug_str     0x0000000000002c10      0x16e obj/default/fmc/common_drivers/xcvr_core/xcvr_core.o
                                        0x85b (size before relaxing)
 .debug_str     0x0000000000002d7e      0x134 obj/default/fmc/common_drivers/xcvr_core/xcvr_modules/altera_a10_atx_pll.o
                                        0x8c0 (size before relaxing)
 .debug_str     0x0000000000002eb2       0xc8 obj/default/fmc/common_drivers/xcvr_core/xcvr_modules/altera_a10_fpll.o
                                        0x7fb (size before relaxing)
 .debug_str     0x0000000000002f7a      0x215 obj/default/fmc/common_drivers/xcvr_core/xcvr_modules/altera_a10_xcvr_channel.o
                                        0xa19 (size before relaxing)
 .debug_str     0x000000000000318f       0xfb obj/default/fmc/common_drivers/xcvr_core/xcvr_modules/altera_pll_common.o
                                        0x812 (size before relaxing)
 .debug_str     0x000000000000328a       0x38 obj/default/fmc/common_drivers/xcvr_core/xcvr_modules/xilinx_qpll.o
                                        0x68f (size before relaxing)
 .debug_str     0x00000000000032c2       0x40 obj/default/fmc/common_drivers/xcvr_core/xcvr_modules/xilinx_xcvr_channel.o
                                        0x697 (size before relaxing)
 .debug_str     0x0000000000003302       0xd2 obj/default/iioscope.o
                                        0x923 (size before relaxing)
 .debug_str     0x00000000000033d4      0x2ec obj/default/jesd204b.o
                                       0x126b (size before relaxing)
 .debug_str     0x00000000000036c0      0x43c obj/default/main.o
                                        0xb26 (size before relaxing)
 .debug_str     0x0000000000003afc       0x2e obj/default/support.o
                                        0x1e6 (size before relaxing)
 .debug_str     0x0000000000003b2a      0x1ff c:/intelfpga_pro/18.1/nios2eds/bin/gnu/h-x86_64-mingw32/bin/../lib/gcc/nios2-elf/7.3.1\libgcc.a(_muldi3.o)
                                        0x299 (size before relaxing)
 .debug_str     0x0000000000003d29        0xb c:/intelfpga_pro/18.1/nios2eds/bin/gnu/h-x86_64-mingw32/bin/../lib/gcc/nios2-elf/7.3.1\libgcc.a(_bswapsi2.o)
                                        0x24e (size before relaxing)
 .debug_str     0x0000000000003d34       0x14 c:/intelfpga_pro/18.1/nios2eds/bin/gnu/h-x86_64-mingw32/bin/../lib/gcc/nios2-elf/7.3.1\libgcc.a(_fixunsdfsi.o)
                                        0x25f (size before relaxing)
 .debug_str     0x0000000000003d48       0x15 c:/intelfpga_pro/18.1/nios2eds/bin/gnu/h-x86_64-mingw32/bin/../lib/gcc/nios2-elf/7.3.1\libgcc.a(_fixunsdfdi.o)
                                        0x260 (size before relaxing)
 .debug_str     0x0000000000003d5d       0xda c:/intelfpga_pro/18.1/nios2eds/bin/gnu/h-x86_64-mingw32/bin/../lib/gcc/nios2-elf/7.3.1\libgcc.a(_udivdi3.o)
                                        0x2f5 (size before relaxing)
 .debug_str     0x0000000000003e37        0xa c:/intelfpga_pro/18.1/nios2eds/bin/gnu/h-x86_64-mingw32/bin/../lib/gcc/nios2-elf/7.3.1\libgcc.a(_umoddi3.o)
                                        0x2f5 (size before relaxing)
 .debug_str     0x0000000000003e41       0x7e c:/intelfpga_pro/18.1/nios2eds/bin/gnu/h-x86_64-mingw32/bin/../lib/gcc/nios2-elf/7.3.1\libgcc.a(lib2-divmod.o)
                                        0x1c3 (size before relaxing)
 .debug_str     0x0000000000003ebf      0x17c c:/intelfpga_pro/18.1/nios2eds/bin/gnu/h-x86_64-mingw32/bin/../lib/gcc/nios2-elf/7.3.1\libgcc.a(adddf3.o)
                                        0x317 (size before relaxing)
 .debug_str     0x000000000000403b      0x19a c:/intelfpga_pro/18.1/nios2eds/bin/gnu/h-x86_64-mingw32/bin/../lib/gcc/nios2-elf/7.3.1\libgcc.a(divdf3.o)
                                        0x3d9 (size before relaxing)
 .debug_str     0x00000000000041d5       0x6b c:/intelfpga_pro/18.1/nios2eds/bin/gnu/h-x86_64-mingw32/bin/../lib/gcc/nios2-elf/7.3.1\libgcc.a(gedf2.o)
                                        0x247 (size before relaxing)
 .debug_str     0x0000000000004240      0x15d c:/intelfpga_pro/18.1/nios2eds/bin/gnu/h-x86_64-mingw32/bin/../lib/gcc/nios2-elf/7.3.1\libgcc.a(muldf3.o)
                                        0x431 (size before relaxing)
 .debug_str     0x000000000000439d       0x38 c:/intelfpga_pro/18.1/nios2eds/bin/gnu/h-x86_64-mingw32/bin/../lib/gcc/nios2-elf/7.3.1\libgcc.a(subdf3.o)
                                        0x317 (size before relaxing)
 .debug_str     0x00000000000043d5       0x4d c:/intelfpga_pro/18.1/nios2eds/bin/gnu/h-x86_64-mingw32/bin/../lib/gcc/nios2-elf/7.3.1\libgcc.a(fixdfsi.o)
                                        0x22e (size before relaxing)
 .debug_str     0x0000000000004422       0x6f c:/intelfpga_pro/18.1/nios2eds/bin/gnu/h-x86_64-mingw32/bin/../lib/gcc/nios2-elf/7.3.1\libgcc.a(floatunsidf.o)
                                        0x2c6 (size before relaxing)
 .debug_str     0x0000000000004491       0x7c c:/intelfpga_pro/18.1/nios2eds/bin/gnu/h-x86_64-mingw32/bin/../lib/gcc/nios2-elf/7.3.1\libgcc.a(extendsfdf2.o)
                                        0x252 (size before relaxing)
 .debug_str     0x000000000000450d      0x23c c:/intelfpga_pro/18.1/nios2eds/bin/gnu/h-x86_64-mingw32/bin/../lib/gcc/nios2-elf/7.3.1\libgcc.a(_clz.o)
 .debug_str     0x000000000000450d        0x9 c:/intelfpga_pro/18.1/nios2eds/bin/gnu/h-x86_64-mingw32/bin/../lib/gcc/nios2-elf/7.3.1\libgcc.a(_clzsi2.o)
                                        0x259 (size before relaxing)
 .debug_str     0x0000000000004516      0x13a c:/intelfpga_pro/18.1/nios2eds/bin/gnu/h-x86_64-mingw32/bin/../lib/gcc/nios2-elf/7.3.1/../../../../../H-x86_64-mingw32/nios2-elf/lib\libc.a(lib_a-calloc.o)
                                        0x5c4 (size before relaxing)
 .debug_str     0x0000000000004650      0x159 c:/intelfpga_pro/18.1/nios2eds/bin/gnu/h-x86_64-mingw32/bin/../lib/gcc/nios2-elf/7.3.1/../../../../../H-x86_64-mingw32/nios2-elf/lib\libc.a(lib_a-callocr.o)
                                        0x733 (size before relaxing)
 .debug_str     0x00000000000047a9      0x1db c:/intelfpga_pro/18.1/nios2eds/bin/gnu/h-x86_64-mingw32/bin/../lib/gcc/nios2-elf/7.3.1/../../../../../H-x86_64-mingw32/nios2-elf/lib\libc.a(lib_a-getc.o)
                                        0x715 (size before relaxing)
 .debug_str     0x0000000000004984       0xca c:/intelfpga_pro/18.1/nios2eds/bin/gnu/h-x86_64-mingw32/bin/../lib/gcc/nios2-elf/7.3.1/../../../../../H-x86_64-mingw32/nios2-elf/lib\libc.a(lib_a-impure.o)
                                        0x5a7 (size before relaxing)
 .debug_str     0x0000000000004a4e      0x3d3 c:/intelfpga_pro/18.1/nios2eds/bin/gnu/h-x86_64-mingw32/bin/../lib/gcc/nios2-elf/7.3.1/../../../../../H-x86_64-mingw32/nios2-elf/lib\libc.a(lib_a-locale.o)
                                        0x9aa (size before relaxing)
 .debug_str     0x0000000000004e21       0x50 c:/intelfpga_pro/18.1/nios2eds/bin/gnu/h-x86_64-mingw32/bin/../lib/gcc/nios2-elf/7.3.1/../../../../../H-x86_64-mingw32/nios2-elf/lib\libc.a(lib_a-malloc.o)
                                        0x5d8 (size before relaxing)
 .debug_str     0x0000000000004e71       0xdf c:/intelfpga_pro/18.1/nios2eds/bin/gnu/h-x86_64-mingw32/bin/../lib/gcc/nios2-elf/7.3.1/../../../../../H-x86_64-mingw32/nios2-elf/lib\libc.a(lib_a-mallocr.o)
                                        0x80f (size before relaxing)
 .debug_str     0x0000000000004f50       0x5d c:/intelfpga_pro/18.1/nios2eds/bin/gnu/h-x86_64-mingw32/bin/../lib/gcc/nios2-elf/7.3.1/../../../../../H-x86_64-mingw32/nios2-elf/lib\libc.a(lib_a-mbtowc_r.o)
                                        0x94a (size before relaxing)
 .debug_str     0x0000000000004fad       0xee c:/intelfpga_pro/18.1/nios2eds/bin/gnu/h-x86_64-mingw32/bin/../lib/gcc/nios2-elf/7.3.1/../../../../../H-x86_64-mingw32/nios2-elf/lib\libc.a(lib_a-memcpy.o)
                                        0x5d2 (size before relaxing)
 .debug_str     0x000000000000509b       0x49 c:/intelfpga_pro/18.1/nios2eds/bin/gnu/h-x86_64-mingw32/bin/../lib/gcc/nios2-elf/7.3.1/../../../../../H-x86_64-mingw32/nios2-elf/lib\libc.a(lib_a-memset.o)
                                        0x8d4 (size before relaxing)
 .debug_str     0x00000000000050e4      0x1e5 c:/intelfpga_pro/18.1/nios2eds/bin/gnu/h-x86_64-mingw32/bin/../lib/gcc/nios2-elf/7.3.1/../../../../../H-x86_64-mingw32/nios2-elf/lib\libc.a(lib_a-mktime.o)
                                        0x771 (size before relaxing)
 .debug_str     0x00000000000052c9       0x91 c:/intelfpga_pro/18.1/nios2eds/bin/gnu/h-x86_64-mingw32/bin/../lib/gcc/nios2-elf/7.3.1/../../../../../H-x86_64-mingw32/nios2-elf/lib\libc.a(lib_a-printf.o)
                                        0x73b (size before relaxing)
 .debug_str     0x000000000000535a       0x4f c:/intelfpga_pro/18.1/nios2eds/bin/gnu/h-x86_64-mingw32/bin/../lib/gcc/nios2-elf/7.3.1/../../../../../H-x86_64-mingw32/nios2-elf/lib\libc.a(lib_a-putchar.o)
                                        0x6f8 (size before relaxing)
 .debug_str     0x00000000000053a9       0x96 c:/intelfpga_pro/18.1/nios2eds/bin/gnu/h-x86_64-mingw32/bin/../lib/gcc/nios2-elf/7.3.1/../../../../../H-x86_64-mingw32/nios2-elf/lib\libc.a(lib_a-puts.o)
                                        0x75c (size before relaxing)
 .debug_str     0x000000000000543f       0x4d c:/intelfpga_pro/18.1/nios2eds/bin/gnu/h-x86_64-mingw32/bin/../lib/gcc/nios2-elf/7.3.1/../../../../../H-x86_64-mingw32/nios2-elf/lib\libc.a(lib_a-rget.o)
                                        0x726 (size before relaxing)
 .debug_str     0x000000000000548c       0x4e c:/intelfpga_pro/18.1/nios2eds/bin/gnu/h-x86_64-mingw32/bin/../lib/gcc/nios2-elf/7.3.1/../../../../../H-x86_64-mingw32/nios2-elf/lib\libc.a(lib_a-sbrkr.o)
                                        0x5e9 (size before relaxing)
 .debug_str     0x00000000000054da       0x67 c:/intelfpga_pro/18.1/nios2eds/bin/gnu/h-x86_64-mingw32/bin/../lib/gcc/nios2-elf/7.3.1/../../../../../H-x86_64-mingw32/nios2-elf/lib\libc.a(lib_a-sprintf.o)
                                        0x730 (size before relaxing)
 .debug_str     0x0000000000005541       0x3c c:/intelfpga_pro/18.1/nios2eds/bin/gnu/h-x86_64-mingw32/bin/../lib/gcc/nios2-elf/7.3.1/../../../../../H-x86_64-mingw32/nios2-elf/lib\libc.a(lib_a-strcmp.o)
                                        0x5a4 (size before relaxing)
 .debug_str     0x000000000000557d       0x43 c:/intelfpga_pro/18.1/nios2eds/bin/gnu/h-x86_64-mingw32/bin/../lib/gcc/nios2-elf/7.3.1/../../../../../H-x86_64-mingw32/nios2-elf/lib\libc.a(lib_a-strcpy.o)
                                        0x5c6 (size before relaxing)
 .debug_str     0x00000000000055c0       0x3c c:/intelfpga_pro/18.1/nios2eds/bin/gnu/h-x86_64-mingw32/bin/../lib/gcc/nios2-elf/7.3.1/../../../../../H-x86_64-mingw32/nios2-elf/lib\libc.a(lib_a-strlen.o)
                                        0x5be (size before relaxing)
 .debug_str     0x00000000000055fc      0x1ba c:/intelfpga_pro/18.1/nios2eds/bin/gnu/h-x86_64-mingw32/bin/../lib/gcc/nios2-elf/7.3.1/../../../../../H-x86_64-mingw32/nios2-elf/lib\libc.a(lib_a-svfprintf.o)
                                        0xc9d (size before relaxing)
 .debug_str     0x00000000000057b6       0x67 c:/intelfpga_pro/18.1/nios2eds/bin/gnu/h-x86_64-mingw32/bin/../lib/gcc/nios2-elf/7.3.1/../../../../../H-x86_64-mingw32/nios2-elf/lib\libc.a(lib_a-tzcalc_limits.o)
                                        0x68c (size before relaxing)
 .debug_str     0x000000000000581d       0x45 c:/intelfpga_pro/18.1/nios2eds/bin/gnu/h-x86_64-mingw32/bin/../lib/gcc/nios2-elf/7.3.1/../../../../../H-x86_64-mingw32/nios2-elf/lib\libc.a(lib_a-tzlock.o)
                                        0x5e6 (size before relaxing)
 .debug_str     0x0000000000005862       0x51 c:/intelfpga_pro/18.1/nios2eds/bin/gnu/h-x86_64-mingw32/bin/../lib/gcc/nios2-elf/7.3.1/../../../../../H-x86_64-mingw32/nios2-elf/lib\libc.a(lib_a-tzset.o)
                                        0x602 (size before relaxing)
 .debug_str     0x00000000000058b3       0x83 c:/intelfpga_pro/18.1/nios2eds/bin/gnu/h-x86_64-mingw32/bin/../lib/gcc/nios2-elf/7.3.1/../../../../../H-x86_64-mingw32/nios2-elf/lib\libc.a(lib_a-tzset_r.o)
                                        0x702 (size before relaxing)
 .debug_str     0x0000000000005936       0x3a c:/intelfpga_pro/18.1/nios2eds/bin/gnu/h-x86_64-mingw32/bin/../lib/gcc/nios2-elf/7.3.1/../../../../../H-x86_64-mingw32/nios2-elf/lib\libc.a(lib_a-tzvars.o)
                                        0x5b5 (size before relaxing)
 .debug_str     0x0000000000005970       0x36 c:/intelfpga_pro/18.1/nios2eds/bin/gnu/h-x86_64-mingw32/bin/../lib/gcc/nios2-elf/7.3.1/../../../../../H-x86_64-mingw32/nios2-elf/lib\libc.a(lib_a-vfprintf.o)
                                        0xcef (size before relaxing)
 .debug_str     0x00000000000059a6       0x5e c:/intelfpga_pro/18.1/nios2eds/bin/gnu/h-x86_64-mingw32/bin/../lib/gcc/nios2-elf/7.3.1/../../../../../H-x86_64-mingw32/nios2-elf/lib\libc.a(lib_a-wctomb_r.o)
                                        0x951 (size before relaxing)
 .debug_str     0x0000000000005a04       0x48 c:/intelfpga_pro/18.1/nios2eds/bin/gnu/h-x86_64-mingw32/bin/../lib/gcc/nios2-elf/7.3.1/../../../../../H-x86_64-mingw32/nios2-elf/lib\libc.a(lib_a-wsetup.o)
                                        0x72b (size before relaxing)
 .debug_str     0x0000000000005a4c       0xbe c:/intelfpga_pro/18.1/nios2eds/bin/gnu/h-x86_64-mingw32/bin/../lib/gcc/nios2-elf/7.3.1/../../../../../H-x86_64-mingw32/nios2-elf/lib\libc.a(lib_a-ctype_.o)
                                        0x8c8 (size before relaxing)
 .debug_str     0x0000000000005b0a       0x3f c:/intelfpga_pro/18.1/nios2eds/bin/gnu/h-x86_64-mingw32/bin/../lib/gcc/nios2-elf/7.3.1/../../../../../H-x86_64-mingw32/nios2-elf/lib\libc.a(lib_a-div.o)
                                        0x5b5 (size before relaxing)
 .debug_str     0x0000000000005b49      0x16c c:/intelfpga_pro/18.1/nios2eds/bin/gnu/h-x86_64-mingw32/bin/../lib/gcc/nios2-elf/7.3.1/../../../../../H-x86_64-mingw32/nios2-elf/lib\libc.a(lib_a-dtoa.o)
                                        0xaad (size before relaxing)
 .debug_str     0x0000000000005cb5       0x6b c:/intelfpga_pro/18.1/nios2eds/bin/gnu/h-x86_64-mingw32/bin/../lib/gcc/nios2-elf/7.3.1/../../../../../H-x86_64-mingw32/nios2-elf/lib\libc.a(lib_a-fflush.o)
                                        0x759 (size before relaxing)
 .debug_str     0x0000000000005d20      0x151 c:/intelfpga_pro/18.1/nios2eds/bin/gnu/h-x86_64-mingw32/bin/../lib/gcc/nios2-elf/7.3.1/../../../../../H-x86_64-mingw32/nios2-elf/lib\libc.a(lib_a-findfp.o)
                                        0x869 (size before relaxing)
 .debug_str     0x0000000000005e71       0x34 c:/intelfpga_pro/18.1/nios2eds/bin/gnu/h-x86_64-mingw32/bin/../lib/gcc/nios2-elf/7.3.1/../../../../../H-x86_64-mingw32/nios2-elf/lib\libc.a(lib_a-freer.o)
                                        0x788 (size before relaxing)
 .debug_str     0x0000000000005ea5       0x6d c:/intelfpga_pro/18.1/nios2eds/bin/gnu/h-x86_64-mingw32/bin/../lib/gcc/nios2-elf/7.3.1/../../../../../H-x86_64-mingw32/nios2-elf/lib\libc.a(lib_a-fvwrite.o)
                                        0x7aa (size before relaxing)
 .debug_str     0x0000000000005f12       0x49 c:/intelfpga_pro/18.1/nios2eds/bin/gnu/h-x86_64-mingw32/bin/../lib/gcc/nios2-elf/7.3.1/../../../../../H-x86_64-mingw32/nios2-elf/lib\libc.a(lib_a-fwalk.o)
                                        0x71d (size before relaxing)
 .debug_str     0x0000000000005f5b       0x73 c:/intelfpga_pro/18.1/nios2eds/bin/gnu/h-x86_64-mingw32/bin/../lib/gcc/nios2-elf/7.3.1/../../../../../H-x86_64-mingw32/nios2-elf/lib\libc.a(lib_a-getenv_r.o)
                                        0x606 (size before relaxing)
 .debug_str     0x0000000000005fce       0x3d c:/intelfpga_pro/18.1/nios2eds/bin/gnu/h-x86_64-mingw32/bin/../lib/gcc/nios2-elf/7.3.1/../../../../../H-x86_64-mingw32/nios2-elf/lib\libc.a(lib_a-gettzinfo.o)
                                        0x648 (size before relaxing)
 .debug_str     0x000000000000600b       0x3e c:/intelfpga_pro/18.1/nios2eds/bin/gnu/h-x86_64-mingw32/bin/../lib/gcc/nios2-elf/7.3.1/../../../../../H-x86_64-mingw32/nios2-elf/lib\libc.a(lib_a-int_errno.o)
                                        0x5ae (size before relaxing)
 .debug_str     0x0000000000006049       0x69 c:/intelfpga_pro/18.1/nios2eds/bin/gnu/h-x86_64-mingw32/bin/../lib/gcc/nios2-elf/7.3.1/../../../../../H-x86_64-mingw32/nios2-elf/lib\libc.a(lib_a-localeconv.o)
                                        0x939 (size before relaxing)
 .debug_str     0x00000000000060b2      0x153 c:/intelfpga_pro/18.1/nios2eds/bin/gnu/h-x86_64-mingw32/bin/../lib/gcc/nios2-elf/7.3.1/../../../../../H-x86_64-mingw32/nios2-elf/lib\libc.a(lib_a-makebuf.o)
                                        0x897 (size before relaxing)
 .debug_str     0x0000000000006205       0x4a c:/intelfpga_pro/18.1/nios2eds/bin/gnu/h-x86_64-mingw32/bin/../lib/gcc/nios2-elf/7.3.1/../../../../../H-x86_64-mingw32/nios2-elf/lib\libc.a(lib_a-memchr.o)
                                        0x5c5 (size before relaxing)
 .debug_str     0x000000000000624f       0x46 c:/intelfpga_pro/18.1/nios2eds/bin/gnu/h-x86_64-mingw32/bin/../lib/gcc/nios2-elf/7.3.1/../../../../../H-x86_64-mingw32/nios2-elf/lib\libc.a(lib_a-memmove.o)
                                        0x8f3 (size before relaxing)
 .debug_str     0x0000000000006295       0x41 c:/intelfpga_pro/18.1/nios2eds/bin/gnu/h-x86_64-mingw32/bin/../lib/gcc/nios2-elf/7.3.1/../../../../../H-x86_64-mingw32/nios2-elf/lib\libc.a(lib_a-month_lengths.o)
                                        0x5cc (size before relaxing)
 .debug_str     0x00000000000062d6       0x8b c:/intelfpga_pro/18.1/nios2eds/bin/gnu/h-x86_64-mingw32/bin/../lib/gcc/nios2-elf/7.3.1/../../../../../H-x86_64-mingw32/nios2-elf/lib\libc.a(lib_a-mprec.o)
                                        0xa56 (size before relaxing)
 .debug_str     0x0000000000006361       0x48 c:/intelfpga_pro/18.1/nios2eds/bin/gnu/h-x86_64-mingw32/bin/../lib/gcc/nios2-elf/7.3.1/../../../../../H-x86_64-mingw32/nios2-elf/lib\libc.a(lib_a-putc.o)
                                        0x715 (size before relaxing)
 .debug_str     0x00000000000063a9       0x49 c:/intelfpga_pro/18.1/nios2eds/bin/gnu/h-x86_64-mingw32/bin/../lib/gcc/nios2-elf/7.3.1/../../../../../H-x86_64-mingw32/nios2-elf/lib\libc.a(lib_a-reallocr.o)
                                        0x7c6 (size before relaxing)
 .debug_str     0x00000000000063f2       0x4d c:/intelfpga_pro/18.1/nios2eds/bin/gnu/h-x86_64-mingw32/bin/../lib/gcc/nios2-elf/7.3.1/../../../../../H-x86_64-mingw32/nios2-elf/lib\libc.a(lib_a-refill.o)
                                        0x760 (size before relaxing)
 .debug_str     0x000000000000643f       0x56 c:/intelfpga_pro/18.1/nios2eds/bin/gnu/h-x86_64-mingw32/bin/../lib/gcc/nios2-elf/7.3.1/../../../../../H-x86_64-mingw32/nios2-elf/lib\libc.a(lib_a-siscanf.o)
                                        0x72e (size before relaxing)
 .debug_str     0x0000000000006495       0x91 c:/intelfpga_pro/18.1/nios2eds/bin/gnu/h-x86_64-mingw32/bin/../lib/gcc/nios2-elf/7.3.1/../../../../../H-x86_64-mingw32/nios2-elf/lib\libc.a(lib_a-stdio.o)
                                        0x771 (size before relaxing)
 .debug_str     0x0000000000006526       0x3d c:/intelfpga_pro/18.1/nios2eds/bin/gnu/h-x86_64-mingw32/bin/../lib/gcc/nios2-elf/7.3.1/../../../../../H-x86_64-mingw32/nios2-elf/lib\libc.a(lib_a-strncmp.o)
                                        0x5ad (size before relaxing)
 .debug_str     0x0000000000006563       0x68 c:/intelfpga_pro/18.1/nios2eds/bin/gnu/h-x86_64-mingw32/bin/../lib/gcc/nios2-elf/7.3.1/../../../../../H-x86_64-mingw32/nios2-elf/lib\libc.a(lib_a-strtoul.o)
                                        0x97c (size before relaxing)
 .debug_str     0x00000000000065cb       0x19 c:/intelfpga_pro/18.1/nios2eds/bin/gnu/h-x86_64-mingw32/bin/../lib/gcc/nios2-elf/7.3.1/../../../../../H-x86_64-mingw32/nios2-elf/lib\libc.a(lib_a-svfiprintf.o)
                                        0xc1e (size before relaxing)
 .debug_str     0x00000000000065e4      0x126 c:/intelfpga_pro/18.1/nios2eds/bin/gnu/h-x86_64-mingw32/bin/../lib/gcc/nios2-elf/7.3.1/../../../../../H-x86_64-mingw32/nios2-elf/lib\libc.a(lib_a-svfiscanf.o)
                                        0xbdf (size before relaxing)
 .debug_str     0x000000000000670a       0x4c c:/intelfpga_pro/18.1/nios2eds/bin/gnu/h-x86_64-mingw32/bin/../lib/gcc/nios2-elf/7.3.1/../../../../../H-x86_64-mingw32/nios2-elf/lib\libc.a(lib_a-ungetc.o)
                                        0x740 (size before relaxing)
 .debug_str     0x0000000000006756       0x37 c:/intelfpga_pro/18.1/nios2eds/bin/gnu/h-x86_64-mingw32/bin/../lib/gcc/nios2-elf/7.3.1/../../../../../H-x86_64-mingw32/nios2-elf/lib\libc.a(lib_a-vfiprintf.o)
                                        0xc57 (size before relaxing)
 .debug_str     0x000000000000678d       0x41 c:/intelfpga_pro/18.1/nios2eds/bin/gnu/h-x86_64-mingw32/bin/../lib/gcc/nios2-elf/7.3.1/../../../../../H-x86_64-mingw32/nios2-elf/lib\libc.a(lib_a-wbuf.o)
                                        0x730 (size before relaxing)
 .debug_str     0x00000000000067ce       0x3b c:/intelfpga_pro/18.1/nios2eds/bin/gnu/h-x86_64-mingw32/bin/../lib/gcc/nios2-elf/7.3.1/../../../../../H-x86_64-mingw32/nios2-elf/lib\libc.a(lib_a-writer.o)
                                        0x5ed (size before relaxing)
 .debug_str     0x0000000000006809       0x3b c:/intelfpga_pro/18.1/nios2eds/bin/gnu/h-x86_64-mingw32/bin/../lib/gcc/nios2-elf/7.3.1/../../../../../H-x86_64-mingw32/nios2-elf/lib\libc.a(closer.o)
                                        0x5dd (size before relaxing)
 .debug_str     0x0000000000006844       0x49 c:/intelfpga_pro/18.1/nios2eds/bin/gnu/h-x86_64-mingw32/bin/../lib/gcc/nios2-elf/7.3.1/../../../../../H-x86_64-mingw32/nios2-elf/lib\libc.a(lib_a-environ.o)
                                        0x150 (size before relaxing)
 .debug_str     0x000000000000688d       0x4c c:/intelfpga_pro/18.1/nios2eds/bin/gnu/h-x86_64-mingw32/bin/../lib/gcc/nios2-elf/7.3.1/../../../../../H-x86_64-mingw32/nios2-elf/lib\libc.a(lib_a-fclose.o)
                                        0x742 (size before relaxing)
 .debug_str     0x00000000000068d9       0x4f c:/intelfpga_pro/18.1/nios2eds/bin/gnu/h-x86_64-mingw32/bin/../lib/gcc/nios2-elf/7.3.1/../../../../../H-x86_64-mingw32/nios2-elf/lib\libc.a(lib_a-fputwc.o)
                                        0x762 (size before relaxing)
 .debug_str     0x0000000000006928       0x47 c:/intelfpga_pro/18.1/nios2eds/bin/gnu/h-x86_64-mingw32/bin/../lib/gcc/nios2-elf/7.3.1/../../../../../H-x86_64-mingw32/nios2-elf/lib\libc.a(lib_a-fstatr.o)
                                        0x73d (size before relaxing)
 .debug_str     0x000000000000696f       0x43 c:/intelfpga_pro/18.1/nios2eds/bin/gnu/h-x86_64-mingw32/bin/../lib/gcc/nios2-elf/7.3.1/../../../../../H-x86_64-mingw32/nios2-elf/lib\libc.a(lib_a-isattyr.o)
                                        0x5e0 (size before relaxing)
 .debug_str     0x00000000000069b2       0x3d c:/intelfpga_pro/18.1/nios2eds/bin/gnu/h-x86_64-mingw32/bin/../lib/gcc/nios2-elf/7.3.1/../../../../../H-x86_64-mingw32/nios2-elf/lib\libc.a(lib_a-iswspace.o)
                                        0x8dd (size before relaxing)
 .debug_str     0x00000000000069ef       0x41 c:/intelfpga_pro/18.1/nios2eds/bin/gnu/h-x86_64-mingw32/bin/../lib/gcc/nios2-elf/7.3.1/../../../../../H-x86_64-mingw32/nios2-elf/lib\libc.a(lib_a-lseekr.o)
                                        0x5e4 (size before relaxing)
 .debug_str     0x0000000000006a30       0x4c c:/intelfpga_pro/18.1/nios2eds/bin/gnu/h-x86_64-mingw32/bin/../lib/gcc/nios2-elf/7.3.1/../../../../../H-x86_64-mingw32/nios2-elf/lib\libc.a(lib_a-mbrtowc.o)
                                        0x944 (size before relaxing)
 .debug_str     0x0000000000006a7c       0x3a c:/intelfpga_pro/18.1/nios2eds/bin/gnu/h-x86_64-mingw32/bin/../lib/gcc/nios2-elf/7.3.1/../../../../../H-x86_64-mingw32/nios2-elf/lib\libc.a(lib_a-readr.o)
                                        0x5ea (size before relaxing)
 .debug_str     0x0000000000006ab6       0x49 c:/intelfpga_pro/18.1/nios2eds/bin/gnu/h-x86_64-mingw32/bin/../lib/gcc/nios2-elf/7.3.1/../../../../../H-x86_64-mingw32/nios2-elf/lib\libc.a(lib_a-sccl.o)
                                        0x6eb (size before relaxing)
 .debug_str     0x0000000000006aff       0x57 c:/intelfpga_pro/18.1/nios2eds/bin/gnu/h-x86_64-mingw32/bin/../lib/gcc/nios2-elf/7.3.1/../../../../../H-x86_64-mingw32/nios2-elf/lib\libc.a(lib_a-strtol.o)
                                        0x977 (size before relaxing)
 .debug_str     0x0000000000006b56       0x50 c:/intelfpga_pro/18.1/nios2eds/bin/gnu/h-x86_64-mingw32/bin/../lib/gcc/nios2-elf/7.3.1/../../../../../H-x86_64-mingw32/nios2-elf/lib\libc.a(lib_a-strtoll.o)
                                        0x97c (size before relaxing)
 .debug_str     0x0000000000006ba6       0x53 c:/intelfpga_pro/18.1/nios2eds/bin/gnu/h-x86_64-mingw32/bin/../lib/gcc/nios2-elf/7.3.1/../../../../../H-x86_64-mingw32/nios2-elf/lib\libc.a(lib_a-strtoull.o)
                                        0x981 (size before relaxing)
 .debug_str     0x0000000000006bf9       0x45 c:/intelfpga_pro/18.1/nios2eds/bin/gnu/h-x86_64-mingw32/bin/../lib/gcc/nios2-elf/7.3.1/../../../../../H-x86_64-mingw32/nios2-elf/lib\libc.a(lib_a-wcrtomb.o)
                                        0x944 (size before relaxing)
 .debug_str     0x0000000000006c3e       0x36 c:/intelfpga_pro/18.1/nios2eds/bin/gnu/h-x86_64-mingw32/bin/../lib/gcc/nios2-elf/7.3.1\libgcc.a(eqdf2.o)
                                        0x223 (size before relaxing)
 .debug_str     0x0000000000006c74       0x36 c:/intelfpga_pro/18.1/nios2eds/bin/gnu/h-x86_64-mingw32/bin/../lib/gcc/nios2-elf/7.3.1\libgcc.a(ledf2.o)
                                        0x247 (size before relaxing)
 .debug_str     0x0000000000006caa       0x3c c:/intelfpga_pro/18.1/nios2eds/bin/gnu/h-x86_64-mingw32/bin/../lib/gcc/nios2-elf/7.3.1\libgcc.a(unorddf2.o)
                                        0x229 (size before relaxing)
 .debug_str     0x0000000000006ce6       0x3e c:/intelfpga_pro/18.1/nios2eds/bin/gnu/h-x86_64-mingw32/bin/../lib/gcc/nios2-elf/7.3.1\libgcc.a(floatsidf.o)
                                        0x2c9 (size before relaxing)
 .debug_str     0x0000000000006d24      0x1e8 C:/Git/ArrowESC/Cyclone10GX_Rev2_Demo/software/C10GX_SoM_Rev2_Demo_bsp/\libhal_bsp.a(alt_close.o)
                                        0x755 (size before relaxing)
 .debug_str     0x0000000000006f0c       0x2c C:/Git/ArrowESC/Cyclone10GX_Rev2_Demo/software/C10GX_SoM_Rev2_Demo_bsp/\libhal_bsp.a(alt_dcache_flush.o)
                                        0x654 (size before relaxing)
 .debug_str     0x0000000000006f38       0x4c C:/Git/ArrowESC/Cyclone10GX_Rev2_Demo/software/C10GX_SoM_Rev2_Demo_bsp/\libhal_bsp.a(alt_dev.o)
                                        0x8b8 (size before relaxing)
 .debug_str     0x0000000000006f84       0x45 C:/Git/ArrowESC/Cyclone10GX_Rev2_Demo/software/C10GX_SoM_Rev2_Demo_bsp/\libhal_bsp.a(alt_dev_llist_insert.o)
                                        0x6d2 (size before relaxing)
 .debug_str     0x0000000000006fc9       0x17 C:/Git/ArrowESC/Cyclone10GX_Rev2_Demo/software/C10GX_SoM_Rev2_Demo_bsp/\libhal_bsp.a(alt_env_lock.o)
                                        0x63f (size before relaxing)
 .debug_str     0x0000000000006fe0       0x14 C:/Git/ArrowESC/Cyclone10GX_Rev2_Demo/software/C10GX_SoM_Rev2_Demo_bsp/\libhal_bsp.a(alt_errno.o)
                                        0x64b (size before relaxing)
 .debug_str     0x0000000000006ff4       0x14 C:/Git/ArrowESC/Cyclone10GX_Rev2_Demo/software/C10GX_SoM_Rev2_Demo_bsp/\libhal_bsp.a(alt_fstat.o)
                                        0x876 (size before relaxing)
 .debug_str     0x0000000000007008       0x34 C:/Git/ArrowESC/Cyclone10GX_Rev2_Demo/software/C10GX_SoM_Rev2_Demo_bsp/\libhal_bsp.a(alt_icache_flush_all.o)
                                        0x64e (size before relaxing)
 .debug_str     0x000000000000703c       0xe2 C:/Git/ArrowESC/Cyclone10GX_Rev2_Demo/software/C10GX_SoM_Rev2_Demo_bsp/\libhal_bsp.a(alt_iic.o)
                                        0x732 (size before relaxing)
 .debug_str     0x000000000000711e       0x4c C:/Git/ArrowESC/Cyclone10GX_Rev2_Demo/software/C10GX_SoM_Rev2_Demo_bsp/\libhal_bsp.a(alt_iic_isr_register.o)
                                        0x6ee (size before relaxing)
 .debug_str     0x000000000000716a       0x72 C:/Git/ArrowESC/Cyclone10GX_Rev2_Demo/software/C10GX_SoM_Rev2_Demo_bsp/\libhal_bsp.a(alt_instruction_exception_register.o)
                                        0x6db (size before relaxing)
 .debug_str     0x00000000000071dc       0x18 C:/Git/ArrowESC/Cyclone10GX_Rev2_Demo/software/C10GX_SoM_Rev2_Demo_bsp/\libhal_bsp.a(alt_irq_entry.o)
                                         0x6e (size before relaxing)
 .debug_str     0x00000000000071f4       0x3a C:/Git/ArrowESC/Cyclone10GX_Rev2_Demo/software/C10GX_SoM_Rev2_Demo_bsp/\libhal_bsp.a(alt_irq_handler.o)
                                        0x69d (size before relaxing)
 .debug_str     0x000000000000722e       0x17 C:/Git/ArrowESC/Cyclone10GX_Rev2_Demo/software/C10GX_SoM_Rev2_Demo_bsp/\libhal_bsp.a(alt_irq_vars.o)
                                        0x241 (size before relaxing)
 .debug_str     0x0000000000007245       0x15 C:/Git/ArrowESC/Cyclone10GX_Rev2_Demo/software/C10GX_SoM_Rev2_Demo_bsp/\libhal_bsp.a(alt_isatty.o)
                                        0x87e (size before relaxing)
 .debug_str     0x000000000000725a       0xe9 C:/Git/ArrowESC/Cyclone10GX_Rev2_Demo/software/C10GX_SoM_Rev2_Demo_bsp/\libhal_bsp.a(alt_load.o)
                                        0x70b (size before relaxing)
 .debug_str     0x0000000000007343       0x14 C:/Git/ArrowESC/Cyclone10GX_Rev2_Demo/software/C10GX_SoM_Rev2_Demo_bsp/\libhal_bsp.a(alt_lseek.o)
                                        0x75c (size before relaxing)
 .debug_str     0x0000000000007357       0x44 C:/Git/ArrowESC/Cyclone10GX_Rev2_Demo/software/C10GX_SoM_Rev2_Demo_bsp/\libhal_bsp.a(alt_main.o)
                                        0x8c1 (size before relaxing)
 .debug_str     0x000000000000739b       0x1a C:/Git/ArrowESC/Cyclone10GX_Rev2_Demo/software/C10GX_SoM_Rev2_Demo_bsp/\libhal_bsp.a(alt_malloc_lock.o)
                                        0x648 (size before relaxing)
 .debug_str     0x00000000000073b5       0x2c C:/Git/ArrowESC/Cyclone10GX_Rev2_Demo/software/C10GX_SoM_Rev2_Demo_bsp/\libhal_bsp.a(alt_printf.o)
                                        0x213 (size before relaxing)
 .debug_str     0x00000000000073e1       0x22 C:/Git/ArrowESC/Cyclone10GX_Rev2_Demo/software/C10GX_SoM_Rev2_Demo_bsp/\libhal_bsp.a(alt_putchar.o)
                                        0x632 (size before relaxing)
 .debug_str     0x0000000000007403       0x13 C:/Git/ArrowESC/Cyclone10GX_Rev2_Demo/software/C10GX_SoM_Rev2_Demo_bsp/\libhal_bsp.a(alt_read.o)
                                        0x8ae (size before relaxing)
 .debug_str     0x0000000000007416       0x28 C:/Git/ArrowESC/Cyclone10GX_Rev2_Demo/software/C10GX_SoM_Rev2_Demo_bsp/\libhal_bsp.a(alt_release_fd.o)
                                        0x303 (size before relaxing)
 .debug_str     0x000000000000743e       0x7f C:/Git/ArrowESC/Cyclone10GX_Rev2_Demo/software/C10GX_SoM_Rev2_Demo_bsp/\libhal_bsp.a(alt_sbrk.o)
                                        0x6f8 (size before relaxing)
 .debug_str     0x00000000000074bd       0x29 C:/Git/ArrowESC/Cyclone10GX_Rev2_Demo/software/C10GX_SoM_Rev2_Demo_bsp/\libhal_bsp.a(alt_usleep.o)
                                        0x292 (size before relaxing)
 .debug_str     0x00000000000074e6       0x14 C:/Git/ArrowESC/Cyclone10GX_Rev2_Demo/software/C10GX_SoM_Rev2_Demo_bsp/\libhal_bsp.a(alt_write.o)
                                        0x8af (size before relaxing)
 .debug_str     0x00000000000074fa      0x3f8 C:/Git/ArrowESC/Cyclone10GX_Rev2_Demo/software/C10GX_SoM_Rev2_Demo_bsp/\libhal_bsp.a(alt_sys_init.o)
                                        0xcf2 (size before relaxing)
 .debug_str     0x00000000000078f2      0x915 C:/Git/ArrowESC/Cyclone10GX_Rev2_Demo/software/C10GX_SoM_Rev2_Demo_bsp/\libhal_bsp.a(altera_avalon_i2c.o)
                                       0x11aa (size before relaxing)
 .debug_str     0x0000000000008207       0xac C:/Git/ArrowESC/Cyclone10GX_Rev2_Demo/software/C10GX_SoM_Rev2_Demo_bsp/\libhal_bsp.a(altera_avalon_jtag_uart_fd.o)
                                        0x4ae (size before relaxing)
 .debug_str     0x00000000000082b3       0xd2 C:/Git/ArrowESC/Cyclone10GX_Rev2_Demo/software/C10GX_SoM_Rev2_Demo_bsp/\libhal_bsp.a(altera_avalon_jtag_uart_init.o)
                                        0x864 (size before relaxing)
 .debug_str     0x0000000000008385       0x4a C:/Git/ArrowESC/Cyclone10GX_Rev2_Demo/software/C10GX_SoM_Rev2_Demo_bsp/\libhal_bsp.a(altera_avalon_jtag_uart_ioctl.o)
                                        0x7af (size before relaxing)
 .debug_str     0x00000000000083cf       0x48 C:/Git/ArrowESC/Cyclone10GX_Rev2_Demo/software/C10GX_SoM_Rev2_Demo_bsp/\libhal_bsp.a(altera_avalon_jtag_uart_read.o)
                                        0x80b (size before relaxing)
 .debug_str     0x0000000000008417       0x4a C:/Git/ArrowESC/Cyclone10GX_Rev2_Demo/software/C10GX_SoM_Rev2_Demo_bsp/\libhal_bsp.a(altera_avalon_jtag_uart_write.o)
                                        0x80c (size before relaxing)
 .debug_str     0x0000000000008461       0x66 C:/Git/ArrowESC/Cyclone10GX_Rev2_Demo/software/C10GX_SoM_Rev2_Demo_bsp/\libhal_bsp.a(altera_avalon_timer_sc.o)
                                        0x793 (size before relaxing)
 .debug_str     0x00000000000084c7       0x76 C:/Git/ArrowESC/Cyclone10GX_Rev2_Demo/software/C10GX_SoM_Rev2_Demo_bsp/\libhal_bsp.a(altera_avalon_timer_ts.o)
                                        0x6da (size before relaxing)
 .debug_str     0x000000000000853d       0x27 C:/Git/ArrowESC/Cyclone10GX_Rev2_Demo/software/C10GX_SoM_Rev2_Demo_bsp/\libhal_bsp.a(altera_avalon_timer_vars.o)
                                        0x677 (size before relaxing)
 .debug_str     0x0000000000008564     0x1473 C:/Git/ArrowESC/Cyclone10GX_Rev2_Demo/software/C10GX_SoM_Rev2_Demo_bsp/\libhal_bsp.a(altera_avalon_tse.o)
                                       0x2358 (size before relaxing)
 .debug_str     0x00000000000099d7       0x2c C:/Git/ArrowESC/Cyclone10GX_Rev2_Demo/software/C10GX_SoM_Rev2_Demo_bsp/\libhal_bsp.a(altera_avalon_tse_system_info.o)
                                        0xde4 (size before relaxing)
 .debug_str     0x0000000000009a03      0x241 C:/Git/ArrowESC/Cyclone10GX_Rev2_Demo/software/C10GX_SoM_Rev2_Demo_bsp/\libhal_bsp.a(altera_generic_quad_spi_controller2.o)
                                        0xad9 (size before relaxing)
 .debug_str     0x0000000000009c44      0x7e7 C:/Git/ArrowESC/Cyclone10GX_Rev2_Demo/software/C10GX_SoM_Rev2_Demo_bsp/\libhal_bsp.a(altera_msgdma.o)
                                       0x122c (size before relaxing)
 .debug_str     0x000000000000a42b       0x39 C:/Git/ArrowESC/Cyclone10GX_Rev2_Demo/software/C10GX_SoM_Rev2_Demo_bsp/\libhal_bsp.a(alt_alarm_start.o)
                                        0x77c (size before relaxing)
 .debug_str     0x000000000000a464       0x42 C:/Git/ArrowESC/Cyclone10GX_Rev2_Demo/software/C10GX_SoM_Rev2_Demo_bsp/\libhal_bsp.a(alt_busy_sleep.o)
                                        0x65a (size before relaxing)
 .debug_str     0x000000000000a4a6       0x34 C:/Git/ArrowESC/Cyclone10GX_Rev2_Demo/software/C10GX_SoM_Rev2_Demo_bsp/\libhal_bsp.a(alt_dcache_flush_all.o)
                                        0x64e (size before relaxing)
 .debug_str     0x000000000000a4da       0x48 C:/Git/ArrowESC/Cyclone10GX_Rev2_Demo/software/C10GX_SoM_Rev2_Demo_bsp/\libhal_bsp.a(alt_do_ctors.o)
                                        0x1e9 (size before relaxing)
 .debug_str     0x000000000000a522       0x4c C:/Git/ArrowESC/Cyclone10GX_Rev2_Demo/software/C10GX_SoM_Rev2_Demo_bsp/\libhal_bsp.a(alt_do_dtors.o)
                                        0x1e8 (size before relaxing)
 .debug_str     0x000000000000a56e       0x1e C:/Git/ArrowESC/Cyclone10GX_Rev2_Demo/software/C10GX_SoM_Rev2_Demo_bsp/\libhal_bsp.a(alt_exception_entry.o)
                                         0x74 (size before relaxing)
 .debug_str     0x000000000000a58c       0x36 C:/Git/ArrowESC/Cyclone10GX_Rev2_Demo/software/C10GX_SoM_Rev2_Demo_bsp/\libhal_bsp.a(alt_find_dev.o)
                                        0x709 (size before relaxing)
 .debug_str     0x000000000000a5c2       0x6c C:/Git/ArrowESC/Cyclone10GX_Rev2_Demo/software/C10GX_SoM_Rev2_Demo_bsp/\libhal_bsp.a(alt_flash_dev.o)
                                        0x8aa (size before relaxing)
 .debug_str     0x000000000000a62e       0x2c C:/Git/ArrowESC/Cyclone10GX_Rev2_Demo/software/C10GX_SoM_Rev2_Demo_bsp/\libhal_bsp.a(alt_icache_flush.o)
                                        0x654 (size before relaxing)
 .debug_str     0x000000000000a65a       0x79 C:/Git/ArrowESC/Cyclone10GX_Rev2_Demo/software/C10GX_SoM_Rev2_Demo_bsp/\libhal_bsp.a(alt_instruction_exception_entry.o)
                                        0x705 (size before relaxing)
 .debug_str     0x000000000000a6d3       0x56 C:/Git/ArrowESC/Cyclone10GX_Rev2_Demo/software/C10GX_SoM_Rev2_Demo_bsp/\libhal_bsp.a(alt_io_redirect.o)
                                        0x8b6 (size before relaxing)
 .debug_str     0x000000000000a729       0x29 C:/Git/ArrowESC/Cyclone10GX_Rev2_Demo/software/C10GX_SoM_Rev2_Demo_bsp/\libhal_bsp.a(alt_open.o)
                                        0x756 (size before relaxing)
 .debug_str     0x000000000000a752       0x4a C:/Git/ArrowESC/Cyclone10GX_Rev2_Demo/software/C10GX_SoM_Rev2_Demo_bsp/\libhal_bsp.a(alt_tick.o)
                                        0x750 (size before relaxing)
 .debug_str     0x000000000000a79c       0x3b C:/Git/ArrowESC/Cyclone10GX_Rev2_Demo/software/C10GX_SoM_Rev2_Demo_bsp/\libhal_bsp.a(altera_nios2_gen2_irq.o)
                                        0x662 (size before relaxing)
 .debug_str     0x000000000000a7d7       0x26 C:/Git/ArrowESC/Cyclone10GX_Rev2_Demo/software/C10GX_SoM_Rev2_Demo_bsp/\libhal_bsp.a(alt_find_file.o)
                                        0x70b (size before relaxing)
 .debug_str     0x000000000000a7fd       0x30 C:/Git/ArrowESC/Cyclone10GX_Rev2_Demo/software/C10GX_SoM_Rev2_Demo_bsp/\libhal_bsp.a(alt_get_fd.o)
                                        0x727 (size before relaxing)
 .debug_str     0x000000000000a82d       0x80 c:/intelfpga_pro/18.1/nios2eds/bin/gnu/h-x86_64-mingw32/bin/../lib/gcc/nios2-elf/7.3.1/../../../../../H-x86_64-mingw32/nios2-elf/lib\libc.a(lib_a-atexit.o)
                                        0x5f2 (size before relaxing)
 .debug_str     0x000000000000a8ad       0x4b c:/intelfpga_pro/18.1/nios2eds/bin/gnu/h-x86_64-mingw32/bin/../lib/gcc/nios2-elf/7.3.1/../../../../../H-x86_64-mingw32/nios2-elf/lib\libc.a(lib_a-exit.o)
                                        0x5f3 (size before relaxing)
 .debug_str     0x000000000000a8f8       0x57 c:/intelfpga_pro/18.1/nios2eds/bin/gnu/h-x86_64-mingw32/bin/../lib/gcc/nios2-elf/7.3.1/../../../../../H-x86_64-mingw32/nios2-elf/lib\libc.a(lib_a-__atexit.o)
                                        0x617 (size before relaxing)
 .debug_str     0x000000000000a94f       0x49 c:/intelfpga_pro/18.1/nios2eds/bin/gnu/h-x86_64-mingw32/bin/../lib/gcc/nios2-elf/7.3.1/../../../../../H-x86_64-mingw32/nios2-elf/lib\libc.a(lib_a-__call_atexit.o)
                                        0x5f5 (size before relaxing)
 .debug_str     0x000000000000a998       0x2a C:/Git/ArrowESC/Cyclone10GX_Rev2_Demo/software/C10GX_SoM_Rev2_Demo_bsp/\libhal_bsp.a(alt_exit.o)
                                        0x657 (size before relaxing)

.debug_loc      0x0000000000000000    0x20668
 *(.debug_loc)
 .debug_loc     0x0000000000000000      0x100 c:/intelfpga_pro/18.1/nios2eds/bin/gnu/h-x86_64-mingw32/bin/../lib/gcc/nios2-elf/7.3.1\libgcc.a(_muldi3.o)
 .debug_loc     0x0000000000000100       0x21 c:/intelfpga_pro/18.1/nios2eds/bin/gnu/h-x86_64-mingw32/bin/../lib/gcc/nios2-elf/7.3.1\libgcc.a(_bswapsi2.o)
 .debug_loc     0x0000000000000121       0x28 c:/intelfpga_pro/18.1/nios2eds/bin/gnu/h-x86_64-mingw32/bin/../lib/gcc/nios2-elf/7.3.1\libgcc.a(_fixunsdfsi.o)
 .debug_loc     0x0000000000000149       0x51 c:/intelfpga_pro/18.1/nios2eds/bin/gnu/h-x86_64-mingw32/bin/../lib/gcc/nios2-elf/7.3.1\libgcc.a(_fixunsdfdi.o)
 .debug_loc     0x000000000000019a     0x128f c:/intelfpga_pro/18.1/nios2eds/bin/gnu/h-x86_64-mingw32/bin/../lib/gcc/nios2-elf/7.3.1\libgcc.a(_udivdi3.o)
 .debug_loc     0x0000000000001429     0x114f c:/intelfpga_pro/18.1/nios2eds/bin/gnu/h-x86_64-mingw32/bin/../lib/gcc/nios2-elf/7.3.1\libgcc.a(_umoddi3.o)
 .debug_loc     0x0000000000002578      0x55e c:/intelfpga_pro/18.1/nios2eds/bin/gnu/h-x86_64-mingw32/bin/../lib/gcc/nios2-elf/7.3.1\libgcc.a(lib2-divmod.o)
 .debug_loc     0x0000000000002ad6     0x1b0a c:/intelfpga_pro/18.1/nios2eds/bin/gnu/h-x86_64-mingw32/bin/../lib/gcc/nios2-elf/7.3.1\libgcc.a(adddf3.o)
 .debug_loc     0x00000000000045e0     0x21e2 c:/intelfpga_pro/18.1/nios2eds/bin/gnu/h-x86_64-mingw32/bin/../lib/gcc/nios2-elf/7.3.1\libgcc.a(divdf3.o)
 .debug_loc     0x00000000000067c2       0xe1 c:/intelfpga_pro/18.1/nios2eds/bin/gnu/h-x86_64-mingw32/bin/../lib/gcc/nios2-elf/7.3.1\libgcc.a(gedf2.o)
 .debug_loc     0x00000000000068a3      0xfec c:/intelfpga_pro/18.1/nios2eds/bin/gnu/h-x86_64-mingw32/bin/../lib/gcc/nios2-elf/7.3.1\libgcc.a(muldf3.o)
 .debug_loc     0x000000000000788f     0x194c c:/intelfpga_pro/18.1/nios2eds/bin/gnu/h-x86_64-mingw32/bin/../lib/gcc/nios2-elf/7.3.1\libgcc.a(subdf3.o)
 .debug_loc     0x00000000000091db      0x11b c:/intelfpga_pro/18.1/nios2eds/bin/gnu/h-x86_64-mingw32/bin/../lib/gcc/nios2-elf/7.3.1\libgcc.a(fixdfsi.o)
 .debug_loc     0x00000000000092f6      0x1e1 c:/intelfpga_pro/18.1/nios2eds/bin/gnu/h-x86_64-mingw32/bin/../lib/gcc/nios2-elf/7.3.1\libgcc.a(floatunsidf.o)
 .debug_loc     0x00000000000094d7      0x2aa c:/intelfpga_pro/18.1/nios2eds/bin/gnu/h-x86_64-mingw32/bin/../lib/gcc/nios2-elf/7.3.1\libgcc.a(extendsfdf2.o)
 .debug_loc     0x0000000000009781       0xa6 c:/intelfpga_pro/18.1/nios2eds/bin/gnu/h-x86_64-mingw32/bin/../lib/gcc/nios2-elf/7.3.1\libgcc.a(_clzsi2.o)
 .debug_loc     0x0000000000009827       0x58 c:/intelfpga_pro/18.1/nios2eds/bin/gnu/h-x86_64-mingw32/bin/../lib/gcc/nios2-elf/7.3.1/../../../../../H-x86_64-mingw32/nios2-elf/lib\libc.a(lib_a-calloc.o)
 .debug_loc     0x000000000000987f      0x2bb c:/intelfpga_pro/18.1/nios2eds/bin/gnu/h-x86_64-mingw32/bin/../lib/gcc/nios2-elf/7.3.1/../../../../../H-x86_64-mingw32/nios2-elf/lib\libc.a(lib_a-callocr.o)
 .debug_loc     0x0000000000009b3a      0x1ae c:/intelfpga_pro/18.1/nios2eds/bin/gnu/h-x86_64-mingw32/bin/../lib/gcc/nios2-elf/7.3.1/../../../../../H-x86_64-mingw32/nios2-elf/lib\libc.a(lib_a-getc.o)
 .debug_loc     0x0000000000009ce8      0x131 c:/intelfpga_pro/18.1/nios2eds/bin/gnu/h-x86_64-mingw32/bin/../lib/gcc/nios2-elf/7.3.1/../../../../../H-x86_64-mingw32/nios2-elf/lib\libc.a(lib_a-locale.o)
 .debug_loc     0x0000000000009e19       0x58 c:/intelfpga_pro/18.1/nios2eds/bin/gnu/h-x86_64-mingw32/bin/../lib/gcc/nios2-elf/7.3.1/../../../../../H-x86_64-mingw32/nios2-elf/lib\libc.a(lib_a-malloc.o)
 .debug_loc     0x0000000000009e71      0xb35 c:/intelfpga_pro/18.1/nios2eds/bin/gnu/h-x86_64-mingw32/bin/../lib/gcc/nios2-elf/7.3.1/../../../../../H-x86_64-mingw32/nios2-elf/lib\libc.a(lib_a-mallocr.o)
 .debug_loc     0x000000000000a9a6      0x105 c:/intelfpga_pro/18.1/nios2eds/bin/gnu/h-x86_64-mingw32/bin/../lib/gcc/nios2-elf/7.3.1/../../../../../H-x86_64-mingw32/nios2-elf/lib\libc.a(lib_a-mbtowc_r.o)
 .debug_loc     0x000000000000aaab      0x287 c:/intelfpga_pro/18.1/nios2eds/bin/gnu/h-x86_64-mingw32/bin/../lib/gcc/nios2-elf/7.3.1/../../../../../H-x86_64-mingw32/nios2-elf/lib\libc.a(lib_a-memcpy.o)
 .debug_loc     0x000000000000ad32      0x18e c:/intelfpga_pro/18.1/nios2eds/bin/gnu/h-x86_64-mingw32/bin/../lib/gcc/nios2-elf/7.3.1/../../../../../H-x86_64-mingw32/nios2-elf/lib\libc.a(lib_a-memset.o)
 .debug_loc     0x000000000000aec0      0x4dc c:/intelfpga_pro/18.1/nios2eds/bin/gnu/h-x86_64-mingw32/bin/../lib/gcc/nios2-elf/7.3.1/../../../../../H-x86_64-mingw32/nios2-elf/lib\libc.a(lib_a-mktime.o)
 .debug_loc     0x000000000000b39c       0xd3 c:/intelfpga_pro/18.1/nios2eds/bin/gnu/h-x86_64-mingw32/bin/../lib/gcc/nios2-elf/7.3.1/../../../../../H-x86_64-mingw32/nios2-elf/lib\libc.a(lib_a-printf.o)
 .debug_loc     0x000000000000b46f       0x81 c:/intelfpga_pro/18.1/nios2eds/bin/gnu/h-x86_64-mingw32/bin/../lib/gcc/nios2-elf/7.3.1/../../../../../H-x86_64-mingw32/nios2-elf/lib\libc.a(lib_a-putchar.o)
 .debug_loc     0x000000000000b4f0      0x11b c:/intelfpga_pro/18.1/nios2eds/bin/gnu/h-x86_64-mingw32/bin/../lib/gcc/nios2-elf/7.3.1/../../../../../H-x86_64-mingw32/nios2-elf/lib\libc.a(lib_a-puts.o)
 .debug_loc     0x000000000000b60b       0xf2 c:/intelfpga_pro/18.1/nios2eds/bin/gnu/h-x86_64-mingw32/bin/../lib/gcc/nios2-elf/7.3.1/../../../../../H-x86_64-mingw32/nios2-elf/lib\libc.a(lib_a-rget.o)
 .debug_loc     0x000000000000b6fd       0x66 c:/intelfpga_pro/18.1/nios2eds/bin/gnu/h-x86_64-mingw32/bin/../lib/gcc/nios2-elf/7.3.1/../../../../../H-x86_64-mingw32/nios2-elf/lib\libc.a(lib_a-sbrkr.o)
 .debug_loc     0x000000000000b763      0x106 c:/intelfpga_pro/18.1/nios2eds/bin/gnu/h-x86_64-mingw32/bin/../lib/gcc/nios2-elf/7.3.1/../../../../../H-x86_64-mingw32/nios2-elf/lib\libc.a(lib_a-sprintf.o)
 .debug_loc     0x000000000000b869       0xb0 c:/intelfpga_pro/18.1/nios2eds/bin/gnu/h-x86_64-mingw32/bin/../lib/gcc/nios2-elf/7.3.1/../../../../../H-x86_64-mingw32/nios2-elf/lib\libc.a(lib_a-strcmp.o)
 .debug_loc     0x000000000000b919       0xfe c:/intelfpga_pro/18.1/nios2eds/bin/gnu/h-x86_64-mingw32/bin/../lib/gcc/nios2-elf/7.3.1/../../../../../H-x86_64-mingw32/nios2-elf/lib\libc.a(lib_a-strcpy.o)
 .debug_loc     0x000000000000ba17       0x94 c:/intelfpga_pro/18.1/nios2eds/bin/gnu/h-x86_64-mingw32/bin/../lib/gcc/nios2-elf/7.3.1/../../../../../H-x86_64-mingw32/nios2-elf/lib\libc.a(lib_a-strlen.o)
 .debug_loc     0x000000000000baab     0x2ce1 c:/intelfpga_pro/18.1/nios2eds/bin/gnu/h-x86_64-mingw32/bin/../lib/gcc/nios2-elf/7.3.1/../../../../../H-x86_64-mingw32/nios2-elf/lib\libc.a(lib_a-svfprintf.o)
 .debug_loc     0x000000000000e78c      0x1e2 c:/intelfpga_pro/18.1/nios2eds/bin/gnu/h-x86_64-mingw32/bin/../lib/gcc/nios2-elf/7.3.1/../../../../../H-x86_64-mingw32/nios2-elf/lib\libc.a(lib_a-tzcalc_limits.o)
 .debug_loc     0x000000000000e96e      0x268 c:/intelfpga_pro/18.1/nios2eds/bin/gnu/h-x86_64-mingw32/bin/../lib/gcc/nios2-elf/7.3.1/../../../../../H-x86_64-mingw32/nios2-elf/lib\libc.a(lib_a-tzset_r.o)
 .debug_loc     0x000000000000ebd6     0x2ff2 c:/intelfpga_pro/18.1/nios2eds/bin/gnu/h-x86_64-mingw32/bin/../lib/gcc/nios2-elf/7.3.1/../../../../../H-x86_64-mingw32/nios2-elf/lib\libc.a(lib_a-vfprintf.o)
 .debug_loc     0x0000000000011bc8       0x84 c:/intelfpga_pro/18.1/nios2eds/bin/gnu/h-x86_64-mingw32/bin/../lib/gcc/nios2-elf/7.3.1/../../../../../H-x86_64-mingw32/nios2-elf/lib\libc.a(lib_a-wctomb_r.o)
 .debug_loc     0x0000000000011c4c       0xb8 c:/intelfpga_pro/18.1/nios2eds/bin/gnu/h-x86_64-mingw32/bin/../lib/gcc/nios2-elf/7.3.1/../../../../../H-x86_64-mingw32/nios2-elf/lib\libc.a(lib_a-wsetup.o)
 .debug_loc     0x0000000000011d04      0x104 c:/intelfpga_pro/18.1/nios2eds/bin/gnu/h-x86_64-mingw32/bin/../lib/gcc/nios2-elf/7.3.1/../../../../../H-x86_64-mingw32/nios2-elf/lib\libc.a(lib_a-div.o)
 .debug_loc     0x0000000000011e08     0x2891 c:/intelfpga_pro/18.1/nios2eds/bin/gnu/h-x86_64-mingw32/bin/../lib/gcc/nios2-elf/7.3.1/../../../../../H-x86_64-mingw32/nios2-elf/lib\libc.a(lib_a-dtoa.o)
 .debug_loc     0x0000000000014699      0x363 c:/intelfpga_pro/18.1/nios2eds/bin/gnu/h-x86_64-mingw32/bin/../lib/gcc/nios2-elf/7.3.1/../../../../../H-x86_64-mingw32/nios2-elf/lib\libc.a(lib_a-fflush.o)
 .debug_loc     0x00000000000149fc      0x289 c:/intelfpga_pro/18.1/nios2eds/bin/gnu/h-x86_64-mingw32/bin/../lib/gcc/nios2-elf/7.3.1/../../../../../H-x86_64-mingw32/nios2-elf/lib\libc.a(lib_a-findfp.o)
 .debug_loc     0x0000000000014c85      0x528 c:/intelfpga_pro/18.1/nios2eds/bin/gnu/h-x86_64-mingw32/bin/../lib/gcc/nios2-elf/7.3.1/../../../../../H-x86_64-mingw32/nios2-elf/lib\libc.a(lib_a-freer.o)
 .debug_loc     0x00000000000151ad      0x603 c:/intelfpga_pro/18.1/nios2eds/bin/gnu/h-x86_64-mingw32/bin/../lib/gcc/nios2-elf/7.3.1/../../../../../H-x86_64-mingw32/nios2-elf/lib\libc.a(lib_a-fvwrite.o)
 .debug_loc     0x00000000000157b0      0x221 c:/intelfpga_pro/18.1/nios2eds/bin/gnu/h-x86_64-mingw32/bin/../lib/gcc/nios2-elf/7.3.1/../../../../../H-x86_64-mingw32/nios2-elf/lib\libc.a(lib_a-fwalk.o)
 .debug_loc     0x00000000000159d1      0x14f c:/intelfpga_pro/18.1/nios2eds/bin/gnu/h-x86_64-mingw32/bin/../lib/gcc/nios2-elf/7.3.1/../../../../../H-x86_64-mingw32/nios2-elf/lib\libc.a(lib_a-getenv_r.o)
 .debug_loc     0x0000000000015b20       0x21 c:/intelfpga_pro/18.1/nios2eds/bin/gnu/h-x86_64-mingw32/bin/../lib/gcc/nios2-elf/7.3.1/../../../../../H-x86_64-mingw32/nios2-elf/lib\libc.a(lib_a-localeconv.o)
 .debug_loc     0x0000000000015b41      0x1c3 c:/intelfpga_pro/18.1/nios2eds/bin/gnu/h-x86_64-mingw32/bin/../lib/gcc/nios2-elf/7.3.1/../../../../../H-x86_64-mingw32/nios2-elf/lib\libc.a(lib_a-makebuf.o)
 .debug_loc     0x0000000000015d04      0x14b c:/intelfpga_pro/18.1/nios2eds/bin/gnu/h-x86_64-mingw32/bin/../lib/gcc/nios2-elf/7.3.1/../../../../../H-x86_64-mingw32/nios2-elf/lib\libc.a(lib_a-memchr.o)
 .debug_loc     0x0000000000015e4f      0x334 c:/intelfpga_pro/18.1/nios2eds/bin/gnu/h-x86_64-mingw32/bin/../lib/gcc/nios2-elf/7.3.1/../../../../../H-x86_64-mingw32/nios2-elf/lib\libc.a(lib_a-memmove.o)
 .debug_loc     0x0000000000016183     0x19f5 c:/intelfpga_pro/18.1/nios2eds/bin/gnu/h-x86_64-mingw32/bin/../lib/gcc/nios2-elf/7.3.1/../../../../../H-x86_64-mingw32/nios2-elf/lib\libc.a(lib_a-mprec.o)
 .debug_loc     0x0000000000017b78      0x25c c:/intelfpga_pro/18.1/nios2eds/bin/gnu/h-x86_64-mingw32/bin/../lib/gcc/nios2-elf/7.3.1/../../../../../H-x86_64-mingw32/nios2-elf/lib\libc.a(lib_a-putc.o)
 .debug_loc     0x0000000000017dd4      0xcd0 c:/intelfpga_pro/18.1/nios2eds/bin/gnu/h-x86_64-mingw32/bin/../lib/gcc/nios2-elf/7.3.1/../../../../../H-x86_64-mingw32/nios2-elf/lib\libc.a(lib_a-reallocr.o)
 .debug_loc     0x0000000000018aa4      0x11b c:/intelfpga_pro/18.1/nios2eds/bin/gnu/h-x86_64-mingw32/bin/../lib/gcc/nios2-elf/7.3.1/../../../../../H-x86_64-mingw32/nios2-elf/lib\libc.a(lib_a-refill.o)
 .debug_loc     0x0000000000018bbf      0x106 c:/intelfpga_pro/18.1/nios2eds/bin/gnu/h-x86_64-mingw32/bin/../lib/gcc/nios2-elf/7.3.1/../../../../../H-x86_64-mingw32/nios2-elf/lib\libc.a(lib_a-siscanf.o)
 .debug_loc     0x0000000000018cc5      0x33a c:/intelfpga_pro/18.1/nios2eds/bin/gnu/h-x86_64-mingw32/bin/../lib/gcc/nios2-elf/7.3.1/../../../../../H-x86_64-mingw32/nios2-elf/lib\libc.a(lib_a-stdio.o)
 .debug_loc     0x0000000000018fff       0x9c c:/intelfpga_pro/18.1/nios2eds/bin/gnu/h-x86_64-mingw32/bin/../lib/gcc/nios2-elf/7.3.1/../../../../../H-x86_64-mingw32/nios2-elf/lib\libc.a(lib_a-strncmp.o)
 .debug_loc     0x000000000001909b      0x4d1 c:/intelfpga_pro/18.1/nios2eds/bin/gnu/h-x86_64-mingw32/bin/../lib/gcc/nios2-elf/7.3.1/../../../../../H-x86_64-mingw32/nios2-elf/lib\libc.a(lib_a-strtoul.o)
 .debug_loc     0x000000000001956c     0x1496 c:/intelfpga_pro/18.1/nios2eds/bin/gnu/h-x86_64-mingw32/bin/../lib/gcc/nios2-elf/7.3.1/../../../../../H-x86_64-mingw32/nios2-elf/lib\libc.a(lib_a-svfiprintf.o)
 .debug_loc     0x000000000001aa02     0x11e8 c:/intelfpga_pro/18.1/nios2eds/bin/gnu/h-x86_64-mingw32/bin/../lib/gcc/nios2-elf/7.3.1/../../../../../H-x86_64-mingw32/nios2-elf/lib\libc.a(lib_a-svfiscanf.o)
 .debug_loc     0x000000000001bbea      0x26d c:/intelfpga_pro/18.1/nios2eds/bin/gnu/h-x86_64-mingw32/bin/../lib/gcc/nios2-elf/7.3.1/../../../../../H-x86_64-mingw32/nios2-elf/lib\libc.a(lib_a-ungetc.o)
 .debug_loc     0x000000000001be57     0x1f27 c:/intelfpga_pro/18.1/nios2eds/bin/gnu/h-x86_64-mingw32/bin/../lib/gcc/nios2-elf/7.3.1/../../../../../H-x86_64-mingw32/nios2-elf/lib\libc.a(lib_a-vfiprintf.o)
 .debug_loc     0x000000000001dd7e      0x1bd c:/intelfpga_pro/18.1/nios2eds/bin/gnu/h-x86_64-mingw32/bin/../lib/gcc/nios2-elf/7.3.1/../../../../../H-x86_64-mingw32/nios2-elf/lib\libc.a(lib_a-wbuf.o)
 .debug_loc     0x000000000001df3b       0xc9 c:/intelfpga_pro/18.1/nios2eds/bin/gnu/h-x86_64-mingw32/bin/../lib/gcc/nios2-elf/7.3.1/../../../../../H-x86_64-mingw32/nios2-elf/lib\libc.a(lib_a-writer.o)
 .debug_loc     0x000000000001e004       0x66 c:/intelfpga_pro/18.1/nios2eds/bin/gnu/h-x86_64-mingw32/bin/../lib/gcc/nios2-elf/7.3.1/../../../../../H-x86_64-mingw32/nios2-elf/lib\libc.a(closer.o)
 .debug_loc     0x000000000001e06a      0x154 c:/intelfpga_pro/18.1/nios2eds/bin/gnu/h-x86_64-mingw32/bin/../lib/gcc/nios2-elf/7.3.1/../../../../../H-x86_64-mingw32/nios2-elf/lib\libc.a(lib_a-fclose.o)
 .debug_loc     0x000000000001e1be      0x289 c:/intelfpga_pro/18.1/nios2eds/bin/gnu/h-x86_64-mingw32/bin/../lib/gcc/nios2-elf/7.3.1/../../../../../H-x86_64-mingw32/nios2-elf/lib\libc.a(lib_a-fputwc.o)
 .debug_loc     0x000000000001e447       0x9d c:/intelfpga_pro/18.1/nios2eds/bin/gnu/h-x86_64-mingw32/bin/../lib/gcc/nios2-elf/7.3.1/../../../../../H-x86_64-mingw32/nios2-elf/lib\libc.a(lib_a-fstatr.o)
 .debug_loc     0x000000000001e4e4       0x66 c:/intelfpga_pro/18.1/nios2eds/bin/gnu/h-x86_64-mingw32/bin/../lib/gcc/nios2-elf/7.3.1/../../../../../H-x86_64-mingw32/nios2-elf/lib\libc.a(lib_a-isattyr.o)
 .debug_loc     0x000000000001e54a       0x2c c:/intelfpga_pro/18.1/nios2eds/bin/gnu/h-x86_64-mingw32/bin/../lib/gcc/nios2-elf/7.3.1/../../../../../H-x86_64-mingw32/nios2-elf/lib\libc.a(lib_a-iswspace.o)
 .debug_loc     0x000000000001e576       0xc9 c:/intelfpga_pro/18.1/nios2eds/bin/gnu/h-x86_64-mingw32/bin/../lib/gcc/nios2-elf/7.3.1/../../../../../H-x86_64-mingw32/nios2-elf/lib\libc.a(lib_a-lseekr.o)
 .debug_loc     0x000000000001e63f      0x33d c:/intelfpga_pro/18.1/nios2eds/bin/gnu/h-x86_64-mingw32/bin/../lib/gcc/nios2-elf/7.3.1/../../../../../H-x86_64-mingw32/nios2-elf/lib\libc.a(lib_a-mbrtowc.o)
 .debug_loc     0x000000000001e97c       0xc9 c:/intelfpga_pro/18.1/nios2eds/bin/gnu/h-x86_64-mingw32/bin/../lib/gcc/nios2-elf/7.3.1/../../../../../H-x86_64-mingw32/nios2-elf/lib\libc.a(lib_a-readr.o)
 .debug_loc     0x000000000001ea45      0x1c8 c:/intelfpga_pro/18.1/nios2eds/bin/gnu/h-x86_64-mingw32/bin/../lib/gcc/nios2-elf/7.3.1/../../../../../H-x86_64-mingw32/nios2-elf/lib\libc.a(lib_a-sccl.o)
 .debug_loc     0x000000000001ec0d      0x4ea c:/intelfpga_pro/18.1/nios2eds/bin/gnu/h-x86_64-mingw32/bin/../lib/gcc/nios2-elf/7.3.1/../../../../../H-x86_64-mingw32/nios2-elf/lib\libc.a(lib_a-strtol.o)
 .debug_loc     0x000000000001f0f7      0x5c3 c:/intelfpga_pro/18.1/nios2eds/bin/gnu/h-x86_64-mingw32/bin/../lib/gcc/nios2-elf/7.3.1/../../../../../H-x86_64-mingw32/nios2-elf/lib\libc.a(lib_a-strtoll.o)
 .debug_loc     0x000000000001f6ba      0x56c c:/intelfpga_pro/18.1/nios2eds/bin/gnu/h-x86_64-mingw32/bin/../lib/gcc/nios2-elf/7.3.1/../../../../../H-x86_64-mingw32/nios2-elf/lib\libc.a(lib_a-strtoull.o)
 .debug_loc     0x000000000001fc26      0x2b3 c:/intelfpga_pro/18.1/nios2eds/bin/gnu/h-x86_64-mingw32/bin/../lib/gcc/nios2-elf/7.3.1/../../../../../H-x86_64-mingw32/nios2-elf/lib\libc.a(lib_a-wcrtomb.o)
 .debug_loc     0x000000000001fed9       0x50 c:/intelfpga_pro/18.1/nios2eds/bin/gnu/h-x86_64-mingw32/bin/../lib/gcc/nios2-elf/7.3.1\libgcc.a(eqdf2.o)
 .debug_loc     0x000000000001ff29       0xe0 c:/intelfpga_pro/18.1/nios2eds/bin/gnu/h-x86_64-mingw32/bin/../lib/gcc/nios2-elf/7.3.1\libgcc.a(ledf2.o)
 .debug_loc     0x0000000000020009       0x5b c:/intelfpga_pro/18.1/nios2eds/bin/gnu/h-x86_64-mingw32/bin/../lib/gcc/nios2-elf/7.3.1\libgcc.a(unorddf2.o)
 .debug_loc     0x0000000000020064      0x210 c:/intelfpga_pro/18.1/nios2eds/bin/gnu/h-x86_64-mingw32/bin/../lib/gcc/nios2-elf/7.3.1\libgcc.a(floatsidf.o)
 .debug_loc     0x0000000000020274       0x2c c:/intelfpga_pro/18.1/nios2eds/bin/gnu/h-x86_64-mingw32/bin/../lib/gcc/nios2-elf/7.3.1/../../../../../H-x86_64-mingw32/nios2-elf/lib\libc.a(lib_a-atexit.o)
 .debug_loc     0x00000000000202a0       0x1e c:/intelfpga_pro/18.1/nios2eds/bin/gnu/h-x86_64-mingw32/bin/../lib/gcc/nios2-elf/7.3.1/../../../../../H-x86_64-mingw32/nios2-elf/lib\libc.a(lib_a-exit.o)
 .debug_loc     0x00000000000202be      0x1c2 c:/intelfpga_pro/18.1/nios2eds/bin/gnu/h-x86_64-mingw32/bin/../lib/gcc/nios2-elf/7.3.1/../../../../../H-x86_64-mingw32/nios2-elf/lib\libc.a(lib_a-__atexit.o)
 .debug_loc     0x0000000000020480      0x1e8 c:/intelfpga_pro/18.1/nios2eds/bin/gnu/h-x86_64-mingw32/bin/../lib/gcc/nios2-elf/7.3.1/../../../../../H-x86_64-mingw32/nios2-elf/lib\libc.a(lib_a-__call_atexit.o)

.debug_macinfo
 *(.debug_macinfo)

.debug_weaknames
 *(.debug_weaknames)

.debug_funcnames
 *(.debug_funcnames)

.debug_typenames
 *(.debug_typenames)

.debug_varnames
 *(.debug_varnames)

.debug_alt_sim_info
                0x0000000000000000       0x60
 *(.debug_alt_sim_info)
 .debug_alt_sim_info
                0x0000000000000000       0x30 C:/Git/ArrowESC/Cyclone10GX_Rev2_Demo/software/C10GX_SoM_Rev2_Demo_bsp//obj/HAL/src/crt0.o
 .debug_alt_sim_info
                0x0000000000000030       0x30 C:/Git/ArrowESC/Cyclone10GX_Rev2_Demo/software/C10GX_SoM_Rev2_Demo_bsp/\libhal_bsp.a(alt_busy_sleep.o)
                0x000000007ffe0000                __alt_data_end = 0x7ffe0000
                0x000000007ffe0000                PROVIDE (__alt_stack_pointer, __alt_data_end)
                [!provide]                        PROVIDE (__alt_stack_limit, __alt_stack_base)
                0x0000000080000000                PROVIDE (__alt_exception_stack_pointer, 0x80000000)
                [!provide]                        PROVIDE (__alt_exception_stack_limit, 0x7fff0000)
                [!provide]                        PROVIDE (__alt_interrupt_stack_pointer, 0x7fff0000)
                [!provide]                        PROVIDE (__alt_interrupt_stack_limit, 0x7ffe0000)
                0x00000000080a35f0                PROVIDE (__alt_heap_start, end)
                0x000000007ffe0000                PROVIDE (__alt_heap_limit, 0x7ffe0000)
OUTPUT(C10GX_SoM_Rev2_Demo.elf elf32-littlenios2)

.debug_ranges   0x0000000000000000     0x2160
 .debug_ranges  0x0000000000000000       0x20 C:/Git/ArrowESC/Cyclone10GX_Rev2_Demo/software/C10GX_SoM_Rev2_Demo_bsp//obj/HAL/src/crt0.o
 .debug_ranges  0x0000000000000020       0x18 c:/intelfpga_pro/18.1/nios2eds/bin/gnu/h-x86_64-mingw32/bin/../lib/gcc/nios2-elf/7.3.1\libgcc.a(_muldi3.o)
 .debug_ranges  0x0000000000000038      0x178 c:/intelfpga_pro/18.1/nios2eds/bin/gnu/h-x86_64-mingw32/bin/../lib/gcc/nios2-elf/7.3.1\libgcc.a(_udivdi3.o)
 .debug_ranges  0x00000000000001b0      0x170 c:/intelfpga_pro/18.1/nios2eds/bin/gnu/h-x86_64-mingw32/bin/../lib/gcc/nios2-elf/7.3.1\libgcc.a(_umoddi3.o)
 .debug_ranges  0x0000000000000320       0x68 c:/intelfpga_pro/18.1/nios2eds/bin/gnu/h-x86_64-mingw32/bin/../lib/gcc/nios2-elf/7.3.1\libgcc.a(lib2-divmod.o)
 .debug_ranges  0x0000000000000388      0x220 c:/intelfpga_pro/18.1/nios2eds/bin/gnu/h-x86_64-mingw32/bin/../lib/gcc/nios2-elf/7.3.1\libgcc.a(adddf3.o)
 .debug_ranges  0x00000000000005a8      0x178 c:/intelfpga_pro/18.1/nios2eds/bin/gnu/h-x86_64-mingw32/bin/../lib/gcc/nios2-elf/7.3.1\libgcc.a(divdf3.o)
 .debug_ranges  0x0000000000000720       0x70 c:/intelfpga_pro/18.1/nios2eds/bin/gnu/h-x86_64-mingw32/bin/../lib/gcc/nios2-elf/7.3.1\libgcc.a(gedf2.o)
 .debug_ranges  0x0000000000000790      0x1e8 c:/intelfpga_pro/18.1/nios2eds/bin/gnu/h-x86_64-mingw32/bin/../lib/gcc/nios2-elf/7.3.1\libgcc.a(muldf3.o)
 .debug_ranges  0x0000000000000978      0x218 c:/intelfpga_pro/18.1/nios2eds/bin/gnu/h-x86_64-mingw32/bin/../lib/gcc/nios2-elf/7.3.1\libgcc.a(subdf3.o)
 .debug_ranges  0x0000000000000b90       0x30 c:/intelfpga_pro/18.1/nios2eds/bin/gnu/h-x86_64-mingw32/bin/../lib/gcc/nios2-elf/7.3.1\libgcc.a(fixdfsi.o)
 .debug_ranges  0x0000000000000bc0       0x30 c:/intelfpga_pro/18.1/nios2eds/bin/gnu/h-x86_64-mingw32/bin/../lib/gcc/nios2-elf/7.3.1\libgcc.a(floatunsidf.o)
 .debug_ranges  0x0000000000000bf0       0x40 c:/intelfpga_pro/18.1/nios2eds/bin/gnu/h-x86_64-mingw32/bin/../lib/gcc/nios2-elf/7.3.1\libgcc.a(extendsfdf2.o)
 .debug_ranges  0x0000000000000c30       0x18 c:/intelfpga_pro/18.1/nios2eds/bin/gnu/h-x86_64-mingw32/bin/../lib/gcc/nios2-elf/7.3.1\libgcc.a(_clzsi2.o)
 .debug_ranges  0x0000000000000c48       0x10 c:/intelfpga_pro/18.1/nios2eds/bin/gnu/h-x86_64-mingw32/bin/../lib/gcc/nios2-elf/7.3.1/../../../../../H-x86_64-mingw32/nios2-elf/lib\libc.a(lib_a-calloc.o)
 .debug_ranges  0x0000000000000c58       0x48 c:/intelfpga_pro/18.1/nios2eds/bin/gnu/h-x86_64-mingw32/bin/../lib/gcc/nios2-elf/7.3.1/../../../../../H-x86_64-mingw32/nios2-elf/lib\libc.a(lib_a-callocr.o)
 .debug_ranges  0x0000000000000ca0       0x48 c:/intelfpga_pro/18.1/nios2eds/bin/gnu/h-x86_64-mingw32/bin/../lib/gcc/nios2-elf/7.3.1/../../../../../H-x86_64-mingw32/nios2-elf/lib\libc.a(lib_a-getc.o)
 .debug_ranges  0x0000000000000ce8       0x48 c:/intelfpga_pro/18.1/nios2eds/bin/gnu/h-x86_64-mingw32/bin/../lib/gcc/nios2-elf/7.3.1/../../../../../H-x86_64-mingw32/nios2-elf/lib\libc.a(lib_a-locale.o)
 .debug_ranges  0x0000000000000d30       0x18 c:/intelfpga_pro/18.1/nios2eds/bin/gnu/h-x86_64-mingw32/bin/../lib/gcc/nios2-elf/7.3.1/../../../../../H-x86_64-mingw32/nios2-elf/lib\libc.a(lib_a-malloc.o)
 .debug_ranges  0x0000000000000d48       0x50 c:/intelfpga_pro/18.1/nios2eds/bin/gnu/h-x86_64-mingw32/bin/../lib/gcc/nios2-elf/7.3.1/../../../../../H-x86_64-mingw32/nios2-elf/lib\libc.a(lib_a-mallocr.o)
 .debug_ranges  0x0000000000000d98       0x30 c:/intelfpga_pro/18.1/nios2eds/bin/gnu/h-x86_64-mingw32/bin/../lib/gcc/nios2-elf/7.3.1/../../../../../H-x86_64-mingw32/nios2-elf/lib\libc.a(lib_a-mbtowc_r.o)
 .debug_ranges  0x0000000000000dc8       0x10 c:/intelfpga_pro/18.1/nios2eds/bin/gnu/h-x86_64-mingw32/bin/../lib/gcc/nios2-elf/7.3.1/../../../../../H-x86_64-mingw32/nios2-elf/lib\libc.a(lib_a-memcpy.o)
 .debug_ranges  0x0000000000000dd8       0x10 c:/intelfpga_pro/18.1/nios2eds/bin/gnu/h-x86_64-mingw32/bin/../lib/gcc/nios2-elf/7.3.1/../../../../../H-x86_64-mingw32/nios2-elf/lib\libc.a(lib_a-memset.o)
 .debug_ranges  0x0000000000000de8       0x60 c:/intelfpga_pro/18.1/nios2eds/bin/gnu/h-x86_64-mingw32/bin/../lib/gcc/nios2-elf/7.3.1/../../../../../H-x86_64-mingw32/nios2-elf/lib\libc.a(lib_a-mktime.o)
 .debug_ranges  0x0000000000000e48       0x18 c:/intelfpga_pro/18.1/nios2eds/bin/gnu/h-x86_64-mingw32/bin/../lib/gcc/nios2-elf/7.3.1/../../../../../H-x86_64-mingw32/nios2-elf/lib\libc.a(lib_a-printf.o)
 .debug_ranges  0x0000000000000e60       0x18 c:/intelfpga_pro/18.1/nios2eds/bin/gnu/h-x86_64-mingw32/bin/../lib/gcc/nios2-elf/7.3.1/../../../../../H-x86_64-mingw32/nios2-elf/lib\libc.a(lib_a-putchar.o)
 .debug_ranges  0x0000000000000e78       0x30 c:/intelfpga_pro/18.1/nios2eds/bin/gnu/h-x86_64-mingw32/bin/../lib/gcc/nios2-elf/7.3.1/../../../../../H-x86_64-mingw32/nios2-elf/lib\libc.a(lib_a-puts.o)
 .debug_ranges  0x0000000000000ea8       0x30 c:/intelfpga_pro/18.1/nios2eds/bin/gnu/h-x86_64-mingw32/bin/../lib/gcc/nios2-elf/7.3.1/../../../../../H-x86_64-mingw32/nios2-elf/lib\libc.a(lib_a-rget.o)
 .debug_ranges  0x0000000000000ed8       0x10 c:/intelfpga_pro/18.1/nios2eds/bin/gnu/h-x86_64-mingw32/bin/../lib/gcc/nios2-elf/7.3.1/../../../../../H-x86_64-mingw32/nios2-elf/lib\libc.a(lib_a-sbrkr.o)
 .debug_ranges  0x0000000000000ee8       0x18 c:/intelfpga_pro/18.1/nios2eds/bin/gnu/h-x86_64-mingw32/bin/../lib/gcc/nios2-elf/7.3.1/../../../../../H-x86_64-mingw32/nios2-elf/lib\libc.a(lib_a-sprintf.o)
 .debug_ranges  0x0000000000000f00       0x10 c:/intelfpga_pro/18.1/nios2eds/bin/gnu/h-x86_64-mingw32/bin/../lib/gcc/nios2-elf/7.3.1/../../../../../H-x86_64-mingw32/nios2-elf/lib\libc.a(lib_a-strcmp.o)
 .debug_ranges  0x0000000000000f10       0x10 c:/intelfpga_pro/18.1/nios2eds/bin/gnu/h-x86_64-mingw32/bin/../lib/gcc/nios2-elf/7.3.1/../../../../../H-x86_64-mingw32/nios2-elf/lib\libc.a(lib_a-strcpy.o)
 .debug_ranges  0x0000000000000f20       0x10 c:/intelfpga_pro/18.1/nios2eds/bin/gnu/h-x86_64-mingw32/bin/../lib/gcc/nios2-elf/7.3.1/../../../../../H-x86_64-mingw32/nios2-elf/lib\libc.a(lib_a-strlen.o)
 .debug_ranges  0x0000000000000f30      0x180 c:/intelfpga_pro/18.1/nios2eds/bin/gnu/h-x86_64-mingw32/bin/../lib/gcc/nios2-elf/7.3.1/../../../../../H-x86_64-mingw32/nios2-elf/lib\libc.a(lib_a-svfprintf.o)
 .debug_ranges  0x00000000000010b0       0x40 c:/intelfpga_pro/18.1/nios2eds/bin/gnu/h-x86_64-mingw32/bin/../lib/gcc/nios2-elf/7.3.1/../../../../../H-x86_64-mingw32/nios2-elf/lib\libc.a(lib_a-tzcalc_limits.o)
 .debug_ranges  0x00000000000010f0       0x10 c:/intelfpga_pro/18.1/nios2eds/bin/gnu/h-x86_64-mingw32/bin/../lib/gcc/nios2-elf/7.3.1/../../../../../H-x86_64-mingw32/nios2-elf/lib\libc.a(lib_a-tzlock.o)
 .debug_ranges  0x0000000000001100       0x18 c:/intelfpga_pro/18.1/nios2eds/bin/gnu/h-x86_64-mingw32/bin/../lib/gcc/nios2-elf/7.3.1/../../../../../H-x86_64-mingw32/nios2-elf/lib\libc.a(lib_a-tzset.o)
 .debug_ranges  0x0000000000001118       0x38 c:/intelfpga_pro/18.1/nios2eds/bin/gnu/h-x86_64-mingw32/bin/../lib/gcc/nios2-elf/7.3.1/../../../../../H-x86_64-mingw32/nios2-elf/lib\libc.a(lib_a-tzset_r.o)
 .debug_ranges  0x0000000000001150      0x190 c:/intelfpga_pro/18.1/nios2eds/bin/gnu/h-x86_64-mingw32/bin/../lib/gcc/nios2-elf/7.3.1/../../../../../H-x86_64-mingw32/nios2-elf/lib\libc.a(lib_a-vfprintf.o)
 .debug_ranges  0x00000000000012e0       0x18 c:/intelfpga_pro/18.1/nios2eds/bin/gnu/h-x86_64-mingw32/bin/../lib/gcc/nios2-elf/7.3.1/../../../../../H-x86_64-mingw32/nios2-elf/lib\libc.a(lib_a-wctomb_r.o)
 .debug_ranges  0x00000000000012f8       0x30 c:/intelfpga_pro/18.1/nios2eds/bin/gnu/h-x86_64-mingw32/bin/../lib/gcc/nios2-elf/7.3.1/../../../../../H-x86_64-mingw32/nios2-elf/lib\libc.a(lib_a-wsetup.o)
 .debug_ranges  0x0000000000001328       0x10 c:/intelfpga_pro/18.1/nios2eds/bin/gnu/h-x86_64-mingw32/bin/../lib/gcc/nios2-elf/7.3.1/../../../../../H-x86_64-mingw32/nios2-elf/lib\libc.a(lib_a-div.o)
 .debug_ranges  0x0000000000001338       0x18 c:/intelfpga_pro/18.1/nios2eds/bin/gnu/h-x86_64-mingw32/bin/../lib/gcc/nios2-elf/7.3.1/../../../../../H-x86_64-mingw32/nios2-elf/lib\libc.a(lib_a-dtoa.o)
 .debug_ranges  0x0000000000001350       0x50 c:/intelfpga_pro/18.1/nios2eds/bin/gnu/h-x86_64-mingw32/bin/../lib/gcc/nios2-elf/7.3.1/../../../../../H-x86_64-mingw32/nios2-elf/lib\libc.a(lib_a-fflush.o)
 .debug_ranges  0x00000000000013a0       0xd8 c:/intelfpga_pro/18.1/nios2eds/bin/gnu/h-x86_64-mingw32/bin/../lib/gcc/nios2-elf/7.3.1/../../../../../H-x86_64-mingw32/nios2-elf/lib\libc.a(lib_a-findfp.o)
 .debug_ranges  0x0000000000001478       0x18 c:/intelfpga_pro/18.1/nios2eds/bin/gnu/h-x86_64-mingw32/bin/../lib/gcc/nios2-elf/7.3.1/../../../../../H-x86_64-mingw32/nios2-elf/lib\libc.a(lib_a-freer.o)
 .debug_ranges  0x0000000000001490       0x30 c:/intelfpga_pro/18.1/nios2eds/bin/gnu/h-x86_64-mingw32/bin/../lib/gcc/nios2-elf/7.3.1/../../../../../H-x86_64-mingw32/nios2-elf/lib\libc.a(lib_a-fvwrite.o)
 .debug_ranges  0x00000000000014c0       0x18 c:/intelfpga_pro/18.1/nios2eds/bin/gnu/h-x86_64-mingw32/bin/../lib/gcc/nios2-elf/7.3.1/../../../../../H-x86_64-mingw32/nios2-elf/lib\libc.a(lib_a-fwalk.o)
 .debug_ranges  0x00000000000014d8       0x18 c:/intelfpga_pro/18.1/nios2eds/bin/gnu/h-x86_64-mingw32/bin/../lib/gcc/nios2-elf/7.3.1/../../../../../H-x86_64-mingw32/nios2-elf/lib\libc.a(lib_a-getenv_r.o)
 .debug_ranges  0x00000000000014f0       0x10 c:/intelfpga_pro/18.1/nios2eds/bin/gnu/h-x86_64-mingw32/bin/../lib/gcc/nios2-elf/7.3.1/../../../../../H-x86_64-mingw32/nios2-elf/lib\libc.a(lib_a-gettzinfo.o)
 .debug_ranges  0x0000000000001500       0x20 c:/intelfpga_pro/18.1/nios2eds/bin/gnu/h-x86_64-mingw32/bin/../lib/gcc/nios2-elf/7.3.1/../../../../../H-x86_64-mingw32/nios2-elf/lib\libc.a(lib_a-localeconv.o)
 .debug_ranges  0x0000000000001520       0x18 c:/intelfpga_pro/18.1/nios2eds/bin/gnu/h-x86_64-mingw32/bin/../lib/gcc/nios2-elf/7.3.1/../../../../../H-x86_64-mingw32/nios2-elf/lib\libc.a(lib_a-makebuf.o)
 .debug_ranges  0x0000000000001538       0x10 c:/intelfpga_pro/18.1/nios2eds/bin/gnu/h-x86_64-mingw32/bin/../lib/gcc/nios2-elf/7.3.1/../../../../../H-x86_64-mingw32/nios2-elf/lib\libc.a(lib_a-memchr.o)
 .debug_ranges  0x0000000000001548       0x10 c:/intelfpga_pro/18.1/nios2eds/bin/gnu/h-x86_64-mingw32/bin/../lib/gcc/nios2-elf/7.3.1/../../../../../H-x86_64-mingw32/nios2-elf/lib\libc.a(lib_a-memmove.o)
 .debug_ranges  0x0000000000001558       0xc0 c:/intelfpga_pro/18.1/nios2eds/bin/gnu/h-x86_64-mingw32/bin/../lib/gcc/nios2-elf/7.3.1/../../../../../H-x86_64-mingw32/nios2-elf/lib\libc.a(lib_a-mprec.o)
 .debug_ranges  0x0000000000001618       0x48 c:/intelfpga_pro/18.1/nios2eds/bin/gnu/h-x86_64-mingw32/bin/../lib/gcc/nios2-elf/7.3.1/../../../../../H-x86_64-mingw32/nios2-elf/lib\libc.a(lib_a-putc.o)
 .debug_ranges  0x0000000000001660      0x140 c:/intelfpga_pro/18.1/nios2eds/bin/gnu/h-x86_64-mingw32/bin/../lib/gcc/nios2-elf/7.3.1/../../../../../H-x86_64-mingw32/nios2-elf/lib\libc.a(lib_a-reallocr.o)
 .debug_ranges  0x00000000000017a0       0x30 c:/intelfpga_pro/18.1/nios2eds/bin/gnu/h-x86_64-mingw32/bin/../lib/gcc/nios2-elf/7.3.1/../../../../../H-x86_64-mingw32/nios2-elf/lib\libc.a(lib_a-refill.o)
 .debug_ranges  0x00000000000017d0       0x18 c:/intelfpga_pro/18.1/nios2eds/bin/gnu/h-x86_64-mingw32/bin/../lib/gcc/nios2-elf/7.3.1/../../../../../H-x86_64-mingw32/nios2-elf/lib\libc.a(lib_a-siscanf.o)
 .debug_ranges  0x00000000000017e8       0x30 c:/intelfpga_pro/18.1/nios2eds/bin/gnu/h-x86_64-mingw32/bin/../lib/gcc/nios2-elf/7.3.1/../../../../../H-x86_64-mingw32/nios2-elf/lib\libc.a(lib_a-stdio.o)
 .debug_ranges  0x0000000000001818       0x10 c:/intelfpga_pro/18.1/nios2eds/bin/gnu/h-x86_64-mingw32/bin/../lib/gcc/nios2-elf/7.3.1/../../../../../H-x86_64-mingw32/nios2-elf/lib\libc.a(lib_a-strncmp.o)
 .debug_ranges  0x0000000000001828       0x40 c:/intelfpga_pro/18.1/nios2eds/bin/gnu/h-x86_64-mingw32/bin/../lib/gcc/nios2-elf/7.3.1/../../../../../H-x86_64-mingw32/nios2-elf/lib\libc.a(lib_a-strtoul.o)
 .debug_ranges  0x0000000000001868       0x68 c:/intelfpga_pro/18.1/nios2eds/bin/gnu/h-x86_64-mingw32/bin/../lib/gcc/nios2-elf/7.3.1/../../../../../H-x86_64-mingw32/nios2-elf/lib\libc.a(lib_a-svfiprintf.o)
 .debug_ranges  0x00000000000018d0      0x110 c:/intelfpga_pro/18.1/nios2eds/bin/gnu/h-x86_64-mingw32/bin/../lib/gcc/nios2-elf/7.3.1/../../../../../H-x86_64-mingw32/nios2-elf/lib\libc.a(lib_a-svfiscanf.o)
 .debug_ranges  0x00000000000019e0       0x38 c:/intelfpga_pro/18.1/nios2eds/bin/gnu/h-x86_64-mingw32/bin/../lib/gcc/nios2-elf/7.3.1/../../../../../H-x86_64-mingw32/nios2-elf/lib\libc.a(lib_a-ungetc.o)
 .debug_ranges  0x0000000000001a18      0x1d8 c:/intelfpga_pro/18.1/nios2eds/bin/gnu/h-x86_64-mingw32/bin/../lib/gcc/nios2-elf/7.3.1/../../../../../H-x86_64-mingw32/nios2-elf/lib\libc.a(lib_a-vfiprintf.o)
 .debug_ranges  0x0000000000001bf0       0x30 c:/intelfpga_pro/18.1/nios2eds/bin/gnu/h-x86_64-mingw32/bin/../lib/gcc/nios2-elf/7.3.1/../../../../../H-x86_64-mingw32/nios2-elf/lib\libc.a(lib_a-wbuf.o)
 .debug_ranges  0x0000000000001c20       0x10 c:/intelfpga_pro/18.1/nios2eds/bin/gnu/h-x86_64-mingw32/bin/../lib/gcc/nios2-elf/7.3.1/../../../../../H-x86_64-mingw32/nios2-elf/lib\libc.a(lib_a-writer.o)
 .debug_ranges  0x0000000000001c30       0x10 c:/intelfpga_pro/18.1/nios2eds/bin/gnu/h-x86_64-mingw32/bin/../lib/gcc/nios2-elf/7.3.1/../../../../../H-x86_64-mingw32/nios2-elf/lib\libc.a(closer.o)
 .debug_ranges  0x0000000000001c40       0x48 c:/intelfpga_pro/18.1/nios2eds/bin/gnu/h-x86_64-mingw32/bin/../lib/gcc/nios2-elf/7.3.1/../../../../../H-x86_64-mingw32/nios2-elf/lib\libc.a(lib_a-fclose.o)
 .debug_ranges  0x0000000000001c88       0x50 c:/intelfpga_pro/18.1/nios2eds/bin/gnu/h-x86_64-mingw32/bin/../lib/gcc/nios2-elf/7.3.1/../../../../../H-x86_64-mingw32/nios2-elf/lib\libc.a(lib_a-fputwc.o)
 .debug_ranges  0x0000000000001cd8       0x10 c:/intelfpga_pro/18.1/nios2eds/bin/gnu/h-x86_64-mingw32/bin/../lib/gcc/nios2-elf/7.3.1/../../../../../H-x86_64-mingw32/nios2-elf/lib\libc.a(lib_a-fstatr.o)
 .debug_ranges  0x0000000000001ce8       0x10 c:/intelfpga_pro/18.1/nios2eds/bin/gnu/h-x86_64-mingw32/bin/../lib/gcc/nios2-elf/7.3.1/../../../../../H-x86_64-mingw32/nios2-elf/lib\libc.a(lib_a-isattyr.o)
 .debug_ranges  0x0000000000001cf8       0x10 c:/intelfpga_pro/18.1/nios2eds/bin/gnu/h-x86_64-mingw32/bin/../lib/gcc/nios2-elf/7.3.1/../../../../../H-x86_64-mingw32/nios2-elf/lib\libc.a(lib_a-iswspace.o)
 .debug_ranges  0x0000000000001d08       0x10 c:/intelfpga_pro/18.1/nios2eds/bin/gnu/h-x86_64-mingw32/bin/../lib/gcc/nios2-elf/7.3.1/../../../../../H-x86_64-mingw32/nios2-elf/lib\libc.a(lib_a-lseekr.o)
 .debug_ranges  0x0000000000001d18       0x78 c:/intelfpga_pro/18.1/nios2eds/bin/gnu/h-x86_64-mingw32/bin/../lib/gcc/nios2-elf/7.3.1/../../../../../H-x86_64-mingw32/nios2-elf/lib\libc.a(lib_a-mbrtowc.o)
 .debug_ranges  0x0000000000001d90       0x10 c:/intelfpga_pro/18.1/nios2eds/bin/gnu/h-x86_64-mingw32/bin/../lib/gcc/nios2-elf/7.3.1/../../../../../H-x86_64-mingw32/nios2-elf/lib\libc.a(lib_a-readr.o)
 .debug_ranges  0x0000000000001da0       0x10 c:/intelfpga_pro/18.1/nios2eds/bin/gnu/h-x86_64-mingw32/bin/../lib/gcc/nios2-elf/7.3.1/../../../../../H-x86_64-mingw32/nios2-elf/lib\libc.a(lib_a-sccl.o)
 .debug_ranges  0x0000000000001db0       0x40 c:/intelfpga_pro/18.1/nios2eds/bin/gnu/h-x86_64-mingw32/bin/../lib/gcc/nios2-elf/7.3.1/../../../../../H-x86_64-mingw32/nios2-elf/lib\libc.a(lib_a-strtol.o)
 .debug_ranges  0x0000000000001df0       0x40 c:/intelfpga_pro/18.1/nios2eds/bin/gnu/h-x86_64-mingw32/bin/../lib/gcc/nios2-elf/7.3.1/../../../../../H-x86_64-mingw32/nios2-elf/lib\libc.a(lib_a-strtoll.o)
 .debug_ranges  0x0000000000001e30       0x40 c:/intelfpga_pro/18.1/nios2eds/bin/gnu/h-x86_64-mingw32/bin/../lib/gcc/nios2-elf/7.3.1/../../../../../H-x86_64-mingw32/nios2-elf/lib\libc.a(lib_a-strtoull.o)
 .debug_ranges  0x0000000000001e70       0x78 c:/intelfpga_pro/18.1/nios2eds/bin/gnu/h-x86_64-mingw32/bin/../lib/gcc/nios2-elf/7.3.1/../../../../../H-x86_64-mingw32/nios2-elf/lib\libc.a(lib_a-wcrtomb.o)
 .debug_ranges  0x0000000000001ee8       0x48 c:/intelfpga_pro/18.1/nios2eds/bin/gnu/h-x86_64-mingw32/bin/../lib/gcc/nios2-elf/7.3.1\libgcc.a(eqdf2.o)
 .debug_ranges  0x0000000000001f30       0x70 c:/intelfpga_pro/18.1/nios2eds/bin/gnu/h-x86_64-mingw32/bin/../lib/gcc/nios2-elf/7.3.1\libgcc.a(ledf2.o)
 .debug_ranges  0x0000000000001fa0       0x40 c:/intelfpga_pro/18.1/nios2eds/bin/gnu/h-x86_64-mingw32/bin/../lib/gcc/nios2-elf/7.3.1\libgcc.a(unorddf2.o)
 .debug_ranges  0x0000000000001fe0       0x38 c:/intelfpga_pro/18.1/nios2eds/bin/gnu/h-x86_64-mingw32/bin/../lib/gcc/nios2-elf/7.3.1\libgcc.a(floatsidf.o)
 .debug_ranges  0x0000000000002018       0x28 C:/Git/ArrowESC/Cyclone10GX_Rev2_Demo/software/C10GX_SoM_Rev2_Demo_bsp/\libhal_bsp.a(alt_irq_entry.o)
 .debug_ranges  0x0000000000002040       0x10 C:/Git/ArrowESC/Cyclone10GX_Rev2_Demo/software/C10GX_SoM_Rev2_Demo_bsp/\libhal_bsp.a(alt_irq_handler.o)
 .debug_ranges  0x0000000000002050       0x30 C:/Git/ArrowESC/Cyclone10GX_Rev2_Demo/software/C10GX_SoM_Rev2_Demo_bsp/\libhal_bsp.a(altera_avalon_jtag_uart_init.o)
 .debug_ranges  0x0000000000002080       0x18 C:/Git/ArrowESC/Cyclone10GX_Rev2_Demo/software/C10GX_SoM_Rev2_Demo_bsp/\libhal_bsp.a(altera_avalon_jtag_uart_read.o)
 .debug_ranges  0x0000000000002098       0x18 C:/Git/ArrowESC/Cyclone10GX_Rev2_Demo/software/C10GX_SoM_Rev2_Demo_bsp/\libhal_bsp.a(altera_generic_quad_spi_controller2.o)
 .debug_ranges  0x00000000000020b0       0x30 C:/Git/ArrowESC/Cyclone10GX_Rev2_Demo/software/C10GX_SoM_Rev2_Demo_bsp/\libhal_bsp.a(alt_exception_entry.o)
 .debug_ranges  0x00000000000020e0       0x18 C:/Git/ArrowESC/Cyclone10GX_Rev2_Demo/software/C10GX_SoM_Rev2_Demo_bsp/\libhal_bsp.a(alt_instruction_exception_entry.o)
 .debug_ranges  0x00000000000020f8       0x10 c:/intelfpga_pro/18.1/nios2eds/bin/gnu/h-x86_64-mingw32/bin/../lib/gcc/nios2-elf/7.3.1/../../../../../H-x86_64-mingw32/nios2-elf/lib\libc.a(lib_a-atexit.o)
 .debug_ranges  0x0000000000002108       0x10 c:/intelfpga_pro/18.1/nios2eds/bin/gnu/h-x86_64-mingw32/bin/../lib/gcc/nios2-elf/7.3.1/../../../../../H-x86_64-mingw32/nios2-elf/lib\libc.a(lib_a-exit.o)
 .debug_ranges  0x0000000000002118       0x10 c:/intelfpga_pro/18.1/nios2eds/bin/gnu/h-x86_64-mingw32/bin/../lib/gcc/nios2-elf/7.3.1/../../../../../H-x86_64-mingw32/nios2-elf/lib\libc.a(lib_a-__atexit.o)
 .debug_ranges  0x0000000000002128       0x38 c:/intelfpga_pro/18.1/nios2eds/bin/gnu/h-x86_64-mingw32/bin/../lib/gcc/nios2-elf/7.3.1/../../../../../H-x86_64-mingw32/nios2-elf/lib\libc.a(lib_a-__call_atexit.o)
