
C10GX_SoM_Rev2_Demo.elf:     file format elf32-littlenios2
C10GX_SoM_Rev2_Demo.elf
architecture: nios2:r1, flags 0x00000112:
EXEC_P, HAS_SYMS, D_PAGED
start address 0x00000244

Program Header:
    LOAD off    0x00001000 vaddr 0x00000000 paddr 0x00000000 align 2**12
         filesz 0x00000020 memsz 0x00000020 flags r-x
    LOAD off    0x00001020 vaddr 0x00000020 paddr 0x00000020 align 2**12
         filesz 0x00035b90 memsz 0x00035b90 flags r-x
    LOAD off    0x00036bb0 vaddr 0x00035bb0 paddr 0x000379f0 align 2**12
         filesz 0x00001e40 memsz 0x00001e40 flags rw-
    LOAD off    0x00039830 vaddr 0x00039830 paddr 0x00039830 align 2**12
         filesz 0x00000000 memsz 0x08069dc0 flags rw-

Sections:
Idx Name          Size      VMA       LMA       File off  Algn
  0 .entry        00000020  00000000  00000000  00001000  2**5
                  CONTENTS, ALLOC, LOAD, READONLY, CODE
  1 .exceptions   00000224  00000020  00000020  00001020  2**2
                  CONTENTS, ALLOC, LOAD, READONLY, CODE
  2 .text         00031448  00000244  00000244  00001244  2**2
                  CONTENTS, ALLOC, LOAD, READONLY, CODE
  3 .rodata       00004524  0003168c  0003168c  0003268c  2**2
                  CONTENTS, ALLOC, LOAD, READONLY, DATA
  4 .rwdata       00001e40  00035bb0  000379f0  00036bb0  2**2
                  CONTENTS, ALLOC, LOAD, DATA, SMALL_DATA
  5 .bss          08069e41  00039830  00039830  00039830  2**2
                  ALLOC, SMALL_DATA
  6 .ddr3_ctrl_amm_0 00000000  080a35f0  080a35f0  000389f0  2**0
                  CONTENTS
  7 .qspi_controller2_0_avl_mem 00000000  80000000  80000000  000389f0  2**0
                  CONTENTS
  8 .mcu_subsystem_ram_0 00000000  88020000  88020000  000389f0  2**0
                  CONTENTS
  9 .comment      0000002c  00000000  00000000  000389f0  2**0
                  CONTENTS, READONLY
 10 .debug_aranges 00001938  00000000  00000000  00038a20  2**3
                  CONTENTS, READONLY, DEBUGGING
 11 .debug_info   0007dcd2  00000000  00000000  0003a358  2**0
                  CONTENTS, READONLY, DEBUGGING
 12 .debug_abbrev 00017419  00000000  00000000  000b802a  2**0
                  CONTENTS, READONLY, DEBUGGING
 13 .debug_line   0001cc3a  00000000  00000000  000cf443  2**0
                  CONTENTS, READONLY, DEBUGGING
 14 .debug_frame  00006334  00000000  00000000  000ec080  2**2
                  CONTENTS, READONLY, DEBUGGING
 15 .debug_str    0000a9c2  00000000  00000000  000f23b4  2**0
                  CONTENTS, READONLY, DEBUGGING
 16 .debug_loc    00020668  00000000  00000000  000fcd76  2**0
                  CONTENTS, READONLY, DEBUGGING
 17 .debug_alt_sim_info 00000060  00000000  00000000  0011d3e0  2**2
                  CONTENTS, READONLY, DEBUGGING
 18 .debug_ranges 00002160  00000000  00000000  0011d440  2**3
                  CONTENTS, READONLY, DEBUGGING
 19 .thread_model 00000003  00000000  00000000  001271b1  2**0
                  CONTENTS, READONLY
 20 .cpu          00000013  00000000  00000000  001271b4  2**0
                  CONTENTS, READONLY
 21 .qsys         00000001  00000000  00000000  001271c7  2**0
                  CONTENTS, READONLY
 22 .simulation_enabled 00000001  00000000  00000000  001271c8  2**0
                  CONTENTS, READONLY
 23 .stderr_dev   0000000b  00000000  00000000  001271c9  2**0
                  CONTENTS, READONLY
 24 .stdin_dev    0000000b  00000000  00000000  001271d4  2**0
                  CONTENTS, READONLY
 25 .stdout_dev   0000000b  00000000  00000000  001271df  2**0
                  CONTENTS, READONLY
 26 .sopc_system_name 0000000d  00000000  00000000  001271ea  2**0
                  CONTENTS, READONLY
 27 .quartus_project_dir 00000033  00000000  00000000  001271f7  2**0
                  CONTENTS, READONLY
 28 .sopcinfo     003346ff  00000000  00000000  0012722a  2**0
                  CONTENTS, READONLY
SYMBOL TABLE:
00000000 l    d  .entry	00000000 .entry
00000020 l    d  .exceptions	00000000 .exceptions
00000244 l    d  .text	00000000 .text
0003168c l    d  .rodata	00000000 .rodata
00035bb0 l    d  .rwdata	00000000 .rwdata
00039830 l    d  .bss	00000000 .bss
080a35f0 l    d  .ddr3_ctrl_amm_0	00000000 .ddr3_ctrl_amm_0
80000000 l    d  .qspi_controller2_0_avl_mem	00000000 .qspi_controller2_0_avl_mem
88020000 l    d  .mcu_subsystem_ram_0	00000000 .mcu_subsystem_ram_0
00000000 l    d  .comment	00000000 .comment
00000000 l    d  .debug_aranges	00000000 .debug_aranges
00000000 l    d  .debug_info	00000000 .debug_info
00000000 l    d  .debug_abbrev	00000000 .debug_abbrev
00000000 l    d  .debug_line	00000000 .debug_line
00000000 l    d  .debug_frame	00000000 .debug_frame
00000000 l    d  .debug_str	00000000 .debug_str
00000000 l    d  .debug_loc	00000000 .debug_loc
00000000 l    d  .debug_alt_sim_info	00000000 .debug_alt_sim_info
00000000 l    d  .debug_ranges	00000000 .debug_ranges
00000000 l    df *ABS*	00000000 C:/Git/ArrowESC/Cyclone10GX_Rev2_Demo/software/C10GX_SoM_Rev2_Demo_bsp//obj/HAL/src/crt0.o
0000028c l       .text	00000000 alt_after_alt_main
00000000 l    df *ABS*	00000000 alt_irq_handler.c
00000000 l    df *ABS*	00000000 alt_instruction_exception_entry.c
00000000 l    df *ABS*	00000000 crc.c
00000000 l    df *ABS*	00000000 ethernet.c
00039880 l     O .bss	00066838 network_ctx
000005b4 l     F .text	000000cc link_status_read
00000b10 l     F .text	000000dc mac_compare
00001270 l     F .text	000005b4 arp_process_rx
00001d70 l     F .text	00000438 ip_process_rx
00000de8 l     F .text	000002c4 tx_send
000011ec l     F .text	00000084 arp_packet_check
00002c74 l     F .text	00000200 arp_register
000018f0 l     F .text	000000c8 checksum16
000019b8 l     F .text	00000298 icmp_process
00001c50 l     F .text	00000120 udp_process_rx
00002bf0 l     F .text	00000084 mac_addr_compare
00002ebc l     F .text	0000011c get_arp
00000000 l    df *ABS*	00000000 ad9144.c
0003172c l     O .rodata	00000032 ad9144_jesd204_link_modes
0003175e l     O .rodata	00000014 ad9144_required_device_config
00031772 l     O .rodata	0000003c ad9144_optimal_serdes_settings
000317ae l     O .rodata	00000034 ad9144_pll_fixed_writes
000047f0 l     F .text	000002b0 ad9144_pll_setup
000319c8 l     O .rodata	00000011 __func__.3523
000319dc l     O .rodata	0000000d __func__.3535
000319ec l     O .rodata	00000015 __func__.3547
00031a04 l     O .rodata	0000000e __func__.3561
00031a14 l     O .rodata	0000001a __func__.3570
00031a30 l     O .rodata	0000001a __func__.3583
00000000 l    df *ABS*	00000000 ad9523.c
00000000 l    df *ABS*	00000000 ad9680.c
00000000 l    df *ABS*	00000000 adc_core.c
00031c4c l     O .rodata	0000000a __func__.3465
00031c58 l     O .rodata	00000014 __func__.3498
00031c6c l     O .rodata	0000000e __func__.3548
00000000 l    df *ABS*	00000000 Communication.c
00000000 l    df *ABS*	00000000 dac_buffer.c
00031c7c l     O .rodata	00000800 sine_lut
00000000 l    df *ABS*	00000000 dac_core.c
00032504 l     O .rodata	0000000e __func__.3491
00032514 l     O .rodata	0000000a __func__.3508
00000000 l    df *ABS*	00000000 dmac_core.c
00032540 l     O .rodata	00000017 __func__.3438
00000000 l    df *ABS*	00000000 fru_tools.c
00032b30 l     O .rodata	0000000a __func__.3336
0000a998 l     F .text	00000268 insert_str
00000000 l    df *ABS*	00000000 jesd_core.c
00035bb0 l     O .rwdata	00000010 axi_jesd204_rx_link_status_label
00035bc0 l     O .rwdata	00000010 axi_jesd204_tx_link_status_label
00035bd0 l     O .rwdata	00000010 axi_jesd204_rx_lane_status_label
00032e1c l     O .rodata	0000000c __func__.3471
00000000 l    df *ABS*	00000000 platform_drivers.c
00000000 l    df *ABS*	00000000 xcvr_core.c
00033078 l     O .rodata	0000000b __func__.3550
00000000 l    df *ABS*	00000000 altera_a10_atx_pll.c
00000000 l    df *ABS*	00000000 altera_a10_fpll.c
00000000 l    df *ABS*	00000000 altera_a10_xcvr_channel.c
00000000 l    df *ABS*	00000000 altera_pll_common.c
000331c8 l     O .rodata	0000001f __func__.3468
000331e8 l     O .rodata	00000016 __func__.3489
00033200 l     O .rodata	0000000f __func__.3500
00033210 l     O .rodata	0000000b __func__.3511
0003321c l     O .rodata	0000000c __func__.3521
00000000 l    df *ABS*	00000000 xilinx_qpll.c
00000000 l    df *ABS*	00000000 xilinx_xcvr_channel.c
00000000 l    df *ABS*	00000000 iioscope.c
000a00b8 l     O .bss	0000001c app_ctx
000a00d4 l     O .bss	00001388 iio_buffer_tx
000a145c l     O .bss	00001388 iio_buffer_rx
00000000 l    df *ABS*	00000000 jesd204b.c
000a27e4 l     O .bss	080003ec fmcdaq2_ctx
00033568 l     O .rodata	0000000a __func__.3946
00011acc l     F .text	00000044 axi_jesd204_tx_irq
00011b10 l     F .text	00000044 axi_jesd204_rx_irq
00000000 l    df *ABS*	00000000 main.c
00000000 l    df *ABS*	00000000 support.c
00000000 l    df *ABS*	00000000 libgcc2.c
00000000 l    df *ABS*	00000000 libgcc2.c
00000000 l    df *ABS*	00000000 libgcc2.c
00000000 l    df *ABS*	00000000 libgcc2.c
00000000 l    df *ABS*	00000000 libgcc2.c
00000000 l    df *ABS*	00000000 libgcc2.c
00000000 l    df *ABS*	00000000 lib2-divmod.c
00000000 l    df *ABS*	00000000 adddf3.c
00000000 l    df *ABS*	00000000 divdf3.c
00000000 l    df *ABS*	00000000 gedf2.c
00000000 l    df *ABS*	00000000 muldf3.c
00000000 l    df *ABS*	00000000 subdf3.c
00000000 l    df *ABS*	00000000 fixdfsi.c
00000000 l    df *ABS*	00000000 floatunsidf.c
00000000 l    df *ABS*	00000000 extendsfdf2.c
00000000 l    df *ABS*	00000000 libgcc2.c
00000000 l    df *ABS*	00000000 libgcc2.c
00000000 l    df *ABS*	00000000 calloc.c
00000000 l    df *ABS*	00000000 mallocr.c
00000000 l    df *ABS*	00000000 getc.c
00000000 l    df *ABS*	00000000 impure.c
00035be0 l     O .rwdata	00000424 impure_data
00000000 l    df *ABS*	00000000 locale.c
00000000 l    df *ABS*	00000000 malloc.c
00000000 l    df *ABS*	00000000 mallocr.c
00000000 l    df *ABS*	00000000 mbtowc_r.c
00000000 l    df *ABS*	00000000 memcpy.c
00000000 l    df *ABS*	00000000 memset.c
00000000 l    df *ABS*	00000000 mktime.c
00015cac l     F .text	000002b0 validate_structure
000336ec l     O .rodata	00000030 DAYS_IN_MONTH
000336bc l     O .rodata	00000030 _DAYS_BEFORE_MONTH
00000000 l    df *ABS*	00000000 printf.c
00000000 l    df *ABS*	00000000 putchar.c
00000000 l    df *ABS*	00000000 puts.c
00000000 l    df *ABS*	00000000 rget.c
00000000 l    df *ABS*	00000000 sbrkr.c
00000000 l    df *ABS*	00000000 sprintf.c
00000000 l    df *ABS*	00000000 strcmp.c
00000000 l    df *ABS*	00000000 strcpy.c
00000000 l    df *ABS*	00000000 strlen.c
00000000 l    df *ABS*	00000000 vfprintf.c
00033772 l     O .rodata	00000010 blanks.4636
00033762 l     O .rodata	00000010 zeroes.4637
00000000 l    df *ABS*	00000000 tzcalc_limits.c
00000000 l    df *ABS*	00000000 tzlock.c
00000000 l    df *ABS*	00000000 tzset.c
00000000 l    df *ABS*	00000000 tzset_r.c
00039840 l     O .bss	00000004 prev_tzenv
080a2c03 l     O .bss	0000000b __tzname_std
080a2bf8 l     O .bss	0000000b __tzname_dst
00000000 l    df *ABS*	00000000 tzvars.c
00000000 l    df *ABS*	00000000 vfprintf.c
0001aee8 l     F .text	000000c0 __sbprintf
000337e7 l     O .rodata	00000010 blanks.4651
000337d7 l     O .rodata	00000010 zeroes.4652
00000000 l    df *ABS*	00000000 wctomb_r.c
00000000 l    df *ABS*	00000000 wsetup.c
00000000 l    df *ABS*	00000000 ctype_.c
00000000 l    df *ABS*	00000000 div.c
00000000 l    df *ABS*	00000000 dtoa.c
0001b1c4 l     F .text	000001f8 quorem
00000000 l    df *ABS*	00000000 fflush.c
00000000 l    df *ABS*	00000000 findfp.c
0001cd0c l     F .text	00000008 __fp_lock
0001cd20 l     F .text	00000184 __sinit.part.0
0001cea4 l     F .text	00000008 __fp_unlock
00000000 l    df *ABS*	00000000 mallocr.c
00000000 l    df *ABS*	00000000 fvwrite.c
00000000 l    df *ABS*	00000000 fwalk.c
00000000 l    df *ABS*	00000000 getenv_r.c
00000000 l    df *ABS*	00000000 gettzinfo.c
00036578 l     O .rwdata	00000040 tzinfo
00000000 l    df *ABS*	00000000 int_errno.c
00000000 l    df *ABS*	00000000 localeconv.c
00000000 l    df *ABS*	00000000 makebuf.c
00000000 l    df *ABS*	00000000 memchr.c
00000000 l    df *ABS*	00000000 memmove.c
00000000 l    df *ABS*	00000000 month_lengths.c
00000000 l    df *ABS*	00000000 mprec.c
00033ae8 l     O .rodata	0000000c p05.3456
00000000 l    df *ABS*	00000000 putc.c
00000000 l    df *ABS*	00000000 mallocr.c
00000000 l    df *ABS*	00000000 refill.c
0001f634 l     F .text	0000001c lflush
00000000 l    df *ABS*	00000000 siscanf.c
00000000 l    df *ABS*	00000000 stdio.c
00000000 l    df *ABS*	00000000 strncmp.c
00000000 l    df *ABS*	00000000 strtoul.c
0001fb08 l     F .text	00000254 _strtoul_l.isra.0
00000000 l    df *ABS*	00000000 vfprintf.c
00033c1c l     O .rodata	00000010 blanks.4616
00033c0c l     O .rodata	00000010 zeroes.4617
00000000 l    df *ABS*	00000000 vfscanf.c
00033c2c l     O .rodata	00000022 basefix.4209
00000000 l    df *ABS*	00000000 ungetc.c
00000000 l    df *ABS*	00000000 vfprintf.c
000223ec l     F .text	000000f4 __sprint_r.part.0
00033c5e l     O .rodata	00000010 blanks.4632
00033c4e l     O .rodata	00000010 zeroes.4633
00023730 l     F .text	000000c0 __sbprintf
00000000 l    df *ABS*	00000000 wbuf.c
00000000 l    df *ABS*	00000000 writer.c
00000000 l    df *ABS*	00000000 closer.c
00000000 l    df *ABS*	00000000 environ.c
00039850 l     O .bss	00000004 initial_env
00000000 l    df *ABS*	00000000 fclose.c
00000000 l    df *ABS*	00000000 fputwc.c
00000000 l    df *ABS*	00000000 fstatr.c
00000000 l    df *ABS*	00000000 isattyr.c
00000000 l    df *ABS*	00000000 iswspace.c
00000000 l    df *ABS*	00000000 lseekr.c
00000000 l    df *ABS*	00000000 mbrtowc.c
00000000 l    df *ABS*	00000000 readr.c
00000000 l    df *ABS*	00000000 sccl.c
00000000 l    df *ABS*	00000000 strtol.c
00024104 l     F .text	00000230 _strtol_l.isra.0
00000000 l    df *ABS*	00000000 strtoll.c
000243dc l     F .text	000002f4 _strtoll_l.isra.0
00000000 l    df *ABS*	00000000 strtoull.c
00024778 l     F .text	00000324 _strtoull_l.isra.0
00000000 l    df *ABS*	00000000 wcrtomb.c
00000000 l    df *ABS*	00000000 eqdf2.c
00000000 l    df *ABS*	00000000 ledf2.c
00000000 l    df *ABS*	00000000 unorddf2.c
00000000 l    df *ABS*	00000000 floatsidf.c
00000000 l    df *ABS*	00000000 alt_close.c
00024f14 l     F .text	0000003c alt_get_errno
00000000 l    df *ABS*	00000000 alt_dcache_flush.c
00000000 l    df *ABS*	00000000 alt_dev.c
00025098 l     F .text	0000002c alt_dev_null_write
00000000 l    df *ABS*	00000000 alt_dev_llist_insert.c
000250f8 l     F .text	0000003c alt_get_errno
00000000 l    df *ABS*	00000000 alt_env_lock.c
00000000 l    df *ABS*	00000000 alt_errno.c
00000000 l    df *ABS*	00000000 alt_fstat.c
00025220 l     F .text	0000003c alt_get_errno
00000000 l    df *ABS*	00000000 alt_icache_flush_all.c
00000000 l    df *ABS*	00000000 alt_iic.c
00000000 l    df *ABS*	00000000 alt_iic_isr_register.c
00000000 l    df *ABS*	00000000 alt_instruction_exception_register.c
00000000 l    df *ABS*	00000000 alt_irq_vars.c
00000000 l    df *ABS*	00000000 alt_isatty.c
00025600 l     F .text	0000003c alt_get_errno
00000000 l    df *ABS*	00000000 alt_load.c
000256e4 l     F .text	00000068 alt_load_section
00000000 l    df *ABS*	00000000 alt_lseek.c
000257d0 l     F .text	0000003c alt_get_errno
00000000 l    df *ABS*	00000000 alt_main.c
00000000 l    df *ABS*	00000000 alt_malloc_lock.c
00000000 l    df *ABS*	00000000 alt_printf.c
00000000 l    df *ABS*	00000000 alt_putchar.c
00000000 l    df *ABS*	00000000 alt_read.c
00025c00 l     F .text	0000003c alt_get_errno
00000000 l    df *ABS*	00000000 alt_release_fd.c
00000000 l    df *ABS*	00000000 alt_sbrk.c
000379c8 l     O .rwdata	00000004 heap_end
00000000 l    df *ABS*	00000000 alt_usleep.c
00000000 l    df *ABS*	00000000 alt_write.c
00025e70 l     F .text	0000003c alt_get_errno
00000000 l    df *ABS*	00000000 alt_sys_init.c
00036760 l     O .rwdata	00000038 i2c
00036798 l     O .rwdata	00001060 jtag_uart_0
000377f8 l     O .rwdata	000000dc qspi_controller2_0
000378d4 l     O .rwdata	00000060 ethernet_dma_tx
00037934 l     O .rwdata	00000060 ethernet_dma_rx
00000000 l    df *ABS*	00000000 altera_avalon_i2c.c
000260bc l     F .text	00000110 optional_irq_callback
0002621c l     F .text	0000009c alt_avalon_i2c_irq
00000000 l    df *ABS*	00000000 altera_avalon_jtag_uart_fd.c
00000000 l    df *ABS*	00000000 altera_avalon_jtag_uart_init.c
00027ef0 l     F .text	00000210 altera_avalon_jtag_uart_irq
00028100 l     F .text	000000a8 altera_avalon_jtag_uart_timeout
00000000 l    df *ABS*	00000000 altera_avalon_jtag_uart_ioctl.c
00000000 l    df *ABS*	00000000 altera_avalon_jtag_uart_read.c
00000000 l    df *ABS*	00000000 altera_avalon_jtag_uart_write.c
00000000 l    df *ABS*	00000000 altera_avalon_timer_sc.c
00028740 l     F .text	00000078 alt_avalon_timer_sc_irq
00000000 l    df *ABS*	00000000 altera_avalon_timer_ts.c
00000000 l    df *ABS*	00000000 altera_avalon_timer_vars.c
00000000 l    df *ABS*	00000000 altera_avalon_tse.c
0003986e l     O .bss	00000001 tse_system_count.4376
0003986f l     O .bss	00000001 is_init.4458
00000000 l    df *ABS*	00000000 altera_avalon_tse_system_info.c
00000000 l    df *ABS*	00000000 altera_generic_quad_spi_controller2.c
0002e4ac l     F .text	0000007c alt_qspi_poll_for_write_in_progress
0002e410 l     F .text	0000009c alt_qspi_validate_read_write_arguments
00000000 l    df *ABS*	00000000 altera_msgdma.c
0002e528 l     F .text	0000003c alt_get_errno
0002e564 l     F .text	00000094 alt_msgdma_write_standard_descriptor
0002e5f8 l     F .text	0000012c alt_msgdma_write_extended_descriptor
0002e724 l     F .text	00000184 alt_msgdma_irq
0002e8a8 l     F .text	0000008c alt_msgdma_construct_standard_descriptor
0002e934 l     F .text	00000154 alt_msgdma_construct_extended_descriptor
0002ea88 l     F .text	000002d4 alt_msgdma_descriptor_async_transfer
0002ed5c l     F .text	00000380 alt_msgdma_descriptor_sync_transfer
0002f3ac l     F .text	000000a4 alt_msgdma_construct_prefetcher_standard_descriptor
0002f450 l     F .text	00000194 alt_msgdma_construct_prefetcher_extended_descriptor
00000000 l    df *ABS*	00000000 alt_alarm_start.c
00000000 l    df *ABS*	00000000 alt_busy_sleep.c
00000000 l    df *ABS*	00000000 alt_dcache_flush_all.c
00000000 l    df *ABS*	00000000 alt_do_ctors.c
00000000 l    df *ABS*	00000000 alt_do_dtors.c
00000000 l    df *ABS*	00000000 alt_find_dev.c
00000000 l    df *ABS*	00000000 alt_flash_dev.c
00000000 l    df *ABS*	00000000 alt_icache_flush.c
00000000 l    df *ABS*	00000000 alt_io_redirect.c
00030c14 l     F .text	000000b0 alt_open_fd
00000000 l    df *ABS*	00000000 alt_open.c
00030d40 l     F .text	0000003c alt_get_errno
00030d7c l     F .text	000000b8 alt_file_locked
00000000 l    df *ABS*	00000000 alt_tick.c
00000000 l    df *ABS*	00000000 altera_nios2_gen2_irq.c
00000000 l    df *ABS*	00000000 alt_find_file.c
00000000 l    df *ABS*	00000000 alt_get_fd.c
00000000 l    df *ABS*	00000000 atexit.c
00000000 l    df *ABS*	00000000 exit.c
00000000 l    df *ABS*	00000000 __atexit.c
00000000 l    df *ABS*	00000000 __call_atexit.c
00000000 l    df *ABS*	00000000 alt_exit.c
00039870 g     O .bss	00000004 alt_instruction_exception_handler
000303f4 g     F .text	0000003c alt_msgdma_standard_descriptor_async_transfer
0001638c g     F .text	00000018 putchar
000003e8 g     F .text	000000a4 tse_mmd_writereg
0000fdc8 g     F .text	000000e8 altera_a10_acquire_arbitration
0001edbc g     F .text	00000074 _mprec_log10
00029b9c g     F .text	000000cc alt_tse_get_mac_info
0000822c g     F .text	00000044 I2C_Read
0001ee9c g     F .text	00000074 __any_on
00023d6c g     F .text	00000058 _isatty_r
00033af4 g     O .rodata	00000028 __mprec_tinytens
000104b8 g     F .text	00000024 get_adc_buffer
0000ba30 g     F .text	000003d8 axi_jesd204_rx_laneinfo_read
000258e0 g     F .text	0000007c alt_main
000166e0 g     F .text	0000008c strcpy
000163a4 g     F .text	000000cc _puts_r
000007e4 g     F .text	00000024 rx_ethernet_isr
080a34b0 g     O .bss	00000100 alt_irq
0000b630 g     F .text	000001f8 axi_jesd204_rx_status_read
00023e04 g     F .text	00000064 _lseek_r
0000a834 g     F .text	00000164 free_FRU
00006ec8 g     F .text	00000088 ad9680_spi_read
0002d75c g     F .text	000000f0 marvell_cfg_rgmii
000379f0 g       *ABS*	00000000 __flash_rwdata_start
0000d0fc g     F .text	00000214 atx_lookup_cp_current
0000fd44 g     F .text	00000084 pll_update
00024c98 g     F .text	00000080 .hidden __eqdf2
000255d4 g     F .text	0000002c alt_instruction_exception_register
00000000 g       *ABS*	00000000 __alt_mem_ddr3_ctrl_amm_0
0002f18c g     F .text	00000058 alt_msgdma_construct_standard_mm_to_mm_descriptor
0002adb0 g     F .text	000001d0 alt_tse_phy_print_profile
080a35f0 g       *ABS*	00000000 __alt_heap_start
00005e6c g     F .text	000000e4 ad9523_sync
0002d4fc g     F .text	00000098 marvell_phy_cfg
0000ca28 g     F .text	000000c0 xcvr_reset
0000b52c g     F .text	00000104 jesd_status
0001634c g     F .text	00000038 printf
00024b44 g     F .text	000000a8 _wcrtomb_r
000033e0 g     F .text	000000b4 close_socket
0001f9e0 g     F .text	0000005c __sseek
0001d024 g     F .text	00000010 __sinit
000237f0 g     F .text	00000148 __swbuf_r
00039848 g     O .bss	00000004 _daylight
0002d8c4 g     F .text	0000005c PEF7071_config
00015184 g     F .text	0000007c _setlocale_r
0001ceac g     F .text	00000068 __sfmoreglue
00026918 g     F .text	000000a8 alt_avalon_i2c_rx_read
0001022c g     F .text	000000c4 iioscope_init
000223d8 g     F .text	00000014 ungetc
00006fcc g     F .text	000000b4 ad9680_check_pdwn
00018ef8 g     F .text	00000024 _tzset_r
00000534 g     F .text	00000080 phy_ethernet_reset
00025980 g     F .text	00000024 __malloc_unlock
00024ad0 g     F .text	00000030 strtoull_l
0000a660 g     F .text	000001d4 parse_FRU
0000d310 g     F .text	00000184 atx_lookup_lf_resistance
0000daa0 g     F .text	000001b0 atx_pll_recalc_rate
00027b28 g     F .text	00000044 alt_avalon_i2c_enabled_ints_get
00029dd4 g     F .text	00000a78 getPHYSpeed
00026698 g     F .text	00000094 alt_avalon_i2c_master_config_speed_get
00039868 g     O .bss	00000004 altera_avalon_timer_ts_freq
0002d9c0 g     F .text	000000fc alt_qspi_controller2_lock
00021148 g     F .text	000000f8 _sfread_r
0001de98 g     F .text	0000011c memmove
00002e74 g     F .text	00000024 get_free_port
0001d010 g     F .text	00000014 _cleanup
00033084 g     O .rodata	00000050 atx_bands
00015228 g     F .text	00000020 __locale_ctype_ptr
0002737c g     F .text	00000208 alt_avalon_i2c_master_transmit_using_interrupts
0001dfb4 g     F .text	000000a4 _Balloc
0002f0dc g     F .text	00000058 alt_msgdma_construct_standard_st_to_mm_descriptor
0002c76c g     F .text	000001c4 alt_tse_phy_set_adv_1000
0000c774 g     F .text	00000048 xcvr_write
000379d4 g     O .rwdata	00000001 max_mac_system
00028fb0 g     F .text	000008cc alt_tse_system_add_sys
00013c9c g     F .text	000000e0 .hidden __gtdf2
00031150 g     F .text	00000024 altera_nios2_gen2_irq_init
0000be54 g     F .text	0000003c i2c_write
00000000 g     F .entry	0000001c __reset
0001db98 g     F .text	00000008 __localeconv_l
00005c3c g     F .text	000000dc ad9523_calibrate
00002fd8 g     F .text	00000408 open_socket
00008cf8 g     F .text	0000020c dac_data_setup
00000020 g       *ABS*	00000000 __flash_exceptions_start
00023d0c g     F .text	00000060 _fstat_r
080a2c10 g     O .bss	00000260 tse_mac_device
0003984c g     O .bss	00000004 errno
000164f4 g     F .text	00000010 __srget
0001f95c g     F .text	00000008 __seofread
0001ffc4 g     F .text	00001024 ___svfiprintf_internal_r
0002d04c g     F .text	000004b0 alt_tse_phy_set_common_speed
080a35b0 g     O .bss	00000020 pmac_groups
0003985c g     O .bss	00000004 alt_argv
0003f994 g       *ABS*	00000000 _gp
00025e40 g     F .text	00000030 usleep
00027b6c g     F .text	0000004c alt_avalon_i2c_rx_fifo_threshold_get
00011d3c g     F .text	00000028 .hidden __bswapsi2
00026828 g     F .text	00000044 alt_avalon_i2c_is_busy
00028ac8 g     F .text	00000060 tse_mac_initTransInfo2
0002fc74 g     F .text	0000014c alt_msgdma_prefetcher_set_extd_list_own_by_hw_bits
00005670 g     F .text	0000017c ad9144_datapath_prbs_test
000365e0 g     O .rwdata	00000180 alt_fd_list
00007478 g     F .text	00000184 adc_setup
0000bf90 g     F .text	00000034 spi_remove
00015078 g     F .text	0000007c _getc_r
0000938c g     F .text	00000074 min2date
000150f4 g     F .text	00000090 getc
00007a98 g     F .text	000000b8 adc_set_pnsel
00000368 g     F .text	0000003c swap16
00016384 g     F .text	00000008 _putchar_r
000265cc g     F .text	000000cc alt_avalon_i2c_master_config_set
0003089c g     F .text	00000160 alt_find_dev
0000e92c g     F .text	000001cc fpll_recalc_rate
00015ac0 g     F .text	000000f0 memcpy
00028d58 g     F .text	00000054 tse_mac_setMIImode
0002dabc g     F .text	0000008c alt_qspi_controller2_get_info
0002a84c g     F .text	00000048 alt_tse_phy_rd_mdio_addr
0001179c g     F .text	0000016c daq2_transaction_adc
0001cd14 g     F .text	0000000c _cleanup_r
00024e4c g     F .text	000000c8 .hidden __floatsidf
00028b28 g     F .text	000000c8 tse_mac_sTxWrite
00030cc4 g     F .text	0000007c alt_io_redirect
00024d18 g     F .text	000000e0 .hidden __ltdf2
00007380 g     F .text	00000048 ad9680_remove
00024704 g     F .text	00000030 strtoll_l
00000808 g     F .text	00000204 rx_dma_rearm
0003168c g       *ABS*	00000000 __DTOR_END__
00030130 g     F .text	000000b0 alt_msgdma_start_prefetcher_with_extd_desc_list
00030430 g     F .text	0000003c alt_msgdma_extended_descriptor_async_transfer
000303a0 g     F .text	00000054 alt_msgdma_register_callback
000271c0 g     F .text	000001bc alt_avalon_i2c_master_transmit
00016470 g     F .text	00000010 puts
00030b7c g     F .text	00000098 alt_exception_cause_generated_bad_addr
88020000 g       *ABS*	00000000 __alt_mem_mcu_subsystem_ram_0
0000fca8 g     F .text	00000050 a10_pll_read
00023f18 g     F .text	000000b8 mbrtowc
0001ed14 g     F .text	000000a8 __ratio
00023718 g     F .text	00000018 __vfiprintf_internal
00028300 g     F .text	0000021c altera_avalon_jtag_uart_read
0001525c g     F .text	00000010 malloc
0002f8dc g     F .text	000000f0 alt_msgdma_prefetcher_add_standard_desc_to_list
0001631c g     F .text	00000030 _printf_r
00012a54 g     F .text	00000064 .hidden __udivsi3
0002563c g     F .text	000000a8 isatty
0002987c g     F .text	00000144 alt_tse_sys_enable_mdio_sharing
00023dc4 g     F .text	00000040 iswspace
0000becc g     F .text	000000c4 spi_init
00033b44 g     O .rodata	000000c8 __mprec_tens
00029b20 g     F .text	0000007c alt_tse_get_mac_info_index
00024734 g     F .text	00000044 strtoll
00011d64 g     F .text	00000074 .hidden __fixunsdfsi
00007cd4 g     F .text	000004f0 adc_ramp_test
00030aec g     F .text	00000090 alt_icache_flush
00026438 g     F .text	00000098 alt_avalon_i2c_enable
0003983c g     O .bss	00000004 __malloc_top_pad
000210d8 g     F .text	00000070 __ssrefill_r
0001fdc0 g     F .text	00000044 strtoul
00027a54 g     F .text	0000006c alt_avalon_i2c_int_disable
0000be30 g     F .text	00000024 i2c_remove
00000bec g     F .text	000001fc tcp_ip_process_stack
0001dba0 g     F .text	00000020 _localeconv_r
00024a9c g     F .text	00000034 _strtoull_r
0001e3b4 g     F .text	00000034 __i2b
0001d478 g     F .text	000004a0 __sfvwrite_r
00005d18 g     F .text	00000154 ad9523_status
0002a8ec g     F .text	0000012c alt_tse_phy_wr_mdio_reg
00016504 g     F .text	00000058 _sbrk_r
0002af80 g     F .text	00000698 alt_tse_mac_group_init
0000e2a4 g     F .text	00000374 fpll_calc_params
00023fd0 g     F .text	00000064 _read_r
00025020 g     F .text	00000078 alt_dcache_flush
000379c0 g     O .rwdata	00000004 alt_max_fd
0000eec0 g     F .text	0000039c altera_a10_cdr_lookup_cp_current_pfd
00028c60 g     F .text	00000070 tse_mac_aTxWrite
00010070 g     F .text	0000009c pll_is_enabled
00023a08 g     F .text	000000f0 _fclose_r
000102f0 g     F .text	0000003c iioscope_process_rx
0001cce4 g     F .text	00000028 fflush
0000c7bc g     F .text	0000017c xcvr_setup
00039838 g     O .bss	00000004 __malloc_max_sbrked_mem
00027584 g     F .text	0000020c alt_avalon_i2c_master_receive
00014e48 g     F .text	0000010c .hidden __extendsfdf2
00012b10 g     F .text	000008c0 .hidden __adddf3
0001eac8 g     F .text	00000104 __b2d
0002f63c g     F .text	00000058 alt_msgdma_construct_prefetcher_standard_st_to_mm_descriptor
00012400 g     F .text	00000554 .hidden __umoddi3
0002580c g     F .text	000000d4 lseek
0002aae8 g     F .text	000002c8 alt_tse_phy_add_profile_default
00027ac0 g     F .text	00000068 alt_avalon_i2c_int_enable
0002c1d8 g     F .text	00000594 alt_tse_phy_get_cap
0000b3a8 g     F .text	00000048 jesd_write
00037994 g     O .rwdata	00000004 _global_impure_ptr
0001f0bc g     F .text	00000578 _realloc_r
80000000 g       *ABS*	00000000 __alt_exception_stack_pointer
080a35f0 g       *ABS*	00000000 __bss_end
000254f0 g     F .text	000000e4 alt_iic_isr_register
00008648 g     F .text	000001b4 dds_set_frequency
00024368 g     F .text	00000030 strtol_l
0002dcb8 g     F .text	0000026c alt_qspi_controller2_write_block
00031024 g     F .text	0000012c alt_tick
00030238 g     F .text	00000168 alt_msgdma_init
0000d6b4 g     F .text	00000138 atx_pll_round_rate
00011e68 g     F .text	00000598 .hidden __udivdi3
0000e744 g     F .text	000001e8 fpll_set_rate
0002797c g     F .text	00000058 alt_avalon_i2c_int_status_get
00023c6c g     F .text	00000024 _fputwc_r
0002c050 g     F .text	00000188 alt_tse_phy_check_link
00033b1c g     O .rodata	00000028 __mprec_bigtens
0001e190 g     F .text	00000110 __s2b
00014dac g     F .text	0000009c .hidden __floatunsidf
0002d678 g     F .text	000000e4 marvell_cfg_sgmii
0002be8c g     F .text	000001c4 alt_tse_phy_restart_an
0001e84c g     F .text	00000058 __mcmp
000304a8 g     F .text	0000003c alt_msgdma_extended_descriptor_sync_transfer
00007080 g     F .text	000000c4 ad9680_test
0001d044 g     F .text	00000014 __fp_lock_all
00009cdc g     F .text	000004a8 parse_board_area
000254a4 g     F .text	0000004c alt_ic_irq_enabled
000081e8 g     F .text	00000044 I2C_Write
080a35d0 g     O .bss	00000020 pphy_profiles
0000ecc0 g     F .text	0000008c altera_a10_cdr_lookup_lf_resistor_pd
00030f88 g     F .text	0000009c alt_alarm_stop
00024398 g     F .text	00000044 strtol
0000c650 g     F .text	00000038 ad_platform_close
000262b8 g     F .text	00000054 alt_avalon_i2c_register_callback
0002630c g     F .text	000000ec alt_avalon_i2c_init
00039854 g     O .bss	00000004 alt_irq_active
00003a44 g     F .text	0000051c network_init
000081c4 g     F .text	00000024 I2C_Init
00004430 g     F .text	00000094 ad9144_spi_write_seq
00011a08 g     F .text	0000007c mem_reading
00000108 g     F .exceptions	000000c8 alt_irq_handler
000365b8 g     O .rwdata	00000028 alt_dev_null
0002f274 g     F .text	00000090 alt_msgdma_construct_extended_mm_to_st_descriptor
000021a8 g     F .text	000002d0 udp_checksum
0002bd80 g     F .text	0000010c alt_tse_phy_init
0002db48 g     F .text	00000170 alt_qspi_controller2_erase_block
0000b35c g     F .text	0000004c jesd_read
00010b54 g     F .text	00000098 daq2_deinit
000189dc g     F .text	00000004 __tz_unlock
00030080 g     F .text	000000b0 alt_msgdma_start_prefetcher_with_std_desc_list
00030794 g     F .text	00000048 alt_dcache_flush_all
0001e2a0 g     F .text	00000064 __hi0bits
00014d2c g     F .text	00000080 .hidden __fixdfsi
00014fa8 g     F .text	00000014 calloc
000073c8 g     F .text	00000068 adc_read
000379f0 g       *ABS*	00000000 __ram_rwdata_end
000379b8 g     O .rwdata	00000008 alt_dev_list
00025eac g     F .text	000000f8 write
0001ef10 g     F .text	000000cc _putc_r
00026c54 g     F .text	0000004c alt_avalon_i2c_check_arblost
00028a78 g     F .text	00000020 alt_timestamp_freq
000379a4 g     O .rwdata	00000008 _tzname
00027a18 g     F .text	0000003c alt_avalon_i2c_int_clear
000379ac g     O .rwdata	00000004 environ
00035bb0 g       *ABS*	00000000 __ram_rodata_end
0002525c g     F .text	000000b0 fstat
00024d18 g     F .text	000000e0 .hidden __ledf2
0002d84c g     F .text	00000078 DP83848C_link_status_read
000379cc g     O .rwdata	00000008 alt_avalon_i2c_list
0001e5e4 g     F .text	00000124 __pow5mult
000224f8 g     F .text	00001220 ___vfiprintf_internal_r
000010ac g     F .text	00000024 net_deinitialize
00012ab8 g     F .text	00000058 .hidden __umodsi3
000057ec g     F .text	000000f0 ad9523_spi_read
0000c1e4 g     F .text	00000028 gpio_get_direction
00011bec g     F .text	000000f0 cmp_s
0002f694 g     F .text	00000058 alt_msgdma_construct_prefetcher_standard_mm_to_st_descriptor
080a35f0 g       *ABS*	00000000 end
0000fb94 g     F .text	00000114 altera_a10_calib_tx_pll
000250c4 g     F .text	00000034 alt_dev_reg
0001f890 g     F .text	00000078 _siscanf_r
0000d494 g     F .text	00000220 atx_calc_params
0000ff08 g     F .text	00000168 pll_calibration_check
00005448 g     F .text	00000228 ad9144_short_pattern_test
00028dfc g     F .text	000001b4 alt_tse_phy_add_profile
00006f50 g     F .text	0000007c ad9680_spi_write
00027e30 g     F .text	000000c0 altera_avalon_jtag_uart_init
000001d0 g     F .exceptions	00000074 alt_instruction_exception_entry
000263f8 g     F .text	00000040 alt_avalon_i2c_open
0003168c g       *ABS*	00000000 __CTOR_LIST__
7ffe0000 g       *ABS*	00000000 __alt_stack_pointer
00026dd4 g     F .text	000000e8 alt_avalon_i2c_master_tx
000287b8 g     F .text	0000007c alt_avalon_timer_sc_init
00014f54 g     F .text	00000054 .hidden __clzsi2
0002851c g     F .text	00000224 altera_avalon_jtag_uart_write
0001d034 g     F .text	00000004 __sfp_lock_acquire
0001ddb0 g     F .text	000000e8 memchr
00018f1c g     F .text	00001fb4 ___vfprintf_internal_r
0001655c g     F .text	00000054 _sprintf_r
0001d188 g     F .text	000002f0 _free_r
000259a4 g     F .text	0000022c alt_printf
0000c0b0 g     F .text	000000b0 gpio_get
00008f50 g     F .text	00000048 dmac_write
000338f8 g     O .rodata	00000180 _ctype_b
000075fc g     F .text	0000011c adc_set_delay
00015200 g     F .text	00000020 __locale_mb_cur_max
000314ec g     F .text	0000016c __call_exitprocs
00016480 g     F .text	00000074 __srget_r
000034d0 g     F .text	00000024 get_net_context
0000c630 g     F .text	00000020 ad_platform_init
0000f25c g     F .text	000002a8 altera_a10_cdr_calc_params
00008590 g     F .text	0000006c dac_read
00020fe8 g     F .text	000000f0 _sungetc_r
000261cc g     F .text	00000050 alt_avalon_i2c_register_optional_irq_handler
00015f5c g     F .text	000003c0 mktime
0003799c g     O .rwdata	00000004 __malloc_sbrk_base
00000244 g     F .text	0000004c _start
0000ac00 g     F .text	0000075c build_FRU_blob
00039874 g     O .bss	00000004 _alt_tick_rate
000246d0 g     F .text	00000034 _strtoll_r
00027790 g     F .text	000001ec alt_avalon_i2c_master_receive_using_interrupts
00027bb8 g     F .text	00000064 alt_avalon_i2c_rx_fifo_threshold_set
0001e708 g     F .text	00000144 __lshift
00011a84 g     F .text	00000048 mem_testing
00006220 g     F .text	00000c60 ad9523_setup
00039878 g     O .bss	00000008 _alt_nticks
0002f134 g     F .text	00000058 alt_msgdma_construct_standard_mm_to_st_descriptor
0002aa18 g     F .text	000000d0 alt_tse_phy_rd_mdio_reg
00025c3c g     F .text	000000fc read
00025fdc g     F .text	000000e0 alt_sys_init
0001fe04 g     F .text	000001c0 __ssprint_r
0000d01c g     F .text	0000008c atx_lookup_band
00003604 g     F .text	00000334 ethernet_init
00010bec g     F .text	00000bb0 daq2_init
000313e0 g     F .text	0000010c __register_exitproc
0003986c g     O .bss	00000001 phy_profile_count
0001fa44 g     F .text	000000c4 strncmp
00007144 g     F .text	0000023c ad9680_setup
00029ab4 g     F .text	0000006c alt_tse_get_mac_group_index
00026ff8 g     F .text	000001c8 alt_avalon_i2c_master_tx_rx
0000c43c g     F .text	000000a8 ad_gpio_get_range
0001e3e8 g     F .text	000001fc __multiply
0000c1b8 g     F .text	0000002c gpio_direction_output
000003a4 g     F .text	00000044 swap32
000281a8 g     F .text	00000068 altera_avalon_jtag_uart_close
0000c20c g     F .text	000000e8 gpio_set_value
00035bb0 g       *ABS*	00000000 __ram_rwdata_start
0003168c g       *ABS*	00000000 __ram_rodata_start
00033a88 g     O .rodata	00000060 __month_lengths
0000c37c g     F .text	000000c0 ad_gpio_set_range
080a2bd0 g     O .bss	00000028 __malloc_current_mallinfo
00003f60 g     F .text	00000320 network_task
0001ebcc g     F .text	00000148 __d2b
00008324 g     F .text	0000026c dac_buffer_load
0002a894 g     F .text	00000058 alt_tse_phy_wr_mdio_addr
000058dc g     F .text	000000d4 ad9523_spi_write
00027ccc g     F .text	00000060 altera_avalon_jtag_uart_read_fd
0001fd5c g     F .text	00000034 _strtoul_r
000312f8 g     F .text	000000a0 alt_get_fd
00011988 g     F .text	00000080 mem_writing
0003063c g     F .text	00000158 alt_busy_sleep
0000048c g     F .text	000000a8 tse_mmd_readreg
000239b0 g     F .text	00000058 _close_r
00001824 g     F .text	000000cc icmp_checksum
0002cd2c g     F .text	00000320 alt_tse_phy_get_common_speed
0002f5e4 g     F .text	00000058 alt_msgdma_construct_prefetcher_standard_mm_to_mm_descriptor
00008f04 g     F .text	0000004c dmac_read
000059ec g     F .text	00000250 ad9523_vco_out_map
0002686c g     F .text	000000ac alt_avalon_i2c_rx_read_available
00027d8c g     F .text	00000050 altera_avalon_jtag_uart_close_fd
080a35f0 g       *ABS*	00000000 __alt_stack_base
00027ddc g     F .text	00000054 altera_avalon_jtag_uart_ioctl_fd
0003986d g     O .bss	00000001 mac_group_count
0000b828 g     F .text	00000208 axi_jesd204_tx_status_read
0002f6ec g     F .text	000000a0 alt_msgdma_construct_prefetcher_extended_st_to_mm_descriptor
0001aff8 g     F .text	00000158 __swsetup_r
000133d0 g     F .text	000008cc .hidden __divdf3
0001cf14 g     F .text	000000fc __sfp
0001ee30 g     F .text	0000006c __copybits
00036170 g     O .rwdata	00000408 __malloc_av_
0001d040 g     F .text	00000004 __sinit_lock_release
00013d7c g     F .text	000006dc .hidden __muldf3
00000680 g     F .text	00000090 phy_cfg
0001f908 g     F .text	00000054 __sread
0002b618 g     F .text	00000400 alt_tse_mac_get_phy
00010368 g     F .text	00000150 iioscope_process
0000c194 g     F .text	00000024 gpio_direction_input
0000c4e4 g     F .text	000000bc do_div
00031174 g     F .text	00000184 alt_find_file
00025134 g     F .text	000000a4 alt_dev_llist_insert
0002595c g     F .text	00000024 __malloc_lock
00025d90 g     F .text	000000b0 sbrk
000167fc g     F .text	00001fb4 ___svfprintf_internal_r
00026ca0 g     F .text	00000134 alt_avalon_i2c_interrupt_transaction_status
00026c08 g     F .text	0000004c alt_avalon_i2c_check_nack
0001cc84 g     F .text	00000060 _fflush_r
00029d48 g     F .text	0000008c alt_tse_mac_set_duplex
00000aec g     F .text	00000024 udp_initialise
00030ab8 g     F .text	00000034 alt_flash_device_register
0000eaf8 g     F .text	00000054 altera_a10_cdr_lookup_vco_speed
00014fbc g     F .text	000000bc _calloc_r
000379e0 g     O .rwdata	00000008 alt_flash_dev_list
00024b00 g     F .text	00000044 strtoull
000189d8 g     F .text	00000004 __tz_lock
0000fcf8 g     F .text	0000004c a10_pll_write
00039830 g       *ABS*	00000000 __bss_start
00015bb0 g     F .text	000000fc memset
000301e0 g     F .text	00000058 alt_msgdma_open
00011b84 g     F .text	00000068 main
00026bd4 g     F .text	00000034 alt_avalon_i2c_master_target_set
00039860 g     O .bss	00000004 alt_envp
00039834 g     O .bss	00000004 __malloc_max_total_mem
0002f9cc g     F .text	00000198 alt_msgdma_prefetcher_add_extended_desc_to_list
00027d2c g     F .text	00000060 altera_avalon_jtag_uart_write_fd
0000be90 g     F .text	0000003c i2c_read
00023938 g     F .text	00000014 __swbuf
0000c728 g     F .text	0000004c xcvr_read
000279d4 g     F .text	00000044 alt_avalon_i2c_int_raw_status_get
0000ec00 g     F .text	0000004c altera_a10_cdr_lookup_cp_current_pd
0000feb0 g     F .text	00000058 altera_a10_release_arbitration
0001fa3c g     F .text	00000008 __sclose
7ffe0000 g       *ABS*	00000000 __alt_heap_limit
000087fc g     F .text	00000168 dds_set_phase
00023af8 g     F .text	00000010 fclose
00024334 g     F .text	00000034 _strtol_r
00028834 g     F .text	00000098 alt_timestamp_start
0001da70 g     F .text	00000100 _findenv_r
0001b3bc g     F .text	000016a8 _dtoa_r
0002fdc0 g     F .text	000002c0 alt_msgdma_start_prefetcher_with_list_addr
0001527c g     F .text	000007d8 _malloc_r
0001afc8 g     F .text	00000030 __ascii_wctomb
00028cd0 g     F .text	00000088 tse_mac_SwReset
0001019c g     F .text	00000090 pll_disable
00008ae4 g     F .text	00000114 dac_data_src_sel
000379c4 g     O .rwdata	00000004 alt_errno
0002f824 g     F .text	000000b8 alt_msgdma_construct_prefetcher_extended_mm_to_mm_descriptor
000096e4 g     F .text	00000248 six2ascii
00022180 g     F .text	000000d4 __submore
0000d7ec g     F .text	000002b4 atx_pll_set_rate
000251fc g     F .text	00000024 __env_unlock
0001d918 g     F .text	000000a4 _fwalk
00015a54 g     F .text	00000028 _mbtowc_r
0001efdc g     F .text	000000e0 putc
00012954 g     F .text	00000088 .hidden __divsi3
00029a00 g     F .text	00000048 alt_tse_mac_set_common_speed
0001d06c g     F .text	0000011c _malloc_trim_r
0003168c g       *ABS*	00000000 __CTOR_END__
0000cae8 g     F .text	000003c4 dump_registers
00000710 g     F .text	0000008c hw_ethernet_reset
00004280 g     F .text	00000088 ad9144_spi_read
00003494 g     F .text	0000003c close_all_sockets
000189e0 g     F .text	0000000c _tzset_unlocked
00016614 g     F .text	000000cc strcmp
0000c2f4 g     F .text	00000088 gpio_get_value
0001f818 g     F .text	00000078 siscanf
0003168c g       *ABS*	00000000 __flash_rodata_start
000044c4 g     F .text	0000032c ad9144_setup_jesd204_link
0003168c g       *ABS*	00000000 __DTOR_LIST__
0001fd90 g     F .text	00000030 strtoul_l
0000ec4c g     F .text	0000003c altera_a10_cdr_lookup_clklow_div
00024c98 g     F .text	00000080 .hidden __nedf2
00011dd8 g     F .text	00000090 .hidden __fixunsdfdi
00025fa4 g     F .text	00000038 alt_irq_init
000299c0 g     F .text	00000040 alt_tse_mac_get_common_speed
00025d38 g     F .text	00000058 alt_release_fd
000059b0 g     F .text	0000003c ad9523_io_update
0003046c g     F .text	0000003c alt_msgdma_standard_descriptor_sync_transfer
000082ec g     F .text	00000038 SPI_Write
000165b0 g     F .text	00000064 sprintf
000335ab g     O .rodata	00000100 .hidden __clz_tab
0000c938 g     F .text	000000f0 xcvr_getconfig
00039830 g     O .bss	00000004 _PathLocale
00031398 g     F .text	00000014 atexit
00008964 g     F .text	00000180 dds_set_scale
0002394c g     F .text	00000064 _write_r
00000a84 g     F .text	00000068 arp_initialise
00002478 g     F .text	00000778 udp_send
00015248 g     F .text	00000014 setlocale
0002f78c g     F .text	00000098 alt_msgdma_construct_prefetcher_extended_mm_to_st_descriptor
0000f504 g     F .text	00000150 altera_a10_cdr_pll_round_rate
080a2e70 g     O .bss	00000640 frame
0002d920 g     F .text	000000a0 PEF7071_link_status_read
00005f50 g     F .text	000002d0 ad9523_init
00037998 g     O .rwdata	00000004 _impure_ptr
00008f98 g     F .text	0000038c dmac_start_transaction
00039858 g     O .bss	00000004 alt_argc
0001ca64 g     F .text	00000220 __sflush_r
00023e68 g     F .text	000000b0 _mbrtowc_r
0000355c g     F .text	000000a8 ethernet_enable
00039864 g     O .bss	00000004 altera_avalon_timer_ts_base
0003083c g     F .text	00000060 _do_dtors
00026b9c g     F .text	00000038 alt_avalon_i2c_master_target_get
00004aa0 g     F .text	000005f4 ad9144_setup
00026aac g     F .text	000000f0 alt_avalon_i2c_send_address
0000be08 g     F .text	00000028 i2c_init
0001f650 g     F .text	000001c8 __srefill_r
00004308 g     F .text	0000007c ad9144_spi_write
000010d0 g     F .text	0000011c net_initialize
00000020 g       .exceptions	00000000 alt_irq_entry
00015a7c g     F .text	00000044 __ascii_mbtowc
00005094 g     F .text	0000013c ad9144_dac_calibrate
0001ea64 g     F .text	00000064 __ulp
0001d058 g     F .text	00000014 __fp_unlock_all
000379b0 g     O .rwdata	00000008 alt_fs_list
0002e10c g     F .text	000000ac alt_qspi_controller2_read
0000b490 g     F .text	0000009c jesd_sysref_control
0000079c g     F .text	00000024 ethernet_configure
000034f4 g     F .text	00000034 register_rx_dma
00039844 g     O .bss	00000004 _timezone
00006e80 g     F .text	00000048 ad9523_remove
000106d8 g     F .text	0000047c fmcdaq2_reconfig
00021240 g     F .text	00000f40 __ssvfiscanf_r
00000020 g       *ABS*	00000000 __ram_exceptions_start
0001dbc0 g     F .text	00000020 localeconv
000288cc g     F .text	000001ac alt_timestamp
000085fc g     F .text	0000004c dac_write
0001010c g     F .text	00000090 pll_enable
0000a184 g     F .text	000004dc parse_multiboard_area
0001dbe0 g     F .text	00000094 __swhatbuf_r
00027c68 g     F .text	00000064 alt_avalon_i2c_tfr_cmd_fifo_threshold_set
0002cb84 g     F .text	000001a8 alt_tse_phy_set_adv_10
00011908 g     F .text	00000080 daq2_transaction_dac
000264d0 g     F .text	0000004c alt_avalon_i2c_disable
00025340 g     F .text	00000050 alt_ic_isr_register
0000bfc4 g     F .text	000000ec spi_write_and_read
00004384 g     F .text	000000ac ad9144_spi_check_status
000379f0 g       *ABS*	00000000 _edata
0000b3f0 g     F .text	000000a0 jesd_setup
0000c5a0 g     F .text	00000090 ad_reg_write_16
080a35f0 g       *ABS*	00000000 _end
000309fc g     F .text	00000068 alt_flash_open_dev
0002ba18 g     F .text	00000240 alt_tse_mac_associate_phy
00023b08 g     F .text	00000164 __fputwc
00000244 g       *ABS*	00000000 __ram_exceptions_end
00028210 g     F .text	000000f0 altera_avalon_jtag_uart_ioctl
00018a10 g     F .text	000004e8 _tzset_unlocked_r
0000c6c8 g     F .text	00000060 ad_pow2
00002e98 g     F .text	00000024 ip_task
0000ed4c g     F .text	00000174 altera_a10_cdr_lookup_lf_resistor_pfd
000007c0 g     F .text	00000024 tx_ethernet_isr
0002651c g     F .text	000000b0 alt_avalon_i2c_master_config_get
00007718 g     F .text	00000380 adc_delay_calibrate
00025418 g     F .text	0000008c alt_ic_irq_disable
0002df24 g     F .text	000001e8 alt_qspi_controller2_write
0001f964 g     F .text	0000007c __swrite
000379a0 g     O .rwdata	00000004 __malloc_trim_threshold
000313ac g     F .text	00000034 exit
0001d9bc g     F .text	000000b4 _fwalk_reent
0002fb64 g     F .text	00000110 alt_msgdma_prefetcher_set_std_list_own_by_hw_bits
0001e8a4 g     F .text	000001c0 __mdiff
0001032c g     F .text	0000003c iioscope_process_ctrl_rx
0000d0a8 g     F .text	00000054 atx_lookup_tank
00030a64 g     F .text	00000054 alt_flash_close_dev
000129dc g     F .text	00000078 .hidden __modsi3
00028dac g     F .text	00000050 tse_mac_setGMIImode
0002d594 g     F .text	000000e4 marvell_cfg_gmii
7ffe0000 g       *ABS*	00000000 __alt_data_end
00000020 g     F .exceptions	00000000 alt_exception
0001d038 g     F .text	00000004 __sfp_lock_release
0002f304 g     F .text	000000a8 alt_msgdma_construct_extended_mm_to_mm_descriptor
0002bc58 g     F .text	00000128 alt_tse_phy_cfg_pcs
00024034 g     F .text	000000d0 __sccl
0002672c g     F .text	000000fc alt_avalon_i2c_master_config_speed_set
00003528 g     F .text	00000034 register_tx_dma
0000c160 g     F .text	00000034 gpio_remove
000337f7 g     O .rodata	00000101 _ctype_
00009324 g     F .text	00000068 calc_zero_checksum
000269c0 g     F .text	000000ec alt_avalon_i2c_cmd_write
00024df8 g     F .text	00000054 .hidden __unorddf2
0002f1e4 g     F .text	00000090 alt_msgdma_construct_extended_st_to_mm_descriptor
0002e1b8 g     F .text	00000258 altera_qspi_controller2_init
0000f654 g     F .text	00000540 altera_a10_cdr_pll_set_rate
0000ec88 g     F .text	00000038 altera_a10_cdr_lookup_fastlock
00031658 g     F .text	00000034 _exit
0000c688 g     F .text	00000040 ad_uart_read
000304e4 g     F .text	00000158 alt_alarm_start
000104dc g     F .text	000001fc memory_testing
00011cdc g     F .text	00000060 .hidden __muldi3
80000000 g       *ABS*	00000000 __alt_mem_qspi_controller2_0_avl_mem
0000dd48 g     F .text	0000055c fpll_lookup_cp_current
0001dc74 g     F .text	0000013c __smakebuf_r
000379d8 g     O .rwdata	00000008 alt_msgdma_list
0001676c g     F .text	00000090 strlen
00015220 g     F .text	00000008 __locale_ctype_ptr_l
00030e34 g     F .text	00000154 open
00013c9c g     F .text	000000e0 .hidden __gedf2
0000dc50 g     F .text	000000f8 fpll_lookup_lf_resistance
00025bd0 g     F .text	00000030 alt_putchar
00008bf8 g     F .text	00000100 dac_setup
0001b150 g     F .text	00000074 div
00005218 g     F .text	00000230 ad9144_status
000224e0 g     F .text	00000018 __sprint_r
00028bf0 g     F .text	00000070 tse_mac_aRxRead
0002530c g     F .text	00000034 alt_icache_flush_all
00008270 g     F .text	00000044 SPI_Init
00009400 g     F .text	000002e4 ascii2six
00000a0c g     F .text	00000078 tx_dma_rearm
00025390 g     F .text	00000088 alt_ic_irq_enable
0001aed0 g     F .text	00000018 __vfprintf_internal
0000eb4c g     F .text	000000b4 altera_a10_cdr_lookup_vco_speed_fix
00007b50 g     F .text	00000184 adc_pn_mon
0001afa8 g     F .text	00000020 _wctomb_r
000251d8 g     F .text	00000024 __env_lock
00029c68 g     F .text	000000e0 alt_tse_mac_set_speed
00014458 g     F .text	000008d4 .hidden __subdf3
0000992c g     F .text	000003b0 parse_string
000189ec g     F .text	00000024 tzset
000082b4 g     F .text	00000038 SPI_Read
0000e618 g     F .text	0000012c fpll_round_rate
0001e304 g     F .text	000000b0 __lo0bits
000051d0 g     F .text	00000048 ad9144_remove
000187b0 g     F .text	00000228 __tzcalc_limits
000379e8 g     O .rwdata	00000008 alt_alarm_list
00022254 g     F .text	00000184 _ungetc_r
000307dc g     F .text	00000060 _do_ctors
0002c930 g     F .text	00000254 alt_tse_phy_set_adv_100
00024bec g     F .text	000000ac wcrtomb
00024f50 g     F .text	000000d0 close
00036004 g     O .rwdata	0000016c __global_locale
00027c1c g     F .text	0000004c alt_avalon_i2c_tfr_cmd_fifo_threshold_get
00007430 g     F .text	00000048 adc_write
0002574c g     F .text	00000084 alt_load
00026ebc g     F .text	0000013c alt_avalon_i2c_master_rx
00029a48 g     F .text	0000006c alt_tse_get_system_index
00011b54 g     F .text	00000030 exception_handler
00023c90 g     F .text	0000007c fputwc
0001db8c g     F .text	0000000c __gettzinfo
0001526c g     F .text	00000010 free
0001d03c g     F .text	00000004 __sinit_lock_acquire
00003938 g     F .text	0000010c phy_init
00000290 g     F .text	000000d8 fcs_crc32
0001e07c g     F .text	00000114 __multadd
0001e058 g     F .text	00000024 _Bfree
00028a98 g     F .text	00000030 no_printf
0001db70 g     F .text	0000001c _getenv_r
0000ceac g     F .text	00000170 xcvr_finalize_lane_rate_change



Disassembly of section .entry:

00000000 <__reset>:
#if NIOS2_ICACHE_SIZE > 0 && defined(ALT_ALLOW_CODE_AT_RESET) && (!defined(ALT_SIM_OPTIMIZE) || defined(NIOS2_ECC_PRESENT))
    /* Assume the instruction cache size is always a power of two. */
#if NIOS2_ICACHE_SIZE > 0x8000
    movhi r2, %hi(NIOS2_ICACHE_SIZE)
#else
    movui r2, NIOS2_ICACHE_SIZE
   0:	00840014 	movui	r2,4096
#endif

0:
    initi r2
   4:	1001483a 	initi	r2
    addi r2, r2, -NIOS2_ICACHE_LINE_SIZE
   8:	10bff804 	addi	r2,r2,-32
    bgt r2, zero, 0b
   c:	00bffd16 	blt	zero,r2,4 <__alt_mem_mcu_subsystem_ram_0+0x77fe0004>
 * Jump to the _start entry point in the .text section if reset code
 * is allowed or if optimizing for RTL simulation.
 */
#if defined(ALT_ALLOW_CODE_AT_RESET) || defined(ALT_SIM_OPTIMIZE)
    /* Jump to the _start entry point in the .text section. */
    movhi r1, %hi(_start)
  10:	00400034 	movhi	at,0
    ori r1, r1, %lo(_start)
  14:	08409114 	ori	at,at,580
    jmp r1
  18:	0800683a 	jmp	at
  1c:	00000000 	call	0 <__reset>

Disassembly of section .exceptions:

00000020 <alt_exception>:

        /* 
         * Switch to the exception stack and save the current stack pointer
         * in memory. Uses the et register as a scratch register.
         */
        movhi et, %hi(__alt_exception_stack_pointer - 80)
  20:	061ffff4 	movhi	et,32767
        ori   et, et, %lo(__alt_exception_stack_pointer - 80) 
  24:	c63fec14 	ori	et,et,65456
        stw   sp, 76(et)
  28:	c6c01315 	stw	sp,76(et)
        mov   sp, et
  2c:	c037883a 	mov	sp,et
         * documentation for details).
         *
         * Leave a gap in the stack frame at 4(sp) for the muldiv handler to
         * store zero into.
         */
        stw   ra,  0(sp)
  30:	dfc00015 	stw	ra,0(sp)
        stw   r1,   8(sp)
  34:	d8400215 	stw	at,8(sp)
        stw   r2,  12(sp)
  38:	d8800315 	stw	r2,12(sp)
        stw   r3,  16(sp)
  3c:	d8c00415 	stw	r3,16(sp)
        stw   r4,  20(sp)
  40:	d9000515 	stw	r4,20(sp)
        stw   r5,  24(sp)
  44:	d9400615 	stw	r5,24(sp)
        stw   r6,  28(sp)
  48:	d9800715 	stw	r6,28(sp)
        stw   r7,  32(sp)
  4c:	d9c00815 	stw	r7,32(sp)
        rdctl r5, estatus   /* Read early to avoid usage stall */
  50:	000b307a 	rdctl	r5,estatus
        stw   r8,  36(sp)
  54:	da000915 	stw	r8,36(sp)
        stw   r9,  40(sp)
  58:	da400a15 	stw	r9,40(sp)
        stw   r10, 44(sp)
  5c:	da800b15 	stw	r10,44(sp)
        stw   r11, 48(sp)
  60:	dac00c15 	stw	r11,48(sp)
        stw   r12, 52(sp)
  64:	db000d15 	stw	r12,52(sp)
        stw   r13, 56(sp)
  68:	db400e15 	stw	r13,56(sp)
        stw   r14, 60(sp)
  6c:	db800f15 	stw	r14,60(sp)
        stw   r15, 64(sp)
  70:	dbc01015 	stw	r15,64(sp)
        /*
         * ea-4 contains the address of the instruction being executed
         * when the exception occured. For interrupt exceptions, we will
         * will be re-issue the isntruction. Store it in 72(sp)
         */
        stw   r5,  68(sp)  /* estatus */
  74:	d9401115 	stw	r5,68(sp)
        addi  r15, ea, -4  /* instruction that caused exception */
  78:	ebffff04 	addi	r15,ea,-4
        stw   r15,  72(sp)
  7c:	dbc01215 	stw	r15,72(sp)
#else
        /*
         * Test to see if the exception was a software exception or caused 
         * by an external interrupt, and vector accordingly.
         */
        rdctl r4, ipending
  80:	0009313a 	rdctl	r4,ipending
        andi  r2, r5, 1
  84:	2880004c 	andi	r2,r5,1
        beq   r2, zero, .Lnot_irq
  88:	10000326 	beq	r2,zero,98 <alt_exception+0x78>
        beq   r4, zero, .Lnot_irq
  8c:	20000226 	beq	r4,zero,98 <alt_exception+0x78>
        /*
         * Now that all necessary registers have been preserved, call 
         * alt_irq_handler() to process the interrupts.
         */

        call alt_irq_handler
  90:	00001080 	call	108 <alt_irq_handler>

        .section .exceptions.irqreturn, "xa"

        br    .Lexception_exit
  94:	00000706 	br	b4 <alt_exception+0x94>
         * upon completion, so we write ea (address of instruction *after*
         * the one where the exception occured) into 72(sp). The actual
         * instruction that caused the exception is written in r2, which these
         * handlers will utilize.
         */
        stw ea, 72(sp) /* EA is PC+4 so will skip over instruction causing exception */
  98:	df401215 	stw	ea,72(sp)
.Lunknown_16bit:
        addi.n r4, r4, 2 /* Need PC+2 to skip over instruction causing exception */
        stw r4, 72(sp)

#else /* CDX is not Enabled and all instructions are 32bits */
        ldw r2, -4(ea) /* Instruction value that caused exception */
  9c:	e8bfff17 	ldw	r2,-4(ea)
         * debugger is present) or go into an infinite loop since the
         * handling behavior is undefined; in that case we will not return here.
         */

        /* Load exception-causing address as first argument (r4) */
        addi   r4, ea, -4
  a0:	e93fff04 	addi	r4,ea,-4

        /* Call the instruction-exception entry */
        call   alt_instruction_exception_entry
  a4:	00001d00 	call	1d0 <alt_instruction_exception_entry>
         * instruction
         *
         * Return code was 0: Skip. The instruction after the exception is
         * already stored in 72(sp).
         */
        bne   r2, r0, .Lexception_exit
  a8:	1000021e 	bne	r2,zero,b4 <alt_exception+0x94>

        /*
         * Otherwise, modify 72(sp) to re-issue the instruction that caused the
         * exception.
         */
        addi  r15, ea, -4  /* instruction that caused exception */
  ac:	ebffff04 	addi	r15,ea,-4
        stw   r15,  72(sp)
  b0:	dbc01215 	stw	r15,72(sp)
        /* 
         * Restore the saved registers, so that all general purpose registers 
         * have been restored to their state at the time the interrupt occured.
         */

        ldw   r5,  68(sp)
  b4:	d9401117 	ldw	r5,68(sp)
        ldw   ea,  72(sp)  /* This becomes the PC once eret is executed */
  b8:	df401217 	ldw	ea,72(sp)
        ldw   ra,   0(sp)
  bc:	dfc00017 	ldw	ra,0(sp)

        wrctl estatus, r5
  c0:	2801707a 	wrctl	estatus,r5

        ldw   r1,   8(sp)
  c4:	d8400217 	ldw	at,8(sp)
        ldw   r2,  12(sp)
  c8:	d8800317 	ldw	r2,12(sp)
        ldw   r3,  16(sp)
  cc:	d8c00417 	ldw	r3,16(sp)
        ldw   r4,  20(sp)
  d0:	d9000517 	ldw	r4,20(sp)
        ldw   r5,  24(sp)
  d4:	d9400617 	ldw	r5,24(sp)
        ldw   r6,  28(sp)
  d8:	d9800717 	ldw	r6,28(sp)
        ldw   r7,  32(sp)
  dc:	d9c00817 	ldw	r7,32(sp)

#if defined(ALT_EXCEPTION_STACK) && defined(ALT_STACK_CHECK)
        ldw   et, %gprel(alt_exception_old_stack_limit)(gp)
#endif

        ldw   r8,  36(sp)
  e0:	da000917 	ldw	r8,36(sp)
        ldw   r9,  40(sp)
  e4:	da400a17 	ldw	r9,40(sp)
        ldw   r10, 44(sp)
  e8:	da800b17 	ldw	r10,44(sp)
        ldw   r11, 48(sp)
  ec:	dac00c17 	ldw	r11,48(sp)
        ldw   r12, 52(sp)
  f0:	db000d17 	ldw	r12,52(sp)
        ldw   r13, 56(sp)
  f4:	db400e17 	ldw	r13,56(sp)
        ldw   r14, 60(sp)
  f8:	db800f17 	ldw	r14,60(sp)
        ldw   r15, 64(sp)
  fc:	dbc01017 	ldw	r15,64(sp)
#ifdef ALT_EXCEPTION_STACK
#ifdef ALT_STACK_CHECK
        stw   et, %gprel(alt_stack_limit_value)(gp)
        stw   zero, %gprel(alt_exception_old_stack_limit)(gp)
#endif /* ALT_STACK_CHECK */
        ldw   sp,  76(sp)
 100:	dec01317 	ldw	sp,76(sp)

        /*
         * Return to the interrupted instruction.
         */

        eret
 104:	ef80083a 	eret

00000108 <alt_irq_handler>:
 * instruction is present if the macro ALT_CI_INTERRUPT_VECTOR defined.
 */

void alt_irq_handler (void) __attribute__ ((section (".exceptions")));
void alt_irq_handler (void)
{
 108:	defff904 	addi	sp,sp,-28
 10c:	dfc00615 	stw	ra,24(sp)
 110:	df000515 	stw	fp,20(sp)
 114:	df000504 	addi	fp,sp,20
  
  /*
   * Notify the operating system that we are at interrupt level.
   */ 
  
  ALT_OS_INT_ENTER();
 118:	0001883a 	nop
#ifndef NIOS2_EIC_PRESENT
static ALT_INLINE alt_u32 ALT_ALWAYS_INLINE alt_irq_pending (void)
{
  alt_u32 active;

  NIOS2_READ_IPENDING (active);
 11c:	0005313a 	rdctl	r2,ipending
 120:	e0bffc15 	stw	r2,-16(fp)

  return active;
 124:	e0bffc17 	ldw	r2,-16(fp)
   * Consider the case where the high priority interupt is asserted during
   * the interrupt entry sequence for a lower priority interrupt to see why
   * this is the case.
   */

  active = alt_irq_pending ();
 128:	e0bfff15 	stw	r2,-4(fp)

  do
  {
    i = 0;
 12c:	e03ffd15 	stw	zero,-12(fp)
    mask = 1;
 130:	00800044 	movi	r2,1
 134:	e0bffe15 	stw	r2,-8(fp)
     * called to clear the interrupt condition.
     */

    do
    {
      if (active & mask)
 138:	e0ffff17 	ldw	r3,-4(fp)
 13c:	e0bffe17 	ldw	r2,-8(fp)
 140:	1884703a 	and	r2,r3,r2
 144:	10001126 	beq	r2,zero,18c <alt_irq_handler+0x84>
      { 
#ifdef ALT_ENHANCED_INTERRUPT_API_PRESENT
        alt_irq[i].handler(alt_irq[i].context); 
 148:	e0bffd17 	ldw	r2,-12(fp)
 14c:	100690fa 	slli	r3,r2,3
 150:	008202b4 	movhi	r2,2058
 154:	1885883a 	add	r2,r3,r2
 158:	10cd2c17 	ldw	r3,13488(r2)
 15c:	e0bffd17 	ldw	r2,-12(fp)
 160:	100890fa 	slli	r4,r2,3
 164:	008202b4 	movhi	r2,2058
 168:	2085883a 	add	r2,r4,r2
 16c:	108d2d17 	ldw	r2,13492(r2)
 170:	1009883a 	mov	r4,r2
 174:	183ee83a 	callr	r3
#else
        alt_irq[i].handler(alt_irq[i].context, i); 
#endif
        break;
 178:	0001883a 	nop
  NIOS2_READ_IPENDING (active);
 17c:	0005313a 	rdctl	r2,ipending
 180:	e0bffb15 	stw	r2,-20(fp)
  return active;
 184:	e0bffb17 	ldw	r2,-20(fp)
 188:	00000706 	br	1a8 <alt_irq_handler+0xa0>
      }
      mask <<= 1;
 18c:	e0bffe17 	ldw	r2,-8(fp)
 190:	1085883a 	add	r2,r2,r2
 194:	e0bffe15 	stw	r2,-8(fp)
      i++;
 198:	e0bffd17 	ldw	r2,-12(fp)
 19c:	10800044 	addi	r2,r2,1
 1a0:	e0bffd15 	stw	r2,-12(fp)
      if (active & mask)
 1a4:	003fe406 	br	138 <__alt_mem_mcu_subsystem_ram_0+0x77fe0138>

    } while (1);

    active = alt_irq_pending ();
 1a8:	e0bfff15 	stw	r2,-4(fp)
    
  } while (active);
 1ac:	e0bfff17 	ldw	r2,-4(fp)
 1b0:	103fde1e 	bne	r2,zero,12c <__alt_mem_mcu_subsystem_ram_0+0x77fe012c>

  /*
   * Notify the operating system that interrupt processing is complete.
   */ 

  ALT_OS_INT_EXIT();
 1b4:	0001883a 	nop
}
 1b8:	0001883a 	nop
 1bc:	e037883a 	mov	sp,fp
 1c0:	dfc00117 	ldw	ra,4(sp)
 1c4:	df000017 	ldw	fp,0(sp)
 1c8:	dec00204 	addi	sp,sp,8
 1cc:	f800283a 	ret

000001d0 <alt_instruction_exception_entry>:
 * that handler if it has been registered. Absent a handler, it will
 * break break or hang as discussed below.
 */
int 
alt_instruction_exception_entry (alt_u32 exception_pc)
{
 1d0:	defffb04 	addi	sp,sp,-20
 1d4:	dfc00415 	stw	ra,16(sp)
 1d8:	df000315 	stw	fp,12(sp)
 1dc:	df000304 	addi	fp,sp,12
 1e0:	e13ffd15 	stw	r4,-12(fp)
 * NIOS2_EXCEPTION_CAUSE_NOT_PRESENT. Your handling routine should
 * check the validity of the cause argument before proceeding.
 */
#ifdef NIOS2_HAS_EXTRA_EXCEPTION_INFO
  /* Get exception cause & "badaddr" */
  NIOS2_READ_EXCEPTION(cause);
 1e4:	000531fa 	rdctl	r2,exception
 1e8:	e0bfff15 	stw	r2,-4(fp)
  cause = ( (cause & NIOS2_EXCEPTION_REG_CAUSE_MASK) >>
 1ec:	e0bfff17 	ldw	r2,-4(fp)
 1f0:	1004d0ba 	srli	r2,r2,2
 1f4:	108007cc 	andi	r2,r2,31
 1f8:	e0bfff15 	stw	r2,-4(fp)
              NIOS2_EXCEPTION_REG_CAUSE_OFST );

  NIOS2_READ_BADADDR(badaddr);
 1fc:	0005333a 	rdctl	r2,badaddr
 200:	e0bffe15 	stw	r2,-8(fp)
#else
  cause = NIOS2_EXCEPTION_CAUSE_NOT_PRESENT;
  badaddr = 0;
#endif /* NIOS2_HAS_EXTRA_EXCEPTION_INFO */

  if(alt_instruction_exception_handler) {
 204:	d0a7b717 	ldw	r2,-24868(gp)
 208:	10000726 	beq	r2,zero,228 <alt_instruction_exception_entry+0x58>
     * Call handler. Its return value indicates whether the exception-causing
     * instruction should be re-issued. The code that called us,
     * alt_eceptions_entry.S, will look at this value and adjust the ea
     * register as necessary
     */
    return alt_instruction_exception_handler(cause, exception_pc, badaddr);
 20c:	d0a7b717 	ldw	r2,-24868(gp)
 210:	e0ffff17 	ldw	r3,-4(fp)
 214:	e1bffe17 	ldw	r6,-8(fp)
 218:	e17ffd17 	ldw	r5,-12(fp)
 21c:	1809883a 	mov	r4,r3
 220:	103ee83a 	callr	r2
 224:	00000206 	br	230 <alt_instruction_exception_entry+0x60>
   *    (a peripheral which negates its interrupt output before its
   *    interrupt handler has been executed will cause spurious interrupts)
   */
  else {
#ifdef NIOS2_HAS_DEBUG_STUB
    NIOS2_BREAK();
 228:	003da03a 	break	0
      ;
#endif /* NIOS2_HAS_DEBUG_STUB */
  }

  /* We should not get here. Remove compiler warning. */
  return NIOS2_EXCEPTION_RETURN_REISSUE_INST;
 22c:	0005883a 	mov	r2,zero
}
 230:	e037883a 	mov	sp,fp
 234:	dfc00117 	ldw	ra,4(sp)
 238:	df000017 	ldw	fp,0(sp)
 23c:	dec00204 	addi	sp,sp,8
 240:	f800283a 	ret

Disassembly of section .text:

00000244 <_start>:

    /* Assume the data cache size is always a power of two. */
#if NIOS2_DCACHE_SIZE > 0x8000
    movhi r2, %hi(NIOS2_DCACHE_SIZE)
#else
    movui r2, NIOS2_DCACHE_SIZE
     244:	00820014 	movui	r2,2048
#endif

0:
    initd 0(r2)
     248:	10000033 	initd	0(r2)
#ifdef NIOS2_ECC_PRESENT
    addi r2, r2, -4
#else
    addi r2, r2, -NIOS2_DCACHE_LINE_SIZE
     24c:	10bff804 	addi	r2,r2,-32
#endif
    bgt r2, zero, 0b
     250:	00bffd16 	blt	zero,r2,248 <__alt_mem_mcu_subsystem_ram_0+0x77fe0248>

    /*
     * Now that the caches are initialized, set up the stack pointer and global pointer.
     * The values provided by the linker are assumed to be correctly aligned.
     */
    movhi sp, %hi(__alt_stack_pointer)
     254:	06dfffb4 	movhi	sp,32766
    ori sp, sp, %lo(__alt_stack_pointer)
     258:	dec00014 	ori	sp,sp,0
    movhi gp, %hi(_gp)
     25c:	068000f4 	movhi	gp,3
    ori gp, gp, %lo(_gp)
     260:	d6be6514 	ori	gp,gp,63892
 */
#ifndef ALT_SIM_OPTIMIZE
    /* Log that the BSS is about to be cleared. */
    ALT_LOG_PUTS(alt_log_msg_bss)

    movhi r2, %hi(__bss_start)
     264:	008000f4 	movhi	r2,3
    ori r2, r2, %lo(__bss_start)
     268:	10a60c14 	ori	r2,r2,38960

    movhi r3, %hi(__bss_end)
     26c:	00c202b4 	movhi	r3,2058
    ori r3, r3, %lo(__bss_end)
     270:	18cd7c14 	ori	r3,r3,13808

    beq r2, r3, 1f
     274:	10c00326 	beq	r2,r3,284 <_start+0x40>

0:
    stw zero, (r2)
     278:	10000015 	stw	zero,0(r2)
    addi r2, r2, 4
     27c:	10800104 	addi	r2,r2,4
    bltu r2, r3, 0b
     280:	10fffd36 	bltu	r2,r3,278 <__alt_mem_mcu_subsystem_ram_0+0x77fe0278>
     * section aren't defined until alt_load() has been called).
     */
    mov   et, zero
#endif

    call alt_load
     284:	002574c0 	call	2574c <alt_load>

    /* Log that alt_main is about to be called. */
    ALT_LOG_PUTS(alt_log_msg_alt_main)

    /* Call the C entry point. It should never return. */
    call alt_main
     288:	00258e00 	call	258e0 <alt_main>

0000028c <alt_after_alt_main>:

    /* Wait in infinite loop in case alt_main does return. */
alt_after_alt_main:
    br alt_after_alt_main
     28c:	003fff06 	br	28c <__alt_mem_mcu_subsystem_ram_0+0x77fe028c>

00000290 <fcs_crc32>:
#include "crc.h"


// used for calculating checksum in ethernet frame
uint32_t fcs_crc32(uint8_t *buffer, uint16_t size)
{
     290:	defff804 	addi	sp,sp,-32
     294:	df000715 	stw	fp,28(sp)
     298:	df000704 	addi	fp,sp,28
     29c:	e13ffa15 	stw	r4,-24(fp)
     2a0:	2805883a 	mov	r2,r5
     2a4:	e0bff90d 	sth	r2,-28(fp)
   uint32_t byte, crc = 0xFFFFFFFF, mask = 0xFFFFFFFF;
     2a8:	00bfffc4 	movi	r2,-1
     2ac:	e0bfff15 	stw	r2,-4(fp)
     2b0:	00bfffc4 	movi	r2,-1
     2b4:	e0bffc15 	stw	r2,-16(fp)
   int i = 0, j;
     2b8:	e03ffe15 	stw	zero,-8(fp)
   while (i < size)
     2bc:	00002106 	br	344 <fcs_crc32+0xb4>
   {
      byte = buffer[i];
     2c0:	e0bffe17 	ldw	r2,-8(fp)
     2c4:	e0fffa17 	ldw	r3,-24(fp)
     2c8:	1885883a 	add	r2,r3,r2
     2cc:	10800003 	ldbu	r2,0(r2)
     2d0:	10803fcc 	andi	r2,r2,255
     2d4:	e0bffb15 	stw	r2,-20(fp)
      crc = crc ^ byte;
     2d8:	e0ffff17 	ldw	r3,-4(fp)
     2dc:	e0bffb17 	ldw	r2,-20(fp)
     2e0:	1884f03a 	xor	r2,r3,r2
     2e4:	e0bfff15 	stw	r2,-4(fp)
      for (j = 7; j >= 0; j--)
     2e8:	008001c4 	movi	r2,7
     2ec:	e0bffd15 	stw	r2,-12(fp)
     2f0:	00000f06 	br	330 <fcs_crc32+0xa0>
      {
         mask = (uint32_t)(-((int)(crc & (uint32_t)0x1)));
     2f4:	e0bfff17 	ldw	r2,-4(fp)
     2f8:	1080004c 	andi	r2,r2,1
     2fc:	0085c83a 	sub	r2,zero,r2
     300:	e0bffc15 	stw	r2,-16(fp)
         crc = (crc >> 1) ^ (0xEDB88320 & mask);
     304:	e0bfff17 	ldw	r2,-4(fp)
     308:	1006d07a 	srli	r3,r2,1
     30c:	e13ffc17 	ldw	r4,-16(fp)
     310:	00bb6e74 	movhi	r2,60857
     314:	10a0c804 	addi	r2,r2,-31968
     318:	2084703a 	and	r2,r4,r2
     31c:	1884f03a 	xor	r2,r3,r2
     320:	e0bfff15 	stw	r2,-4(fp)
      for (j = 7; j >= 0; j--)
     324:	e0bffd17 	ldw	r2,-12(fp)
     328:	10bfffc4 	addi	r2,r2,-1
     32c:	e0bffd15 	stw	r2,-12(fp)
     330:	e0bffd17 	ldw	r2,-12(fp)
     334:	103fef0e 	bge	r2,zero,2f4 <__alt_mem_mcu_subsystem_ram_0+0x77fe02f4>
      }
      i++;
     338:	e0bffe17 	ldw	r2,-8(fp)
     33c:	10800044 	addi	r2,r2,1
     340:	e0bffe15 	stw	r2,-8(fp)
   while (i < size)
     344:	e0bff90b 	ldhu	r2,-28(fp)
     348:	e0fffe17 	ldw	r3,-8(fp)
     34c:	18bfdc16 	blt	r3,r2,2c0 <__alt_mem_mcu_subsystem_ram_0+0x77fe02c0>
   }
   return ~crc;
     350:	e0bfff17 	ldw	r2,-4(fp)
     354:	0084303a 	nor	r2,zero,r2
}
     358:	e037883a 	mov	sp,fp
     35c:	df000017 	ldw	fp,0(sp)
     360:	dec00104 	addi	sp,sp,4
     364:	f800283a 	ret

00000368 <swap16>:
#include "iioscope.h"

static network_ctx_t network_ctx __attribute__((aligned (4)));

uint16_t swap16(uint16_t value)
{
     368:	defffe04 	addi	sp,sp,-8
     36c:	df000115 	stw	fp,4(sp)
     370:	df000104 	addi	fp,sp,4
     374:	2005883a 	mov	r2,r4
     378:	e0bfff0d 	sth	r2,-4(fp)
   return ((value >> 8) | (value << 8));
     37c:	e0bfff0b 	ldhu	r2,-4(fp)
     380:	1004d23a 	srli	r2,r2,8
     384:	1007883a 	mov	r3,r2
     388:	e0bfff0b 	ldhu	r2,-4(fp)
     38c:	1004923a 	slli	r2,r2,8
     390:	1884b03a 	or	r2,r3,r2
}
     394:	e037883a 	mov	sp,fp
     398:	df000017 	ldw	fp,0(sp)
     39c:	dec00104 	addi	sp,sp,4
     3a0:	f800283a 	ret

000003a4 <swap32>:

uint32_t swap32(uint32_t value)
{
     3a4:	defffe04 	addi	sp,sp,-8
     3a8:	df000115 	stw	fp,4(sp)
     3ac:	df000104 	addi	fp,sp,4
     3b0:	e13fff15 	stw	r4,-4(fp)
   // inp: d3 d2 d1 d0
   // out: d0 d1 d2 d3
   return ((value << 24) & (0xff000000)) | ((value << 8) & 0x00ff0000) | ((value > 8) & 0x0000ff00) | ((value >> 24) & 0x000000ff);
     3b4:	e0bfff17 	ldw	r2,-4(fp)
     3b8:	1006963a 	slli	r3,r2,24
     3bc:	e0bfff17 	ldw	r2,-4(fp)
     3c0:	1004923a 	slli	r2,r2,8
     3c4:	10803fec 	andhi	r2,r2,255
     3c8:	1886b03a 	or	r3,r3,r2
     3cc:	e0bfff17 	ldw	r2,-4(fp)
     3d0:	1004d63a 	srli	r2,r2,24
     3d4:	1884b03a 	or	r2,r3,r2
}
     3d8:	e037883a 	mov	sp,fp
     3dc:	df000017 	ldw	fp,0(sp)
     3e0:	dec00104 	addi	sp,sp,4
     3e4:	f800283a 	ret

000003e8 <tse_mmd_writereg>:

//alt_sgdma_descriptor eth1_rx_descriptor;


void tse_mmd_writereg(np_tse_mac *pmac, alt_u32 mdio, alt_u32 mmd_addr, alt_u32 mmd_reg, alt_u32 mmd_value)
{
     3e8:	defffb04 	addi	sp,sp,-20
     3ec:	df000415 	stw	fp,16(sp)
     3f0:	df000404 	addi	fp,sp,16
     3f4:	e13fff15 	stw	r4,-4(fp)
     3f8:	e17ffe15 	stw	r5,-8(fp)
     3fc:	e1bffd15 	stw	r6,-12(fp)
     400:	e1fffc15 	stw	r7,-16(fp)
   IOWR_ALTERA_TSEMAC_MDIO(pmac, mdio, 0x0d, mmd_addr);
     404:	e0bffe17 	ldw	r2,-8(fp)
     408:	100491fa 	slli	r2,r2,7
     40c:	10808d04 	addi	r2,r2,564
     410:	e0ffff17 	ldw	r3,-4(fp)
     414:	1885883a 	add	r2,r3,r2
     418:	e0fffd17 	ldw	r3,-12(fp)
     41c:	10c0002d 	sthio	r3,0(r2)
   IOWR_ALTERA_TSEMAC_MDIO(pmac, mdio, 0x0e, mmd_reg);
     420:	e0bffe17 	ldw	r2,-8(fp)
     424:	100491fa 	slli	r2,r2,7
     428:	10808e04 	addi	r2,r2,568
     42c:	e0ffff17 	ldw	r3,-4(fp)
     430:	1885883a 	add	r2,r3,r2
     434:	e0fffc17 	ldw	r3,-16(fp)
     438:	10c0002d 	sthio	r3,0(r2)
   IOWR_ALTERA_TSEMAC_MDIO(pmac, mdio, 0x0d, mmd_addr | 0x4000);
     43c:	e0bffe17 	ldw	r2,-8(fp)
     440:	100491fa 	slli	r2,r2,7
     444:	10808d04 	addi	r2,r2,564
     448:	e0ffff17 	ldw	r3,-4(fp)
     44c:	1885883a 	add	r2,r3,r2
     450:	e0fffd17 	ldw	r3,-12(fp)
     454:	18d00014 	ori	r3,r3,16384
     458:	10c0002d 	sthio	r3,0(r2)
   IOWR_ALTERA_TSEMAC_MDIO(pmac, mdio, 0x0e, 0x0001);
     45c:	e0bffe17 	ldw	r2,-8(fp)
     460:	100491fa 	slli	r2,r2,7
     464:	10808e04 	addi	r2,r2,568
     468:	e0ffff17 	ldw	r3,-4(fp)
     46c:	1885883a 	add	r2,r3,r2
     470:	00c00044 	movi	r3,1
     474:	10c0002d 	sthio	r3,0(r2)
}
     478:	0001883a 	nop
     47c:	e037883a 	mov	sp,fp
     480:	df000017 	ldw	fp,0(sp)
     484:	dec00104 	addi	sp,sp,4
     488:	f800283a 	ret

0000048c <tse_mmd_readreg>:

uint32_t tse_mmd_readreg(np_tse_mac *pmac, alt_u32 mdio, alt_u32 mmd_addr, alt_u32 mmd_reg)
{
     48c:	defffa04 	addi	sp,sp,-24
     490:	df000515 	stw	fp,20(sp)
     494:	df000504 	addi	fp,sp,20
     498:	e13ffe15 	stw	r4,-8(fp)
     49c:	e17ffd15 	stw	r5,-12(fp)
     4a0:	e1bffc15 	stw	r6,-16(fp)
     4a4:	e1fffb15 	stw	r7,-20(fp)
   uint32_t result;

   IOWR_ALTERA_TSEMAC_MDIO(pmac, mdio, 0x0d, mmd_addr);
     4a8:	e0bffd17 	ldw	r2,-12(fp)
     4ac:	100491fa 	slli	r2,r2,7
     4b0:	10808d04 	addi	r2,r2,564
     4b4:	e0fffe17 	ldw	r3,-8(fp)
     4b8:	1885883a 	add	r2,r3,r2
     4bc:	e0fffc17 	ldw	r3,-16(fp)
     4c0:	10c0002d 	sthio	r3,0(r2)
   IOWR_ALTERA_TSEMAC_MDIO(pmac, mdio, 0x0e, mmd_reg);
     4c4:	e0bffd17 	ldw	r2,-12(fp)
     4c8:	100491fa 	slli	r2,r2,7
     4cc:	10808e04 	addi	r2,r2,568
     4d0:	e0fffe17 	ldw	r3,-8(fp)
     4d4:	1885883a 	add	r2,r3,r2
     4d8:	e0fffb17 	ldw	r3,-20(fp)
     4dc:	10c0002d 	sthio	r3,0(r2)
   IOWR_ALTERA_TSEMAC_MDIO(pmac, mdio, 0x0d, mmd_addr | 0x8000);
     4e0:	e0bffd17 	ldw	r2,-12(fp)
     4e4:	100491fa 	slli	r2,r2,7
     4e8:	10808d04 	addi	r2,r2,564
     4ec:	e0fffe17 	ldw	r3,-8(fp)
     4f0:	1885883a 	add	r2,r3,r2
     4f4:	e0fffc17 	ldw	r3,-16(fp)
     4f8:	18e00014 	ori	r3,r3,32768
     4fc:	10c0002d 	sthio	r3,0(r2)
   result = IORD_ALTERA_TSEMAC_MDIO(pmac, mdio, 0x0e);
     500:	e0bffd17 	ldw	r2,-12(fp)
     504:	100491fa 	slli	r2,r2,7
     508:	10808e04 	addi	r2,r2,568
     50c:	e0fffe17 	ldw	r3,-8(fp)
     510:	1885883a 	add	r2,r3,r2
     514:	1080002b 	ldhuio	r2,0(r2)
     518:	10bfffcc 	andi	r2,r2,65535
     51c:	e0bfff15 	stw	r2,-4(fp)


   return result;
     520:	e0bfff17 	ldw	r2,-4(fp)
}
     524:	e037883a 	mov	sp,fp
     528:	df000017 	ldw	fp,0(sp)
     52c:	dec00104 	addi	sp,sp,4
     530:	f800283a 	ret

00000534 <phy_ethernet_reset>:


void phy_ethernet_reset(uint32_t reset)
{
     534:	defffc04 	addi	sp,sp,-16
     538:	dfc00315 	stw	ra,12(sp)
     53c:	df000215 	stw	fp,8(sp)
     540:	df000204 	addi	fp,sp,8
     544:	e13ffe15 	stw	r4,-8(fp)
   uint32_t direction = IORD_ALTERA_AVALON_PIO_DIRECTION(GPIO_BASE);
     548:	00a20234 	movhi	r2,34824
     54c:	10a64937 	ldwio	r2,-26332(r2)
     550:	e0bfff15 	stw	r2,-4(fp)
   IOWR_ALTERA_AVALON_PIO_DIRECTION(GPIO_BASE, direction | (1<<31));
     554:	e0bfff17 	ldw	r2,-4(fp)
     558:	10a00034 	orhi	r2,r2,32768
     55c:	1007883a 	mov	r3,r2
     560:	00a20234 	movhi	r2,34824
     564:	10e64935 	stwio	r3,-26332(r2)

   if(reset == 0)
     568:	e0bffe17 	ldw	r2,-8(fp)
     56c:	1000061e 	bne	r2,zero,588 <phy_ethernet_reset+0x54>
   {
      IOWR_ALTERA_AVALON_PIO_SET_BITS(GPIO_BASE, (1<<31));
     570:	00e00034 	movhi	r3,32768
     574:	00a20234 	movhi	r2,34824
     578:	10e64c35 	stwio	r3,-26320(r2)
      usleep(1000); // 10ms
     57c:	0100fa04 	movi	r4,1000
     580:	0025e400 	call	25e40 <usleep>
   else
   {
      usleep(1000); // 10ms
      IOWR_ALTERA_AVALON_PIO_CLEAR_BITS(GPIO_BASE, (1<<31));
   }
}
     584:	00000506 	br	59c <phy_ethernet_reset+0x68>
      usleep(1000); // 10ms
     588:	0100fa04 	movi	r4,1000
     58c:	0025e400 	call	25e40 <usleep>
      IOWR_ALTERA_AVALON_PIO_CLEAR_BITS(GPIO_BASE, (1<<31));
     590:	00e00034 	movhi	r3,32768
     594:	00a20234 	movhi	r2,34824
     598:	10e64d35 	stwio	r3,-26316(r2)
}
     59c:	0001883a 	nop
     5a0:	e037883a 	mov	sp,fp
     5a4:	dfc00117 	ldw	ra,4(sp)
     5a8:	df000017 	ldw	fp,0(sp)
     5ac:	dec00204 	addi	sp,sp,8
     5b0:	f800283a 	ret

000005b4 <link_status_read>:
  * |    1  | 1: 1000 Mbps link                                                      |
  * |    0  | 1: Full Duplex                    0: Half Duplex                       |
  * ----------------------------------------------------------------------------------
  */
static alt_u32 link_status_read(np_tse_mac *pmac)
{
     5b4:	defffc04 	addi	sp,sp,-16
     5b8:	df000315 	stw	fp,12(sp)
     5bc:	df000304 	addi	fp,sp,12
     5c0:	e13ffd15 	stw	r4,-12(fp)
   alt_u32 result = 0;
     5c4:	e03fff15 	stw	zero,-4(fp)
   alt_u32 status;

   status = IORD(&pmac->mdio0, 1);
     5c8:	e0bffd17 	ldw	r2,-12(fp)
     5cc:	10808004 	addi	r2,r2,512
     5d0:	10800104 	addi	r2,r2,4
     5d4:	10800037 	ldwio	r2,0(r2)
     5d8:	e0bffe15 	stw	r2,-8(fp)
   if(status == 0xffff)
     5dc:	e0fffe17 	ldw	r3,-8(fp)
     5e0:	00bfffd4 	movui	r2,65535
     5e4:	1880031e 	bne	r3,r2,5f4 <link_status_read+0x40>
   {
      result = (1 << 16);
     5e8:	00800074 	movhi	r2,1
     5ec:	e0bfff15 	stw	r2,-4(fp)
     5f0:	00001e06 	br	66c <link_status_read+0xb8>
   }
   else
   {
      result |= ((result & (1<<8)) == (1<<8)) ? (1<<0) : 0x00000000;
     5f4:	e0bfff17 	ldw	r2,-4(fp)
     5f8:	1004d23a 	srli	r2,r2,8
     5fc:	1080004c 	andi	r2,r2,1
     600:	e0ffff17 	ldw	r3,-4(fp)
     604:	1884b03a 	or	r2,r3,r2
     608:	e0bfff15 	stw	r2,-4(fp)

      switch(((result >> 13) | (result >> 5)) & 0x3)
     60c:	e0bfff17 	ldw	r2,-4(fp)
     610:	1006d37a 	srli	r3,r2,13
     614:	e0bfff17 	ldw	r2,-4(fp)
     618:	1004d17a 	srli	r2,r2,5
     61c:	1884b03a 	or	r2,r3,r2
     620:	108000cc 	andi	r2,r2,3
     624:	10c00060 	cmpeqi	r3,r2,1
     628:	1800081e 	bne	r3,zero,64c <link_status_read+0x98>
     62c:	0080032e 	bgeu	zero,r2,63c <link_status_read+0x88>
     630:	108000a0 	cmpeqi	r2,r2,2
     634:	1000091e 	bne	r2,zero,65c <link_status_read+0xa8>
     638:	00000c06 	br	66c <link_status_read+0xb8>
      {
         case 0x00:
            result |= (1<<3);
     63c:	e0bfff17 	ldw	r2,-4(fp)
     640:	10800214 	ori	r2,r2,8
     644:	e0bfff15 	stw	r2,-4(fp)
            break;
     648:	00000806 	br	66c <link_status_read+0xb8>
         case 0x01:
            result |= (1<<2);
     64c:	e0bfff17 	ldw	r2,-4(fp)
     650:	10800114 	ori	r2,r2,4
     654:	e0bfff15 	stw	r2,-4(fp)
            break;
     658:	00000406 	br	66c <link_status_read+0xb8>
         case 0x02:
            result |= (1<<1);
     65c:	e0bfff17 	ldw	r2,-4(fp)
     660:	10800094 	ori	r2,r2,2
     664:	e0bfff15 	stw	r2,-4(fp)
            break;
     668:	0001883a 	nop
      }

   }
   return result;
     66c:	e0bfff17 	ldw	r2,-4(fp)
}
     670:	e037883a 	mov	sp,fp
     674:	df000017 	ldw	fp,0(sp)
     678:	dec00104 	addi	sp,sp,4
     67c:	f800283a 	ret

00000680 <phy_cfg>:

alt_32 phy_cfg(np_tse_mac *pmac)
{
     680:	defffc04 	addi	sp,sp,-16
     684:	dfc00315 	stw	ra,12(sp)
     688:	df000215 	stw	fp,8(sp)
     68c:	df000204 	addi	fp,sp,8
     690:	e13ffe15 	stw	r4,-8(fp)
   alt_32 result = 0;
     694:	e03fff15 	stw	zero,-4(fp)

   result = IORD(&pmac->mdio0, 1);
     698:	e0bffe17 	ldw	r2,-8(fp)
     69c:	10808004 	addi	r2,r2,512
     6a0:	10800104 	addi	r2,r2,4
     6a4:	10800037 	ldwio	r2,0(r2)
     6a8:	e0bfff15 	stw	r2,-4(fp)
   result |= 0x00000001;
     6ac:	e0bfff17 	ldw	r2,-4(fp)
     6b0:	10800054 	ori	r2,r2,1
     6b4:	e0bfff15 	stw	r2,-4(fp)
   IOWR(&pmac->mdio0, 1, result);
     6b8:	e0bffe17 	ldw	r2,-8(fp)
     6bc:	10808004 	addi	r2,r2,512
     6c0:	10800104 	addi	r2,r2,4
     6c4:	e0ffff17 	ldw	r3,-4(fp)
     6c8:	10c00035 	stwio	r3,0(r2)
   usleep(10000);
     6cc:	0109c404 	movi	r4,10000
     6d0:	0025e400 	call	25e40 <usleep>
   result &= (~0x00000001);
     6d4:	e0ffff17 	ldw	r3,-4(fp)
     6d8:	00bfff84 	movi	r2,-2
     6dc:	1884703a 	and	r2,r3,r2
     6e0:	e0bfff15 	stw	r2,-4(fp)
   IOWR(&pmac->mdio0, 1, result);
     6e4:	e0bffe17 	ldw	r2,-8(fp)
     6e8:	10808004 	addi	r2,r2,512
     6ec:	10800104 	addi	r2,r2,4
     6f0:	e0ffff17 	ldw	r3,-4(fp)
     6f4:	10c00035 	stwio	r3,0(r2)

   return result;
     6f8:	e0bfff17 	ldw	r2,-4(fp)
}
     6fc:	e037883a 	mov	sp,fp
     700:	dfc00117 	ldw	ra,4(sp)
     704:	df000017 	ldw	fp,0(sp)
     708:	dec00204 	addi	sp,sp,8
     70c:	f800283a 	ret

00000710 <hw_ethernet_reset>:

void hw_ethernet_reset(void)
{
     710:	deffe604 	addi	sp,sp,-104
     714:	df001915 	stw	fp,100(sp)
     718:	df001904 	addi	fp,sp,100
   alt_tse_phy_profile profile;

   sprintf(profile.name, "%s", "Microchip KSZ9031MNX");
     71c:	e0bfe704 	addi	r2,fp,-100
     720:	00dc98f4 	movhi	r3,29283
     724:	18da5344 	addi	r3,r3,26957
     728:	10c00015 	stw	r3,0(r2)
     72c:	00da5a34 	movhi	r3,26984
     730:	18d8dbc4 	addi	r3,r3,25455
     734:	10c00115 	stw	r3,4(r2)
     738:	00d4d2f4 	movhi	r3,21323
     73c:	18c81c04 	addi	r3,r3,8304
     740:	10c00215 	stw	r3,8(r2)
     744:	00cccc34 	movhi	r3,13104
     748:	18ce5684 	addi	r3,r3,14682
     74c:	10c00315 	stw	r3,12(r2)
     750:	00d613b4 	movhi	r3,22606
     754:	18d34c44 	addi	r3,r3,19761
     758:	10c00415 	stw	r3,16(r2)
     75c:	10000505 	stb	zero,20(r2)
   profile.model_number = 1;
     760:	00800044 	movi	r2,1
     764:	e0bffc05 	stb	r2,-16(fp)
   profile.revision_number = 2;
     768:	00800084 	movi	r2,2
     76c:	e0bffc45 	stb	r2,-15(fp)
   profile.link_status_read = link_status_read;
     770:	00800034 	movhi	r2,0
     774:	10816d04 	addi	r2,r2,1460
     778:	e0bfff15 	stw	r2,-4(fp)
   profile.phy_cfg = phy_cfg;
     77c:	00800034 	movhi	r2,0
     780:	1081a004 	addi	r2,r2,1664
     784:	e0bffe15 	stw	r2,-8(fp)
}
     788:	0001883a 	nop
     78c:	e037883a 	mov	sp,fp
     790:	df000017 	ldw	fp,0(sp)
     794:	dec00104 	addi	sp,sp,4
     798:	f800283a 	ret

0000079c <ethernet_configure>:

void ethernet_configure(uint32_t ctx)
{
     79c:	defffe04 	addi	sp,sp,-8
     7a0:	df000115 	stw	fp,4(sp)
     7a4:	df000104 	addi	fp,sp,4
     7a8:	e13fff15 	stw	r4,-4(fp)
   ctx->ethernet_straps[1].iso = 0;
   ctx->ethernet_straps[1].nand_tree = 0;
   ctx->ethernet_straps[1].phy_address = 0x00;
   ctx->ethernet_straps[1].speed = 1;
   */
}
     7ac:	0001883a 	nop
     7b0:	e037883a 	mov	sp,fp
     7b4:	df000017 	ldw	fp,0(sp)
     7b8:	dec00104 	addi	sp,sp,4
     7bc:	f800283a 	ret

000007c0 <tx_ethernet_isr>:

// Transmit Frame function: Here we have defined and initialized the transmit functions and used for transmission of data via 'tx_frame' function
void tx_ethernet_isr (void *context)
{
     7c0:	defffe04 	addi	sp,sp,-8
     7c4:	df000115 	stw	fp,4(sp)
     7c8:	df000104 	addi	fp,sp,4
     7cc:	e13fff15 	stw	r4,-4(fp)
      value = IORD_ALTERA_MSGDMA_CSR_CONTROL(net->dma_tx_dev->csr_base);
      value |= ALTERA_MSGDMA_CSR_STOP_DESCRIPTORS_MASK;
      IOWR_ALTERA_MSGDMA_CSR_CONTROL(net->dma_tx_dev->csr_base, value);
   }
   */
}
     7d0:	0001883a 	nop
     7d4:	e037883a 	mov	sp,fp
     7d8:	df000017 	ldw	fp,0(sp)
     7dc:	dec00104 	addi	sp,sp,4
     7e0:	f800283a 	ret

000007e4 <rx_ethernet_isr>:


//////////////////////////////////////////////////////////////////////////////////
// DMA RX ISR Receiver function
void rx_ethernet_isr (void *context)
{
     7e4:	defffe04 	addi	sp,sp,-8
     7e8:	df000115 	stw	fp,4(sp)
     7ec:	df000104 	addi	fp,sp,4
     7f0:	e13fff15 	stw	r4,-4(fp)
      }
      count--;
   }
   ctx->rx_descriptor_idx_wr = idx_wr;
   */
}
     7f4:	0001883a 	nop
     7f8:	e037883a 	mov	sp,fp
     7fc:	df000017 	ldw	fp,0(sp)
     800:	dec00104 	addi	sp,sp,4
     804:	f800283a 	ret

00000808 <rx_dma_rearm>:
//////////////////////////////////////////////////////////////////////////////////
uint32_t rx_dma_rearm(network_ctx_t *ctx)
{
     808:	defff304 	addi	sp,sp,-52
     80c:	dfc00c15 	stw	ra,48(sp)
     810:	df000b15 	stw	fp,44(sp)
     814:	df000b04 	addi	fp,sp,44
     818:	e13ff915 	stw	r4,-28(fp)
   uint32_t result = 0, counter = 0, status, limit, dma_rx_seq, idx_wr;
     81c:	e03ffb15 	stw	zero,-20(fp)
     820:	e03fff15 	stw	zero,-4(fp)
   uint32_t error, bytes;
   // check FIFO in MAC device, if not full then insert new descriptors
   status = IORD_ALTERA_MSGDMA_CSR_STATUS(ctx->dma_rx_dev->csr_base);
     824:	e0bff917 	ldw	r2,-28(fp)
     828:	10800517 	ldw	r2,20(r2)
     82c:	10800317 	ldw	r2,12(r2)
     830:	10800037 	ldwio	r2,0(r2)
     834:	e0bffa15 	stw	r2,-24(fp)
   if((status & ALTERA_MSGDMA_CSR_DESCRIPTOR_BUFFER_FULL_MASK) == 0x00)
     838:	e0bffa17 	ldw	r2,-24(fp)
     83c:	1080010c 	andi	r2,r2,4
     840:	1000651e 	bne	r2,zero,9d8 <rx_dma_rearm+0x1d0>
   {
      status = IORD_ALTERA_MSGDMA_CSR_WR_FILL_LEVEL(ctx->dma_rx_dev);
     844:	e0bff917 	ldw	r2,-28(fp)
     848:	10800517 	ldw	r2,20(r2)
     84c:	10800317 	ldw	r2,12(r2)
     850:	10800204 	addi	r2,r2,8
     854:	10800037 	ldwio	r2,0(r2)
     858:	e0bffa15 	stw	r2,-24(fp)
      status >>= 16;
     85c:	e0bffa17 	ldw	r2,-24(fp)
     860:	1004d43a 	srli	r2,r2,16
     864:	e0bffa15 	stw	r2,-24(fp)
      status &= 0x00000ff;
     868:	e0bffa17 	ldw	r2,-24(fp)
     86c:	10803fcc 	andi	r2,r2,255
     870:	e0bffa15 	stw	r2,-24(fp)

      // no of available space for new descriptors
      limit = ETHERNET_BUF_NUM - status - 1;
     874:	00c01fc4 	movi	r3,127
     878:	e0bffa17 	ldw	r2,-24(fp)
     87c:	1885c83a 	sub	r2,r3,r2
     880:	e0bffe15 	stw	r2,-8(fp)

      dma_rx_seq  = ctx->dma_rx_seq;
     884:	e0bff917 	ldw	r2,-28(fp)
     888:	10800617 	ldw	r2,24(r2)
     88c:	e0bffd15 	stw	r2,-12(fp)
      idx_wr      = ctx->rx_descriptor_idx_wr;
     890:	e0bff917 	ldw	r2,-28(fp)
     894:	10840917 	ldw	r2,4132(r2)
     898:	e0bffc15 	stw	r2,-16(fp)

      while(limit > 0)
     89c:	00004406 	br	9b0 <rx_dma_rearm+0x1a8>
      {
         result = alt_msgdma_construct_extended_st_to_mm_descriptor(
     8a0:	e0bff917 	ldw	r2,-28(fp)
     8a4:	11000517 	ldw	r4,20(r2)
     8a8:	e0bffc17 	ldw	r2,-16(fp)
     8ac:	10800044 	addi	r2,r2,1
     8b0:	1004917a 	slli	r2,r2,5
     8b4:	e0fff917 	ldw	r3,-28(fp)
     8b8:	188b883a 	add	r5,r3,r2
               ctx->dma_rx_dev,
               &(ctx->rx_descriptor[idx_wr]),
               (alt_u32*)(&(ctx->rx_frame[idx_wr * ETHERNET_BUF_SIZE])),
     8bc:	e0bffc17 	ldw	r2,-16(fp)
     8c0:	10819024 	muli	r2,r2,1600
     8c4:	1088b604 	addi	r2,r2,8920
     8c8:	e0fff917 	ldw	r3,-28(fp)
     8cc:	1887883a 	add	r3,r3,r2
         result = alt_msgdma_construct_extended_st_to_mm_descriptor(
     8d0:	e0bffd17 	ldw	r2,-12(fp)
     8d4:	10bfffcc 	andi	r2,r2,65535
     8d8:	d8000315 	stw	zero,12(sp)
     8dc:	d8000215 	stw	zero,8(sp)
     8e0:	d8800115 	stw	r2,4(sp)
     8e4:	00803ff4 	movhi	r2,255
     8e8:	10840004 	addi	r2,r2,4096
     8ec:	d8800015 	stw	r2,0(sp)
     8f0:	01c19004 	movi	r7,1600
     8f4:	180d883a 	mov	r6,r3
     8f8:	002f1e40 	call	2f1e4 <alt_msgdma_construct_extended_st_to_mm_descriptor>
     8fc:	e0bffb15 	stw	r2,-20(fp)
               ETHERNET_BUF_SIZE,
               ALTERA_MSGDMA_DESCRIPTOR_CONTROL_ERROR_IRQ_MASK |
               ALTERA_MSGDMA_DESCRIPTOR_CONTROL_END_ON_EOP_MASK,
               dma_rx_seq, 0, 0);

         if(result == 0)
     900:	e0bffb17 	ldw	r2,-20(fp)
     904:	1000271e 	bne	r2,zero,9a4 <rx_dma_rearm+0x19c>
         {
            result = alt_msgdma_extended_descriptor_async_transfer(ctx->dma_rx_dev, &(ctx->rx_descriptor[idx_wr]));
     908:	e0bff917 	ldw	r2,-28(fp)
     90c:	11000517 	ldw	r4,20(r2)
     910:	e0bffc17 	ldw	r2,-16(fp)
     914:	10800044 	addi	r2,r2,1
     918:	1004917a 	slli	r2,r2,5
     91c:	e0fff917 	ldw	r3,-28(fp)
     920:	1885883a 	add	r2,r3,r2
     924:	100b883a 	mov	r5,r2
     928:	00304300 	call	30430 <alt_msgdma_extended_descriptor_async_transfer>
     92c:	e0bffb15 	stw	r2,-20(fp)
            if(result == 0)
     930:	e0bffb17 	ldw	r2,-20(fp)
     934:	10001b1e 	bne	r2,zero,9a4 <rx_dma_rearm+0x19c>
            {
               status = IORD_ALTERA_MSGDMA_CSR_WR_FILL_LEVEL(ctx->dma_rx_dev);
     938:	e0bff917 	ldw	r2,-28(fp)
     93c:	10800517 	ldw	r2,20(r2)
     940:	10800317 	ldw	r2,12(r2)
     944:	10800204 	addi	r2,r2,8
     948:	10800037 	ldwio	r2,0(r2)
     94c:	e0bffa15 	stw	r2,-24(fp)
               status >>= 16;
     950:	e0bffa17 	ldw	r2,-24(fp)
     954:	1004d43a 	srli	r2,r2,16
     958:	e0bffa15 	stw	r2,-24(fp)
               status &= 0x00000ff;
     95c:	e0bffa17 	ldw	r2,-24(fp)
     960:	10803fcc 	andi	r2,r2,255
     964:	e0bffa15 	stw	r2,-24(fp)

               counter++;
     968:	e0bfff17 	ldw	r2,-4(fp)
     96c:	10800044 	addi	r2,r2,1
     970:	e0bfff15 	stw	r2,-4(fp)
               dma_rx_seq++;
     974:	e0bffd17 	ldw	r2,-12(fp)
     978:	10800044 	addi	r2,r2,1
     97c:	e0bffd15 	stw	r2,-12(fp)
               dma_rx_seq &= 0x0000ffff;
     980:	e0bffd17 	ldw	r2,-12(fp)
     984:	10bfffcc 	andi	r2,r2,65535
     988:	e0bffd15 	stw	r2,-12(fp)

               idx_wr++;
     98c:	e0bffc17 	ldw	r2,-16(fp)
     990:	10800044 	addi	r2,r2,1
     994:	e0bffc15 	stw	r2,-16(fp)
               idx_wr &= (ETHERNET_BUF_NUM-1);
     998:	e0bffc17 	ldw	r2,-16(fp)
     99c:	10801fcc 	andi	r2,r2,127
     9a0:	e0bffc15 	stw	r2,-16(fp)
            }
         }
         limit--;
     9a4:	e0bffe17 	ldw	r2,-8(fp)
     9a8:	10bfffc4 	addi	r2,r2,-1
     9ac:	e0bffe15 	stw	r2,-8(fp)
      while(limit > 0)
     9b0:	e0bffe17 	ldw	r2,-8(fp)
     9b4:	103fba1e 	bne	r2,zero,8a0 <__alt_mem_mcu_subsystem_ram_0+0x77fe08a0>
      }
      if(counter > 0)
     9b8:	e0bfff17 	ldw	r2,-4(fp)
     9bc:	10000626 	beq	r2,zero,9d8 <rx_dma_rearm+0x1d0>
      {
         ctx->rx_descriptor_idx_wr  = idx_wr;
     9c0:	e0bff917 	ldw	r2,-28(fp)
     9c4:	e0fffc17 	ldw	r3,-16(fp)
     9c8:	10c40915 	stw	r3,4132(r2)
         ctx->dma_rx_seq            = dma_rx_seq;
     9cc:	e0bff917 	ldw	r2,-28(fp)
     9d0:	e0fffd17 	ldw	r3,-12(fp)
     9d4:	10c00615 	stw	r3,24(r2)
      }
   }
   status = IORD_ALTERA_MSGDMA_CSR_STATUS(ctx->dma_rx_dev->csr_base);
     9d8:	e0bff917 	ldw	r2,-28(fp)
     9dc:	10800517 	ldw	r2,20(r2)
     9e0:	10800317 	ldw	r2,12(r2)
     9e4:	10800037 	ldwio	r2,0(r2)
     9e8:	e0bffa15 	stw	r2,-24(fp)

   result = counter;
     9ec:	e0bfff17 	ldw	r2,-4(fp)
     9f0:	e0bffb15 	stw	r2,-20(fp)

   return result;
     9f4:	e0bffb17 	ldw	r2,-20(fp)
}
     9f8:	e037883a 	mov	sp,fp
     9fc:	dfc00117 	ldw	ra,4(sp)
     a00:	df000017 	ldw	fp,0(sp)
     a04:	dec00204 	addi	sp,sp,8
     a08:	f800283a 	ret

00000a0c <tx_dma_rearm>:

uint32_t tx_dma_rearm(network_ctx_t *ctx)
{
     a0c:	defffc04 	addi	sp,sp,-16
     a10:	df000315 	stw	fp,12(sp)
     a14:	df000304 	addi	fp,sp,12
     a18:	e13ffd15 	stw	r4,-12(fp)
   int result = 0;
     a1c:	e03fff15 	stw	zero,-4(fp)
   uint32_t count;
   count = IORD_ALTERA_MSGDMA_CSR_WR_FILL_LEVEL(ctx->dma_tx_dev);
     a20:	e0bffd17 	ldw	r2,-12(fp)
     a24:	10800417 	ldw	r2,16(r2)
     a28:	10800317 	ldw	r2,12(r2)
     a2c:	10800204 	addi	r2,r2,8
     a30:	10800037 	ldwio	r2,0(r2)
     a34:	e0bffe15 	stw	r2,-8(fp)

   if(count == 0)
     a38:	e0bffe17 	ldw	r2,-8(fp)
     a3c:	1000051e 	bne	r2,zero,a54 <tx_dma_rearm+0x48>
   {
      ctx->tx_descriptor_idx_rd = ctx->tx_descriptor_idx_wr;
     a40:	e0bffd17 	ldw	r2,-12(fp)
     a44:	10c80c17 	ldw	r3,8240(r2)
     a48:	e0bffd17 	ldw	r2,-12(fp)
     a4c:	10c80b15 	stw	r3,8236(r2)
     a50:	00000706 	br	a70 <tx_dma_rearm+0x64>
   }
   else
   {
      ctx->tx_descriptor_idx_rd = (ctx->tx_descriptor_idx_wr - count) & (ETHERNET_BUF_NUM-1);
     a54:	e0bffd17 	ldw	r2,-12(fp)
     a58:	10c80c17 	ldw	r3,8240(r2)
     a5c:	e0bffe17 	ldw	r2,-8(fp)
     a60:	1885c83a 	sub	r2,r3,r2
     a64:	10c01fcc 	andi	r3,r2,127
     a68:	e0bffd17 	ldw	r2,-12(fp)
     a6c:	10c80b15 	stw	r3,8236(r2)
   }

   return result;
     a70:	e0bfff17 	ldw	r2,-4(fp)
}
     a74:	e037883a 	mov	sp,fp
     a78:	df000017 	ldw	fp,0(sp)
     a7c:	dec00104 	addi	sp,sp,4
     a80:	f800283a 	ret

00000a84 <arp_initialise>:


void arp_initialise(uint32_t handle)
{
     a84:	defffc04 	addi	sp,sp,-16
     a88:	df000315 	stw	fp,12(sp)
     a8c:	df000304 	addi	fp,sp,12
     a90:	e13ffd15 	stw	r4,-12(fp)
   network_ctx_t *ctx = (network_ctx_t*)handle;
     a94:	e0bffd17 	ldw	r2,-12(fp)
     a98:	e0bffe15 	stw	r2,-8(fp)
   uint32_t i;
   ctx->sm_arp = SM_ARP_IDLE;
     a9c:	e0bffe17 	ldw	r2,-8(fp)
     aa0:	10081215 	stw	zero,8264(r2)

   for(i = 0; i < ARP_TABLE_NUM; i++)
     aa4:	e03fff15 	stw	zero,-4(fp)
     aa8:	00000806 	br	acc <arp_initialise+0x48>
   {
      ctx->arp_ipv4_table[i].enabled = 0;
     aac:	e0fffe17 	ldw	r3,-8(fp)
     ab0:	e0bfff17 	ldw	r2,-4(fp)
     ab4:	10800524 	muli	r2,r2,20
     ab8:	1885883a 	add	r2,r3,r2
     abc:	10081705 	stb	zero,8284(r2)
   for(i = 0; i < ARP_TABLE_NUM; i++)
     ac0:	e0bfff17 	ldw	r2,-4(fp)
     ac4:	10800044 	addi	r2,r2,1
     ac8:	e0bfff15 	stw	r2,-4(fp)
     acc:	e0bfff17 	ldw	r2,-4(fp)
     ad0:	10800830 	cmpltui	r2,r2,32
     ad4:	103ff51e 	bne	r2,zero,aac <__alt_mem_mcu_subsystem_ram_0+0x77fe0aac>
   }
}
     ad8:	0001883a 	nop
     adc:	e037883a 	mov	sp,fp
     ae0:	df000017 	ldw	fp,0(sp)
     ae4:	dec00104 	addi	sp,sp,4
     ae8:	f800283a 	ret

00000aec <udp_initialise>:

void udp_initialise (uint32_t handle)
{
     aec:	defffe04 	addi	sp,sp,-8
     af0:	df000115 	stw	fp,4(sp)
     af4:	df000104 	addi	fp,sp,4
     af8:	e13fff15 	stw	r4,-4(fp)

}
     afc:	0001883a 	nop
     b00:	e037883a 	mov	sp,fp
     b04:	df000017 	ldw	fp,0(sp)
     b08:	dec00104 	addi	sp,sp,4
     b0c:	f800283a 	ret

00000b10 <mac_compare>:

static inline int32_t mac_compare(mac_addr_t *addr1, mac_addr_t *addr2)
{
     b10:	defffc04 	addi	sp,sp,-16
     b14:	df000315 	stw	fp,12(sp)
     b18:	df000304 	addi	fp,sp,12
     b1c:	e13ffe15 	stw	r4,-8(fp)
     b20:	e17ffd15 	stw	r5,-12(fp)
   int32_t result = 0;
     b24:	e03fff15 	stw	zero,-4(fp)
   if((addr1->address[0] == addr2->address[0]) &&
     b28:	e0bffe17 	ldw	r2,-8(fp)
     b2c:	10c00003 	ldbu	r3,0(r2)
     b30:	e0bffd17 	ldw	r2,-12(fp)
     b34:	10800003 	ldbu	r2,0(r2)
     b38:	18c03fcc 	andi	r3,r3,255
     b3c:	10803fcc 	andi	r2,r2,255
     b40:	1880251e 	bne	r3,r2,bd8 <mac_compare+0xc8>
   (addr1->address[1] == addr2->address[1]) &&
     b44:	e0bffe17 	ldw	r2,-8(fp)
     b48:	10c00043 	ldbu	r3,1(r2)
     b4c:	e0bffd17 	ldw	r2,-12(fp)
     b50:	10800043 	ldbu	r2,1(r2)
   if((addr1->address[0] == addr2->address[0]) &&
     b54:	18c03fcc 	andi	r3,r3,255
     b58:	10803fcc 	andi	r2,r2,255
     b5c:	18801e1e 	bne	r3,r2,bd8 <mac_compare+0xc8>
   (addr1->address[2] == addr2->address[2]) &&
     b60:	e0bffe17 	ldw	r2,-8(fp)
     b64:	10c00083 	ldbu	r3,2(r2)
     b68:	e0bffd17 	ldw	r2,-12(fp)
     b6c:	10800083 	ldbu	r2,2(r2)
   (addr1->address[1] == addr2->address[1]) &&
     b70:	18c03fcc 	andi	r3,r3,255
     b74:	10803fcc 	andi	r2,r2,255
     b78:	1880171e 	bne	r3,r2,bd8 <mac_compare+0xc8>
   (addr1->address[3] == addr2->address[3]) &&
     b7c:	e0bffe17 	ldw	r2,-8(fp)
     b80:	10c000c3 	ldbu	r3,3(r2)
     b84:	e0bffd17 	ldw	r2,-12(fp)
     b88:	108000c3 	ldbu	r2,3(r2)
   (addr1->address[2] == addr2->address[2]) &&
     b8c:	18c03fcc 	andi	r3,r3,255
     b90:	10803fcc 	andi	r2,r2,255
     b94:	1880101e 	bne	r3,r2,bd8 <mac_compare+0xc8>
   (addr1->address[4] == addr2->address[4]) &&
     b98:	e0bffe17 	ldw	r2,-8(fp)
     b9c:	10c00103 	ldbu	r3,4(r2)
     ba0:	e0bffd17 	ldw	r2,-12(fp)
     ba4:	10800103 	ldbu	r2,4(r2)
   (addr1->address[3] == addr2->address[3]) &&
     ba8:	18c03fcc 	andi	r3,r3,255
     bac:	10803fcc 	andi	r2,r2,255
     bb0:	1880091e 	bne	r3,r2,bd8 <mac_compare+0xc8>
   (addr1->address[5] == addr2->address[5]))
     bb4:	e0bffe17 	ldw	r2,-8(fp)
     bb8:	10c00143 	ldbu	r3,5(r2)
     bbc:	e0bffd17 	ldw	r2,-12(fp)
     bc0:	10800143 	ldbu	r2,5(r2)
   (addr1->address[4] == addr2->address[4]) &&
     bc4:	18c03fcc 	andi	r3,r3,255
     bc8:	10803fcc 	andi	r2,r2,255
     bcc:	1880021e 	bne	r3,r2,bd8 <mac_compare+0xc8>
   {
      result = 1;
     bd0:	00800044 	movi	r2,1
     bd4:	e0bfff15 	stw	r2,-4(fp)
   }
   return result;
     bd8:	e0bfff17 	ldw	r2,-4(fp)
}
     bdc:	e037883a 	mov	sp,fp
     be0:	df000017 	ldw	fp,0(sp)
     be4:	dec00104 	addi	sp,sp,4
     be8:	f800283a 	ret

00000bec <tcp_ip_process_stack>:

void tcp_ip_process_stack (uint32_t handle)
{
     bec:	defff504 	addi	sp,sp,-44
     bf0:	dfc00a15 	stw	ra,40(sp)
     bf4:	df000915 	stw	fp,36(sp)
     bf8:	df000904 	addi	fp,sp,36
     bfc:	e13ff715 	stw	r4,-36(fp)
   void *ptr;
   uint32_t bytes, error, count, status, idx_rd;
   eth_hdr_t *eth_hdr;
   network_ctx_t *ctx = (network_ctx_t*)handle;
     c00:	e0bff717 	ldw	r2,-36(fp)
     c04:	e0bffd15 	stw	r2,-12(fp)

   status = IORD_ALTERA_MSGDMA_CSR_STATUS(ctx->dma_rx_dev->csr_base);
     c08:	e0bffd17 	ldw	r2,-12(fp)
     c0c:	10800517 	ldw	r2,20(r2)
     c10:	10800317 	ldw	r2,12(r2)
     c14:	10800037 	ldwio	r2,0(r2)
     c18:	e0bffc15 	stw	r2,-16(fp)

   // response buffer is not empty
   if((status & ALTERA_MSGDMA_CSR_RESPONSE_BUFFER_EMPTY_MASK) != ALTERA_MSGDMA_CSR_RESPONSE_BUFFER_EMPTY_MASK)
     c1c:	e0bffc17 	ldw	r2,-16(fp)
     c20:	1080020c 	andi	r2,r2,8
     c24:	10006a1e 	bne	r2,zero,dd0 <tcp_ip_process_stack+0x1e4>
   {
      idx_rd = ctx->rx_descriptor_idx_rd;
     c28:	e0bffd17 	ldw	r2,-12(fp)
     c2c:	10840817 	ldw	r2,4128(r2)
     c30:	e0bffe15 	stw	r2,-8(fp)
      count = IORD_ALTERA_MSGDMA_CSR_FILL_LEVEL(ctx->dma_rx_dev);
     c34:	e0bffd17 	ldw	r2,-12(fp)
     c38:	10800517 	ldw	r2,20(r2)
     c3c:	10800317 	ldw	r2,12(r2)
     c40:	10800304 	addi	r2,r2,12
     c44:	10800037 	ldwio	r2,0(r2)
     c48:	e0bfff15 	stw	r2,-4(fp)
      if(count > 0)
     c4c:	e0bfff17 	ldw	r2,-4(fp)
     c50:	10005f26 	beq	r2,zero,dd0 <tcp_ip_process_stack+0x1e4>
      {
         while(count)
     c54:	00005906 	br	dbc <tcp_ip_process_stack+0x1d0>
         {
            bytes = IORD_ALTERA_MSGDMA_BYTES_TANSFERRED(ctx->dma_rx_dev);
     c58:	e0bffd17 	ldw	r2,-12(fp)
     c5c:	10800517 	ldw	r2,20(r2)
     c60:	10800517 	ldw	r2,20(r2)
     c64:	10800037 	ldwio	r2,0(r2)
     c68:	e0bffb15 	stw	r2,-20(fp)
            error = IORD_ALTERA_MSGDMA_RESPONSE_STATUS(ctx->dma_rx_dev);
     c6c:	e0bffd17 	ldw	r2,-12(fp)
     c70:	10800517 	ldw	r2,20(r2)
     c74:	10800517 	ldw	r2,20(r2)
     c78:	10800104 	addi	r2,r2,4
     c7c:	10800037 	ldwio	r2,0(r2)
     c80:	e0bffa15 	stw	r2,-24(fp)

            ////////////////////////////////////////////////////////////////////////////
            // processing frame
            if(bytes >= (64+ETHERNET_HEADER_MAC_REMOVE-4))
     c84:	e0bffb17 	ldw	r2,-20(fp)
     c88:	10800fb0 	cmpltui	r2,r2,62
     c8c:	10003e1e 	bne	r2,zero,d88 <tcp_ip_process_stack+0x19c>
            {
               if(bytes < ETHERNET_BUF_SIZE)
     c90:	e0bffb17 	ldw	r2,-20(fp)
     c94:	10819028 	cmpgeui	r2,r2,1600
     c98:	1000361e 	bne	r2,zero,d74 <tcp_ip_process_stack+0x188>
               {
                  ptr = (void*)(&(ctx->rx_frame[idx_rd * ETHERNET_BUF_SIZE + ETHERNET_HEADER_MAC_REMOVE]));
     c9c:	e0bffe17 	ldw	r2,-8(fp)
     ca0:	10819024 	muli	r2,r2,1600
     ca4:	10800084 	addi	r2,r2,2
     ca8:	1088b604 	addi	r2,r2,8920
     cac:	e0fffd17 	ldw	r3,-12(fp)
     cb0:	1885883a 	add	r2,r3,r2
     cb4:	e0bff915 	stw	r2,-28(fp)
                  alt_dcache_flush(ptr, bytes);
     cb8:	e17ffb17 	ldw	r5,-20(fp)
     cbc:	e13ff917 	ldw	r4,-28(fp)
     cc0:	00250200 	call	25020 <alt_dcache_flush>
                  eth_hdr = (eth_hdr_t*)ptr;
     cc4:	e0bff917 	ldw	r2,-28(fp)
     cc8:	e0bff815 	stw	r2,-32(fp)

                  //if(eth_hdr->destination)

                  switch(eth_hdr->type)
     ccc:	e0bff817 	ldw	r2,-32(fp)
     cd0:	10c00303 	ldbu	r3,12(r2)
     cd4:	10800343 	ldbu	r2,13(r2)
     cd8:	1004923a 	slli	r2,r2,8
     cdc:	10c4b03a 	or	r2,r2,r3
     ce0:	10bfffcc 	andi	r2,r2,65535
     ce4:	10c00220 	cmpeqi	r3,r2,8
     ce8:	18000d1e 	bne	r3,zero,d20 <tcp_ip_process_stack+0x134>
     cec:	10818220 	cmpeqi	r2,r2,1544
     cf0:	10001d26 	beq	r2,zero,d68 <tcp_ip_process_stack+0x17c>
                  {
                     // ARP packet
                     case LEW2BEW(0x0806):
                        ctx->sm_ethernet_stack = SM_ETH_STACK_ARP;
     cf4:	e0bffd17 	ldw	r2,-12(fp)
     cf8:	00c00044 	movi	r3,1
     cfc:	10c81315 	stw	r3,8268(r2)
                        status = arp_process_rx(ctx, eth_hdr, bytes - ETHERNET_HEADER_MAC_REMOVE);
     d00:	e0bffb17 	ldw	r2,-20(fp)
     d04:	10bfff84 	addi	r2,r2,-2
     d08:	100d883a 	mov	r6,r2
     d0c:	e17ff817 	ldw	r5,-32(fp)
     d10:	e13ffd17 	ldw	r4,-12(fp)
     d14:	00012700 	call	1270 <arp_process_rx>
     d18:	e0bffc15 	stw	r2,-16(fp)
                        break;
     d1c:	00002006 	br	da0 <tcp_ip_process_stack+0x1b4>

                     // IP packet
                     case LEW2BEW(0x0800):
                        if(mac_compare(&(eth_hdr->destination), &(ctx->local_device_info.mac_addr)))
     d20:	e0fff817 	ldw	r3,-32(fp)
     d24:	e0bffd17 	ldw	r2,-12(fp)
     d28:	10880d04 	addi	r2,r2,8244
     d2c:	100b883a 	mov	r5,r2
     d30:	1809883a 	mov	r4,r3
     d34:	0000b100 	call	b10 <mac_compare>
     d38:	10001826 	beq	r2,zero,d9c <tcp_ip_process_stack+0x1b0>
                        {
                           ctx->sm_ethernet_stack = SM_ETH_STACK_IP;
     d3c:	e0bffd17 	ldw	r2,-12(fp)
     d40:	00c00084 	movi	r3,2
     d44:	10c81315 	stw	r3,8268(r2)
                           status = ip_process_rx(ctx, eth_hdr, bytes - ETHERNET_HEADER_MAC_REMOVE);
     d48:	e0bffb17 	ldw	r2,-20(fp)
     d4c:	10bfff84 	addi	r2,r2,-2
     d50:	100d883a 	mov	r6,r2
     d54:	e17ff817 	ldw	r5,-32(fp)
     d58:	e13ffd17 	ldw	r4,-12(fp)
     d5c:	0001d700 	call	1d70 <ip_process_rx>
     d60:	e0bffc15 	stw	r2,-16(fp)
                        }
                        break;
     d64:	00000d06 	br	d9c <tcp_ip_process_stack+0x1b0>

                     // unknown packet
                     default:
                        status = 0;
     d68:	e03ffc15 	stw	zero,-16(fp)
                        break;
     d6c:	0001883a 	nop
     d70:	00000b06 	br	da0 <tcp_ip_process_stack+0x1b4>
                  }
               }
               else
               {
                  // error
                  printf("Error: length is invalid (0x%x)\n", bytes);
     d74:	e17ffb17 	ldw	r5,-20(fp)
     d78:	010000f4 	movhi	r4,3
     d7c:	2105a304 	addi	r4,r4,5772
     d80:	001634c0 	call	1634c <printf>
     d84:	00000606 	br	da0 <tcp_ip_process_stack+0x1b4>
               }
            }
            else
            {
               printf("Short frame: %d\n", bytes);
     d88:	e17ffb17 	ldw	r5,-20(fp)
     d8c:	010000f4 	movhi	r4,3
     d90:	2105ac04 	addi	r4,r4,5808
     d94:	001634c0 	call	1634c <printf>
     d98:	00000106 	br	da0 <tcp_ip_process_stack+0x1b4>
                        break;
     d9c:	0001883a 	nop
            }
            ////////////////////////////////////////////////////////////////////////////
            count--;
     da0:	e0bfff17 	ldw	r2,-4(fp)
     da4:	10bfffc4 	addi	r2,r2,-1
     da8:	e0bfff15 	stw	r2,-4(fp)
            idx_rd = ((idx_rd + 1) & (ETHERNET_BUF_NUM - 1));
     dac:	e0bffe17 	ldw	r2,-8(fp)
     db0:	10800044 	addi	r2,r2,1
     db4:	10801fcc 	andi	r2,r2,127
     db8:	e0bffe15 	stw	r2,-8(fp)
         while(count)
     dbc:	e0bfff17 	ldw	r2,-4(fp)
     dc0:	103fa51e 	bne	r2,zero,c58 <__alt_mem_mcu_subsystem_ram_0+0x77fe0c58>
         }
         ctx->rx_descriptor_idx_rd = idx_rd;
     dc4:	e0bffd17 	ldw	r2,-12(fp)
     dc8:	e0fffe17 	ldw	r3,-8(fp)
     dcc:	10c40815 	stw	r3,4128(r2)
      }
   }
}
     dd0:	0001883a 	nop
     dd4:	e037883a 	mov	sp,fp
     dd8:	dfc00117 	ldw	ra,4(sp)
     ddc:	df000017 	ldw	fp,0(sp)
     de0:	dec00204 	addi	sp,sp,8
     de4:	f800283a 	ret

00000de8 <tx_send>:




static int32_t tx_send(void *ctx, uint8_t *buffer, uint32_t len)
{
     de8:	deffee04 	addi	sp,sp,-72
     dec:	dfc01115 	stw	ra,68(sp)
     df0:	df001015 	stw	fp,64(sp)
     df4:	df001004 	addi	fp,sp,64
     df8:	e13ff615 	stw	r4,-40(fp)
     dfc:	e17ff515 	stw	r5,-44(fp)
     e00:	e1bff415 	stw	r6,-48(fp)
   uint8_t *__restrict ptr;
   uint32_t idx_wr, idx_rd, i, fcs, padding = 0, dma_tx_seq;
     e04:	e03ffd15 	stw	zero,-12(fp)
   network_ctx_t *net = (network_ctx_t*)ctx;
     e08:	e0bff617 	ldw	r2,-40(fp)
     e0c:	e0bffc15 	stw	r2,-16(fp)
   int32_t result = 0;
     e10:	e03ffe15 	stw	zero,-8(fp)

   idx_wr         = net->tx_descriptor_idx_wr;
     e14:	e0bffc17 	ldw	r2,-16(fp)
     e18:	10880c17 	ldw	r2,8240(r2)
     e1c:	e0bffb15 	stw	r2,-20(fp)
   idx_rd         = net->tx_descriptor_idx_rd;
     e20:	e0bffc17 	ldw	r2,-16(fp)
     e24:	10880b17 	ldw	r2,8236(r2)
     e28:	e0bffa15 	stw	r2,-24(fp)
   dma_tx_seq     = net->dma_tx_seq;
     e2c:	e0bffc17 	ldw	r2,-16(fp)
     e30:	10800717 	ldw	r2,28(r2)
     e34:	e0bff915 	stw	r2,-28(fp)

   if(((idx_wr + 1) & (ETHERNET_BUF_NUM-1)) != idx_rd)
     e38:	e0bffb17 	ldw	r2,-20(fp)
     e3c:	10800044 	addi	r2,r2,1
     e40:	10801fcc 	andi	r2,r2,127
     e44:	e0fffa17 	ldw	r3,-24(fp)
     e48:	18809026 	beq	r3,r2,108c <tx_send+0x2a4>
   {
      ptr         = &(net->tx_frame[idx_wr * ETHERNET_BUF_SIZE]);
     e4c:	e0bffb17 	ldw	r2,-20(fp)
     e50:	10c19024 	muli	r3,r2,1600
     e54:	008000f4 	movhi	r2,3
     e58:	1090b604 	addi	r2,r2,17112
     e5c:	1885883a 	add	r2,r3,r2
     e60:	e0fffc17 	ldw	r3,-16(fp)
     e64:	1885883a 	add	r2,r3,r2
     e68:	e0bff815 	stw	r2,-32(fp)

      for(i = 0; i < ETHERNET_HEADER_MAC_REMOVE; i ++)
     e6c:	e03fff15 	stw	zero,-4(fp)
     e70:	00000706 	br	e90 <tx_send+0xa8>
      {
         ptr[i] = 0;
     e74:	e0fff817 	ldw	r3,-32(fp)
     e78:	e0bfff17 	ldw	r2,-4(fp)
     e7c:	1885883a 	add	r2,r3,r2
     e80:	10000005 	stb	zero,0(r2)
      for(i = 0; i < ETHERNET_HEADER_MAC_REMOVE; i ++)
     e84:	e0bfff17 	ldw	r2,-4(fp)
     e88:	10800044 	addi	r2,r2,1
     e8c:	e0bfff15 	stw	r2,-4(fp)
     e90:	e0bfff17 	ldw	r2,-4(fp)
     e94:	108000b0 	cmpltui	r2,r2,2
     e98:	103ff61e 	bne	r2,zero,e74 <__alt_mem_mcu_subsystem_ram_0+0x77fe0e74>
      }
      ptr += ETHERNET_HEADER_MAC_REMOVE;
     e9c:	e0bff817 	ldw	r2,-32(fp)
     ea0:	10800084 	addi	r2,r2,2
     ea4:	e0bff815 	stw	r2,-32(fp)

      memcpy(ptr, buffer, len);
     ea8:	e1bff417 	ldw	r6,-48(fp)
     eac:	e17ff517 	ldw	r5,-44(fp)
     eb0:	e13ff817 	ldw	r4,-32(fp)
     eb4:	0015ac00 	call	15ac0 <memcpy>
      if(len < 60)
     eb8:	e0bff417 	ldw	r2,-48(fp)
     ebc:	10800f28 	cmpgeui	r2,r2,60
     ec0:	10000d1e 	bne	r2,zero,ef8 <tx_send+0x110>
      {
         padding = 60 - len;
     ec4:	00c00f04 	movi	r3,60
     ec8:	e0bff417 	ldw	r2,-48(fp)
     ecc:	1885c83a 	sub	r2,r3,r2
     ed0:	e0bffd15 	stw	r2,-12(fp)
         memset(ptr+len, 0x00, padding);
     ed4:	e0fff817 	ldw	r3,-32(fp)
     ed8:	e0bff417 	ldw	r2,-48(fp)
     edc:	1885883a 	add	r2,r3,r2
     ee0:	e1bffd17 	ldw	r6,-12(fp)
     ee4:	000b883a 	mov	r5,zero
     ee8:	1009883a 	mov	r4,r2
     eec:	0015bb00 	call	15bb0 <memset>
         len = 60;
     ef0:	00800f04 	movi	r2,60
     ef4:	e0bff415 	stw	r2,-48(fp)
      }

      fcs = fcs_crc32(ptr, len);
     ef8:	e0bff417 	ldw	r2,-48(fp)
     efc:	10bfffcc 	andi	r2,r2,65535
     f00:	100b883a 	mov	r5,r2
     f04:	e13ff817 	ldw	r4,-32(fp)
     f08:	00002900 	call	290 <fcs_crc32>
     f0c:	e0bff715 	stw	r2,-36(fp)

      ptr[len++] = ((uint8_t)(fcs >> 0))  & 0xff;
     f10:	e0bff417 	ldw	r2,-48(fp)
     f14:	10c00044 	addi	r3,r2,1
     f18:	e0fff415 	stw	r3,-48(fp)
     f1c:	e0fff817 	ldw	r3,-32(fp)
     f20:	1885883a 	add	r2,r3,r2
     f24:	e0fff717 	ldw	r3,-36(fp)
     f28:	10c00005 	stb	r3,0(r2)
      ptr[len++] = ((uint8_t)(fcs >> 8))  & 0xff;
     f2c:	e0bff717 	ldw	r2,-36(fp)
     f30:	1008d23a 	srli	r4,r2,8
     f34:	e0bff417 	ldw	r2,-48(fp)
     f38:	10c00044 	addi	r3,r2,1
     f3c:	e0fff415 	stw	r3,-48(fp)
     f40:	e0fff817 	ldw	r3,-32(fp)
     f44:	1885883a 	add	r2,r3,r2
     f48:	2007883a 	mov	r3,r4
     f4c:	10c00005 	stb	r3,0(r2)
      ptr[len++] = ((uint8_t)(fcs >> 16)) & 0xff;
     f50:	e0bff717 	ldw	r2,-36(fp)
     f54:	1008d43a 	srli	r4,r2,16
     f58:	e0bff417 	ldw	r2,-48(fp)
     f5c:	10c00044 	addi	r3,r2,1
     f60:	e0fff415 	stw	r3,-48(fp)
     f64:	e0fff817 	ldw	r3,-32(fp)
     f68:	1885883a 	add	r2,r3,r2
     f6c:	2007883a 	mov	r3,r4
     f70:	10c00005 	stb	r3,0(r2)
      ptr[len++] = ((uint8_t)(fcs >> 24)) & 0xff;
     f74:	e0bff717 	ldw	r2,-36(fp)
     f78:	1008d63a 	srli	r4,r2,24
     f7c:	e0bff417 	ldw	r2,-48(fp)
     f80:	10c00044 	addi	r3,r2,1
     f84:	e0fff415 	stw	r3,-48(fp)
     f88:	e0fff817 	ldw	r3,-32(fp)
     f8c:	1885883a 	add	r2,r3,r2
     f90:	2007883a 	mov	r3,r4
     f94:	10c00005 	stb	r3,0(r2)

      result = alt_msgdma_construct_extended_mm_to_st_descriptor(
     f98:	e0bffc17 	ldw	r2,-16(fp)
     f9c:	11000417 	ldw	r4,16(r2)
     fa0:	e0bffb17 	ldw	r2,-20(fp)
     fa4:	1004917a 	slli	r2,r2,5
     fa8:	10840b04 	addi	r2,r2,4140
     fac:	e0fffc17 	ldw	r3,-16(fp)
     fb0:	188b883a 	add	r5,r3,r2
            net->dma_tx_dev,
            &(net->tx_descriptor[idx_wr]),
            (alt_u32*)(&(net->tx_frame[idx_wr * ETHERNET_BUF_SIZE])),
     fb4:	e0bffb17 	ldw	r2,-20(fp)
     fb8:	10c19024 	muli	r3,r2,1600
     fbc:	008000f4 	movhi	r2,3
     fc0:	1090b604 	addi	r2,r2,17112
     fc4:	1885883a 	add	r2,r3,r2
     fc8:	e0fffc17 	ldw	r3,-16(fp)
     fcc:	1887883a 	add	r3,r3,r2
      result = alt_msgdma_construct_extended_mm_to_st_descriptor(
     fd0:	e0bff417 	ldw	r2,-48(fp)
     fd4:	11800084 	addi	r6,r2,2
     fd8:	e0bff917 	ldw	r2,-28(fp)
     fdc:	10bfffcc 	andi	r2,r2,65535
     fe0:	d8000315 	stw	zero,12(sp)
     fe4:	d8000215 	stw	zero,8(sp)
     fe8:	d8800115 	stw	r2,4(sp)
     fec:	0090c004 	movi	r2,17152
     ff0:	d8800015 	stw	r2,0(sp)
     ff4:	300f883a 	mov	r7,r6
     ff8:	180d883a 	mov	r6,r3
     ffc:	002f2740 	call	2f274 <alt_msgdma_construct_extended_mm_to_st_descriptor>
    1000:	e0bffe15 	stw	r2,-8(fp)
            ALTERA_MSGDMA_DESCRIPTOR_CONTROL_GENERATE_SOP_MASK |
            ALTERA_MSGDMA_DESCRIPTOR_CONTROL_GENERATE_EOP_MASK |
            ALTERA_MSGDMA_DESCRIPTOR_CONTROL_TRANSFER_COMPLETE_IRQ_MASK,
            dma_tx_seq, 0, 0);

      if(result == 0)
    1004:	e0bffe17 	ldw	r2,-8(fp)
    1008:	1000221e 	bne	r2,zero,1094 <tx_send+0x2ac>
      {
         alt_dcache_flush(((void*)(&(net->tx_frame[idx_wr * ETHERNET_BUF_SIZE]))), (alt_u32)(len+2));
    100c:	e0bffb17 	ldw	r2,-20(fp)
    1010:	10c19024 	muli	r3,r2,1600
    1014:	008000f4 	movhi	r2,3
    1018:	1090b604 	addi	r2,r2,17112
    101c:	1885883a 	add	r2,r3,r2
    1020:	e0fffc17 	ldw	r3,-16(fp)
    1024:	1887883a 	add	r3,r3,r2
    1028:	e0bff417 	ldw	r2,-48(fp)
    102c:	10800084 	addi	r2,r2,2
    1030:	100b883a 	mov	r5,r2
    1034:	1809883a 	mov	r4,r3
    1038:	00250200 	call	25020 <alt_dcache_flush>
         result = alt_msgdma_extended_descriptor_async_transfer(net->dma_tx_dev, &(net->tx_descriptor[idx_wr]));
    103c:	e0bffc17 	ldw	r2,-16(fp)
    1040:	11000417 	ldw	r4,16(r2)
    1044:	e0bffb17 	ldw	r2,-20(fp)
    1048:	1004917a 	slli	r2,r2,5
    104c:	10840b04 	addi	r2,r2,4140
    1050:	e0fffc17 	ldw	r3,-16(fp)
    1054:	1885883a 	add	r2,r3,r2
    1058:	100b883a 	mov	r5,r2
    105c:	00304300 	call	30430 <alt_msgdma_extended_descriptor_async_transfer>
    1060:	e0bffe15 	stw	r2,-8(fp)
         if(result == 0)
    1064:	e0bffe17 	ldw	r2,-8(fp)
    1068:	10000a1e 	bne	r2,zero,1094 <tx_send+0x2ac>
         {
            idx_wr = ((idx_wr + 1) & (ETHERNET_BUF_NUM - 1));
    106c:	e0bffb17 	ldw	r2,-20(fp)
    1070:	10800044 	addi	r2,r2,1
    1074:	10801fcc 	andi	r2,r2,127
    1078:	e0bffb15 	stw	r2,-20(fp)
            net->tx_descriptor_idx_wr = idx_wr;
    107c:	e0bffc17 	ldw	r2,-16(fp)
    1080:	e0fffb17 	ldw	r3,-20(fp)
    1084:	10c80c15 	stw	r3,8240(r2)
    1088:	00000206 	br	1094 <tx_send+0x2ac>
         }
      }
   }
   else
   {
      result = -1;
    108c:	00bfffc4 	movi	r2,-1
    1090:	e0bffe15 	stw	r2,-8(fp)
   }

   return result;
    1094:	e0bffe17 	ldw	r2,-8(fp)
}
    1098:	e037883a 	mov	sp,fp
    109c:	dfc00117 	ldw	ra,4(sp)
    10a0:	df000017 	ldw	fp,0(sp)
    10a4:	dec00204 	addi	sp,sp,8
    10a8:	f800283a 	ret

000010ac <net_deinitialize>:

void net_deinitialize(network_ctx_t *ctx)
{
    10ac:	defffe04 	addi	sp,sp,-8
    10b0:	df000115 	stw	fp,4(sp)
    10b4:	df000104 	addi	fp,sp,4
    10b8:	e13fff15 	stw	r4,-4(fp)
   //alt_uncached_free(ctx->rx_frame);
   //alt_uncached_free(ctx->tx_frame);
   //alt_uncached_free(ctx->rx_frame_transferred);
   //alt_uncached_free(ctx->tx_frame_transferred);
}
    10bc:	0001883a 	nop
    10c0:	e037883a 	mov	sp,fp
    10c4:	df000017 	ldw	fp,0(sp)
    10c8:	dec00104 	addi	sp,sp,4
    10cc:	f800283a 	ret

000010d0 <net_initialize>:

void net_initialize(uint32_t handle)
{
    10d0:	defffc04 	addi	sp,sp,-16
    10d4:	dfc00315 	stw	ra,12(sp)
    10d8:	df000215 	stw	fp,8(sp)
    10dc:	df000204 	addi	fp,sp,8
    10e0:	e13ffe15 	stw	r4,-8(fp)
   network_ctx_t *ctx = (network_ctx_t*)handle;
    10e4:	e0bffe17 	ldw	r2,-8(fp)
    10e8:	e0bfff15 	stw	r2,-4(fp)
   memset((void*)handle, 0, sizeof(network_ctx));
    10ec:	e0bffe17 	ldw	r2,-8(fp)
    10f0:	018001b4 	movhi	r6,6
    10f4:	319a0e04 	addi	r6,r6,26680
    10f8:	000b883a 	mov	r5,zero
    10fc:	1009883a 	mov	r4,r2
    1100:	0015bb00 	call	15bb0 <memset>

   ctx->tx_send                                 = tx_send;
    1104:	e0ffff17 	ldw	r3,-4(fp)
    1108:	00800034 	movhi	r2,0
    110c:	10837a04 	addi	r2,r2,3560
    1110:	1888b415 	stw	r2,8912(r3)
   ctx->local_device_info.ip_addr.addr32        = 0x690aa8c0;
    1114:	e0bfff17 	ldw	r2,-4(fp)
    1118:	10c80e8b 	ldhu	r3,8250(r2)
    111c:	1806703a 	and	r3,r3,zero
    1120:	1809883a 	mov	r4,r3
    1124:	00ea3004 	movi	r3,-22336
    1128:	20c6b03a 	or	r3,r4,r3
    112c:	10c80e8d 	sth	r3,8250(r2)
    1130:	10c80f0b 	ldhu	r3,8252(r2)
    1134:	1806703a 	and	r3,r3,zero
    1138:	18da4294 	ori	r3,r3,26890
    113c:	10c80f0d 	sth	r3,8252(r2)
   ctx->local_device_info.mac_addr.address[0]   = 0x00;
    1140:	e0bfff17 	ldw	r2,-4(fp)
    1144:	10080d05 	stb	zero,8244(r2)
   ctx->local_device_info.mac_addr.address[1]   = 0x1c;
    1148:	e0bfff17 	ldw	r2,-4(fp)
    114c:	00c00704 	movi	r3,28
    1150:	10c80d45 	stb	r3,8245(r2)
   ctx->local_device_info.mac_addr.address[2]   = 0x23;
    1154:	e0bfff17 	ldw	r2,-4(fp)
    1158:	00c008c4 	movi	r3,35
    115c:	10c80d85 	stb	r3,8246(r2)
   ctx->local_device_info.mac_addr.address[3]   = 0x17;
    1160:	e0bfff17 	ldw	r2,-4(fp)
    1164:	00c005c4 	movi	r3,23
    1168:	10c80dc5 	stb	r3,8247(r2)
   ctx->local_device_info.mac_addr.address[4]   = 0x4a;
    116c:	e0bfff17 	ldw	r2,-4(fp)
    1170:	00c01284 	movi	r3,74
    1174:	10c80e05 	stb	r3,8248(r2)
   ctx->local_device_info.mac_addr.address[5]   = 0xcb;
    1178:	e0bfff17 	ldw	r2,-4(fp)
    117c:	00fff2c4 	movi	r3,-53
    1180:	10c80e45 	stb	r3,8249(r2)


   ctx->ip_mask.mask32                          = 0xffffff00;
    1184:	e0bfff17 	ldw	r2,-4(fp)
    1188:	00ffc004 	movi	r3,-256
    118c:	10c81115 	stw	r3,8260(r2)
   ctx->gw_ip_addr.addr32                       = 0xc0a80801;
    1190:	e0ffff17 	ldw	r3,-4(fp)
    1194:	00b02a34 	movhi	r2,49320
    1198:	10820044 	addi	r2,r2,2049
    119c:	18881015 	stw	r2,8256(r3)

   ctx->sm_ethernet_stack                       = SM_ETH_STACK_IDLE;
    11a0:	e0bfff17 	ldw	r2,-4(fp)
    11a4:	10081315 	stw	zero,8268(r2)

   ctx->mtu                                     = 1518;
    11a8:	e0bfff17 	ldw	r2,-4(fp)
    11ac:	00c17b84 	movi	r3,1518
    11b0:	10c8b515 	stw	r3,8916(r2)

   memset(&ctx->sockets_items, 0, sizeof(ctx->sockets_items));
    11b4:	e0ffff17 	ldw	r3,-4(fp)
    11b8:	008001b4 	movhi	r2,6
    11bc:	1099bd44 	addi	r2,r2,26357
    11c0:	1885883a 	add	r2,r3,r2
    11c4:	01805004 	movi	r6,320
    11c8:	000b883a 	mov	r5,zero
    11cc:	1009883a 	mov	r4,r2
    11d0:	0015bb00 	call	15bb0 <memset>
}
    11d4:	0001883a 	nop
    11d8:	e037883a 	mov	sp,fp
    11dc:	dfc00117 	ldw	ra,4(sp)
    11e0:	df000017 	ldw	fp,0(sp)
    11e4:	dec00204 	addi	sp,sp,8
    11e8:	f800283a 	ret

000011ec <arp_packet_check>:


// validation if incoming arp request should be processed or dropped
static int32_t arp_packet_check(network_ctx_t *ctx, arp_packet_t *arp_packet)
{
    11ec:	defffc04 	addi	sp,sp,-16
    11f0:	df000315 	stw	fp,12(sp)
    11f4:	df000304 	addi	fp,sp,12
    11f8:	e13ffe15 	stw	r4,-8(fp)
    11fc:	e17ffd15 	stw	r5,-12(fp)
   int32_t result = 0;
    1200:	e03fff15 	stw	zero,-4(fp)
   if(arp_packet->arp_hdr.target_ip_addr.addr32 == ctx->local_device_info.ip_addr.addr32)
    1204:	e0bffd17 	ldw	r2,-12(fp)
    1208:	10c00983 	ldbu	r3,38(r2)
    120c:	110009c3 	ldbu	r4,39(r2)
    1210:	2008923a 	slli	r4,r4,8
    1214:	20c6b03a 	or	r3,r4,r3
    1218:	11000a03 	ldbu	r4,40(r2)
    121c:	2008943a 	slli	r4,r4,16
    1220:	20c6b03a 	or	r3,r4,r3
    1224:	10800a43 	ldbu	r2,41(r2)
    1228:	1004963a 	slli	r2,r2,24
    122c:	10c4b03a 	or	r2,r2,r3
    1230:	1009883a 	mov	r4,r2
    1234:	e0bffe17 	ldw	r2,-8(fp)
    1238:	10c80e17 	ldw	r3,8248(r2)
    123c:	1806d43a 	srli	r3,r3,16
    1240:	10880f17 	ldw	r2,8252(r2)
    1244:	10bfffcc 	andi	r2,r2,65535
    1248:	1004943a 	slli	r2,r2,16
    124c:	10c4b03a 	or	r2,r2,r3
    1250:	2080021e 	bne	r4,r2,125c <arp_packet_check+0x70>
   {
      result = 1;
    1254:	00800044 	movi	r2,1
    1258:	e0bfff15 	stw	r2,-4(fp)
   }
   return result;
    125c:	e0bfff17 	ldw	r2,-4(fp)
}
    1260:	e037883a 	mov	sp,fp
    1264:	df000017 	ldw	fp,0(sp)
    1268:	dec00104 	addi	sp,sp,4
    126c:	f800283a 	ret

00001270 <arp_process_rx>:


static int32_t arp_process_rx(network_ctx_t *ctx, void *buffer, uint32_t len)
{
    1270:	defdf604 	addi	sp,sp,-2088
    1274:	dfc20915 	stw	ra,2084(sp)
    1278:	df020815 	stw	fp,2080(sp)
    127c:	df020804 	addi	fp,sp,2080
    1280:	e13dfa15 	stw	r4,-2072(fp)
    1284:	e17df915 	stw	r5,-2076(fp)
    1288:	e1bdf815 	stw	r6,-2080(fp)
   int32_t result = 0;
    128c:	e03fff15 	stw	zero,-4(fp)
   uint32_t tx_len = 0, i;
    1290:	e03ffd15 	stw	zero,-12(fp)
   char out[2048];
   arp_packet_t *arp_packet = (arp_packet_t*)buffer;
    1294:	e0bdf917 	ldw	r2,-2076(fp)
    1298:	e0bffc15 	stw	r2,-16(fp)
   arp_packet_t *arp_reply = (arp_packet_t*)out;
    129c:	e0bdfb04 	addi	r2,fp,-2068
    12a0:	e0bffb15 	stw	r2,-20(fp)

   if(arp_packet_check(ctx, arp_packet) == 1)
    12a4:	e17ffc17 	ldw	r5,-16(fp)
    12a8:	e13dfa17 	ldw	r4,-2072(fp)
    12ac:	00011ec0 	call	11ec <arp_packet_check>
    12b0:	10800058 	cmpnei	r2,r2,1
    12b4:	1001551e 	bne	r2,zero,180c <arp_process_rx+0x59c>
   {
      switch(arp_packet->arp_hdr.op_code)
    12b8:	e0bffc17 	ldw	r2,-16(fp)
    12bc:	10c00503 	ldbu	r3,20(r2)
    12c0:	10800543 	ldbu	r2,21(r2)
    12c4:	1004923a 	slli	r2,r2,8
    12c8:	10c4b03a 	or	r2,r2,r3
    12cc:	10bfffcc 	andi	r2,r2,65535
    12d0:	10c04020 	cmpeqi	r3,r2,256
    12d4:	1800031e 	bne	r3,zero,12e4 <arp_process_rx+0x74>
    12d8:	10808020 	cmpeqi	r2,r2,512
    12dc:	1000f21e 	bne	r2,zero,16a8 <arp_process_rx+0x438>
    12e0:	00014a06 	br	180c <arp_process_rx+0x59c>
      {
         case ARP_REQUEST:
            // send back ARP response
            memcpy(arp_reply->eth_hdr.destination.address, arp_packet->eth_hdr.source.address, 6);
    12e4:	e0fffb17 	ldw	r3,-20(fp)
    12e8:	e0bffc17 	ldw	r2,-16(fp)
    12ec:	10800184 	addi	r2,r2,6
    12f0:	01800184 	movi	r6,6
    12f4:	100b883a 	mov	r5,r2
    12f8:	1809883a 	mov	r4,r3
    12fc:	0015ac00 	call	15ac0 <memcpy>
            memcpy(arp_reply->eth_hdr.source.address, ctx->local_device_info.mac_addr.address, 6);
    1300:	e0bffb17 	ldw	r2,-20(fp)
    1304:	10c00184 	addi	r3,r2,6
    1308:	e0bdfa17 	ldw	r2,-2072(fp)
    130c:	10880d04 	addi	r2,r2,8244
    1310:	01800184 	movi	r6,6
    1314:	100b883a 	mov	r5,r2
    1318:	1809883a 	mov	r4,r3
    131c:	0015ac00 	call	15ac0 <memcpy>

            arp_reply->eth_hdr.type = LEW2BEW(0x0806);
    1320:	e0bffb17 	ldw	r2,-20(fp)
    1324:	10c00303 	ldbu	r3,12(r2)
    1328:	1806703a 	and	r3,r3,zero
    132c:	18c00214 	ori	r3,r3,8
    1330:	10c00305 	stb	r3,12(r2)
    1334:	10c00343 	ldbu	r3,13(r2)
    1338:	1806703a 	and	r3,r3,zero
    133c:	18c00194 	ori	r3,r3,6
    1340:	10c00345 	stb	r3,13(r2)
            arp_reply->arp_hdr.hw_type = arp_packet->arp_hdr.hw_type;
    1344:	e0bffc17 	ldw	r2,-16(fp)
    1348:	10c00383 	ldbu	r3,14(r2)
    134c:	108003c3 	ldbu	r2,15(r2)
    1350:	1004923a 	slli	r2,r2,8
    1354:	10c4b03a 	or	r2,r2,r3
    1358:	100d883a 	mov	r6,r2
    135c:	e0bffb17 	ldw	r2,-20(fp)
    1360:	30ffffcc 	andi	r3,r6,65535
    1364:	19403fcc 	andi	r5,r3,255
    1368:	10c00383 	ldbu	r3,14(r2)
    136c:	1806703a 	and	r3,r3,zero
    1370:	1809883a 	mov	r4,r3
    1374:	2807883a 	mov	r3,r5
    1378:	20c6b03a 	or	r3,r4,r3
    137c:	10c00385 	stb	r3,14(r2)
    1380:	30ffffcc 	andi	r3,r6,65535
    1384:	1806d23a 	srli	r3,r3,8
    1388:	197fffcc 	andi	r5,r3,65535
    138c:	10c003c3 	ldbu	r3,15(r2)
    1390:	1806703a 	and	r3,r3,zero
    1394:	1809883a 	mov	r4,r3
    1398:	2807883a 	mov	r3,r5
    139c:	20c6b03a 	or	r3,r4,r3
    13a0:	10c003c5 	stb	r3,15(r2)
            arp_reply->arp_hdr.mac_addr_len = MAC_ADDR_LENGTH;
    13a4:	e0bffb17 	ldw	r2,-20(fp)
    13a8:	00c00184 	movi	r3,6
    13ac:	10c00485 	stb	r3,18(r2)
            arp_reply->arp_hdr.op_code = 0x0200;
    13b0:	e0bffb17 	ldw	r2,-20(fp)
    13b4:	10c00503 	ldbu	r3,20(r2)
    13b8:	1806703a 	and	r3,r3,zero
    13bc:	10c00505 	stb	r3,20(r2)
    13c0:	10c00543 	ldbu	r3,21(r2)
    13c4:	1806703a 	and	r3,r3,zero
    13c8:	18c00094 	ori	r3,r3,2
    13cc:	10c00545 	stb	r3,21(r2)
            arp_reply->arp_hdr.protocol = arp_packet->arp_hdr.protocol;
    13d0:	e0bffc17 	ldw	r2,-16(fp)
    13d4:	10c00403 	ldbu	r3,16(r2)
    13d8:	10800443 	ldbu	r2,17(r2)
    13dc:	1004923a 	slli	r2,r2,8
    13e0:	10c4b03a 	or	r2,r2,r3
    13e4:	100d883a 	mov	r6,r2
    13e8:	e0bffb17 	ldw	r2,-20(fp)
    13ec:	30ffffcc 	andi	r3,r6,65535
    13f0:	19403fcc 	andi	r5,r3,255
    13f4:	10c00403 	ldbu	r3,16(r2)
    13f8:	1806703a 	and	r3,r3,zero
    13fc:	1809883a 	mov	r4,r3
    1400:	2807883a 	mov	r3,r5
    1404:	20c6b03a 	or	r3,r4,r3
    1408:	10c00405 	stb	r3,16(r2)
    140c:	30ffffcc 	andi	r3,r6,65535
    1410:	1806d23a 	srli	r3,r3,8
    1414:	197fffcc 	andi	r5,r3,65535
    1418:	10c00443 	ldbu	r3,17(r2)
    141c:	1806703a 	and	r3,r3,zero
    1420:	1809883a 	mov	r4,r3
    1424:	2807883a 	mov	r3,r5
    1428:	20c6b03a 	or	r3,r4,r3
    142c:	10c00445 	stb	r3,17(r2)
            arp_reply->arp_hdr.protocol_len = IP_ADDR_LENGTH;
    1430:	e0bffb17 	ldw	r2,-20(fp)
    1434:	00c00104 	movi	r3,4
    1438:	10c004c5 	stb	r3,19(r2)

            arp_reply->arp_hdr.sender_ip_addr.addr32 = ctx->local_device_info.ip_addr.addr32;
    143c:	e0bdfa17 	ldw	r2,-2072(fp)
    1440:	10c80e17 	ldw	r3,8248(r2)
    1444:	1806d43a 	srli	r3,r3,16
    1448:	10880f17 	ldw	r2,8252(r2)
    144c:	10bfffcc 	andi	r2,r2,65535
    1450:	1004943a 	slli	r2,r2,16
    1454:	10c4b03a 	or	r2,r2,r3
    1458:	1007883a 	mov	r3,r2
    145c:	e0bffb17 	ldw	r2,-20(fp)
    1460:	19803fcc 	andi	r6,r3,255
    1464:	11000703 	ldbu	r4,28(r2)
    1468:	2008703a 	and	r4,r4,zero
    146c:	200b883a 	mov	r5,r4
    1470:	3009883a 	mov	r4,r6
    1474:	2908b03a 	or	r4,r5,r4
    1478:	11000705 	stb	r4,28(r2)
    147c:	1808d23a 	srli	r4,r3,8
    1480:	21803fcc 	andi	r6,r4,255
    1484:	11000743 	ldbu	r4,29(r2)
    1488:	2008703a 	and	r4,r4,zero
    148c:	200b883a 	mov	r5,r4
    1490:	3009883a 	mov	r4,r6
    1494:	2908b03a 	or	r4,r5,r4
    1498:	11000745 	stb	r4,29(r2)
    149c:	1808d43a 	srli	r4,r3,16
    14a0:	21803fcc 	andi	r6,r4,255
    14a4:	11000783 	ldbu	r4,30(r2)
    14a8:	2008703a 	and	r4,r4,zero
    14ac:	200b883a 	mov	r5,r4
    14b0:	3009883a 	mov	r4,r6
    14b4:	2908b03a 	or	r4,r5,r4
    14b8:	11000785 	stb	r4,30(r2)
    14bc:	180ad63a 	srli	r5,r3,24
    14c0:	10c007c3 	ldbu	r3,31(r2)
    14c4:	1806703a 	and	r3,r3,zero
    14c8:	1809883a 	mov	r4,r3
    14cc:	2807883a 	mov	r3,r5
    14d0:	20c6b03a 	or	r3,r4,r3
    14d4:	10c007c5 	stb	r3,31(r2)
            memcpy(arp_reply->arp_hdr.sender_mac_addr.address, ctx->local_device_info.mac_addr.address, 6);
    14d8:	e0bffb17 	ldw	r2,-20(fp)
    14dc:	10c00584 	addi	r3,r2,22
    14e0:	e0bdfa17 	ldw	r2,-2072(fp)
    14e4:	10880d04 	addi	r2,r2,8244
    14e8:	01800184 	movi	r6,6
    14ec:	100b883a 	mov	r5,r2
    14f0:	1809883a 	mov	r4,r3
    14f4:	0015ac00 	call	15ac0 <memcpy>

            arp_reply->arp_hdr.target_ip_addr.addr32 = arp_packet->arp_hdr.sender_ip_addr.addr32;
    14f8:	e0bffc17 	ldw	r2,-16(fp)
    14fc:	10c00703 	ldbu	r3,28(r2)
    1500:	11000743 	ldbu	r4,29(r2)
    1504:	2008923a 	slli	r4,r4,8
    1508:	20c6b03a 	or	r3,r4,r3
    150c:	11000783 	ldbu	r4,30(r2)
    1510:	2008943a 	slli	r4,r4,16
    1514:	20c6b03a 	or	r3,r4,r3
    1518:	108007c3 	ldbu	r2,31(r2)
    151c:	1004963a 	slli	r2,r2,24
    1520:	10c4b03a 	or	r2,r2,r3
    1524:	1007883a 	mov	r3,r2
    1528:	e0bffb17 	ldw	r2,-20(fp)
    152c:	19803fcc 	andi	r6,r3,255
    1530:	11000983 	ldbu	r4,38(r2)
    1534:	2008703a 	and	r4,r4,zero
    1538:	200b883a 	mov	r5,r4
    153c:	3009883a 	mov	r4,r6
    1540:	2908b03a 	or	r4,r5,r4
    1544:	11000985 	stb	r4,38(r2)
    1548:	1808d23a 	srli	r4,r3,8
    154c:	21803fcc 	andi	r6,r4,255
    1550:	110009c3 	ldbu	r4,39(r2)
    1554:	2008703a 	and	r4,r4,zero
    1558:	200b883a 	mov	r5,r4
    155c:	3009883a 	mov	r4,r6
    1560:	2908b03a 	or	r4,r5,r4
    1564:	110009c5 	stb	r4,39(r2)
    1568:	1808d43a 	srli	r4,r3,16
    156c:	21803fcc 	andi	r6,r4,255
    1570:	11000a03 	ldbu	r4,40(r2)
    1574:	2008703a 	and	r4,r4,zero
    1578:	200b883a 	mov	r5,r4
    157c:	3009883a 	mov	r4,r6
    1580:	2908b03a 	or	r4,r5,r4
    1584:	11000a05 	stb	r4,40(r2)
    1588:	180ad63a 	srli	r5,r3,24
    158c:	10c00a43 	ldbu	r3,41(r2)
    1590:	1806703a 	and	r3,r3,zero
    1594:	1809883a 	mov	r4,r3
    1598:	2807883a 	mov	r3,r5
    159c:	20c6b03a 	or	r3,r4,r3
    15a0:	10c00a45 	stb	r3,41(r2)
            memcpy(arp_reply->arp_hdr.target_mac_addr.address, arp_packet->eth_hdr.source.address, 6);
    15a4:	e0bffb17 	ldw	r2,-20(fp)
    15a8:	10c00804 	addi	r3,r2,32
    15ac:	e0bffc17 	ldw	r2,-16(fp)
    15b0:	10800184 	addi	r2,r2,6
    15b4:	01800184 	movi	r6,6
    15b8:	100b883a 	mov	r5,r2
    15bc:	1809883a 	mov	r4,r3
    15c0:	0015ac00 	call	15ac0 <memcpy>
            memset(arp_reply->data, 0, 32);
    15c4:	e0bffb17 	ldw	r2,-20(fp)
    15c8:	10800a84 	addi	r2,r2,42
    15cc:	01800804 	movi	r6,32
    15d0:	000b883a 	mov	r5,zero
    15d4:	1009883a 	mov	r4,r2
    15d8:	0015bb00 	call	15bb0 <memset>

            tx_len = sizeof(arp_packet_t);
    15dc:	00800a84 	movi	r2,42
    15e0:	e0bffd15 	stw	r2,-12(fp)
            if(ctx->tx_send)
    15e4:	e0bdfa17 	ldw	r2,-2072(fp)
    15e8:	1088b417 	ldw	r2,8912(r2)
    15ec:	10000726 	beq	r2,zero,160c <arp_process_rx+0x39c>
            {
               result = ctx->tx_send((void*)ctx, (uint8_t*)arp_reply, tx_len);
    15f0:	e0bdfa17 	ldw	r2,-2072(fp)
    15f4:	1088b417 	ldw	r2,8912(r2)
    15f8:	e1bffd17 	ldw	r6,-12(fp)
    15fc:	e17ffb17 	ldw	r5,-20(fp)
    1600:	e13dfa17 	ldw	r4,-2072(fp)
    1604:	103ee83a 	callr	r2
    1608:	e0bfff15 	stw	r2,-4(fp)
            }
            arp_register(ctx, arp_packet->eth_hdr.source, arp_packet->arp_hdr.sender_ip_addr.addr32);
    160c:	e0bffc17 	ldw	r2,-16(fp)
    1610:	10c00703 	ldbu	r3,28(r2)
    1614:	11000743 	ldbu	r4,29(r2)
    1618:	2008923a 	slli	r4,r4,8
    161c:	20c6b03a 	or	r3,r4,r3
    1620:	11000783 	ldbu	r4,30(r2)
    1624:	2008943a 	slli	r4,r4,16
    1628:	20c6b03a 	or	r3,r4,r3
    162c:	108007c3 	ldbu	r2,31(r2)
    1630:	1004963a 	slli	r2,r2,24
    1634:	10c4b03a 	or	r2,r2,r3
    1638:	100b883a 	mov	r5,r2
    163c:	e0bffc17 	ldw	r2,-16(fp)
    1640:	10c00183 	ldbu	r3,6(r2)
    1644:	110001c3 	ldbu	r4,7(r2)
    1648:	2008923a 	slli	r4,r4,8
    164c:	20c6b03a 	or	r3,r4,r3
    1650:	11000203 	ldbu	r4,8(r2)
    1654:	2008943a 	slli	r4,r4,16
    1658:	20c6b03a 	or	r3,r4,r3
    165c:	11000243 	ldbu	r4,9(r2)
    1660:	2008963a 	slli	r4,r4,24
    1664:	20c6b03a 	or	r3,r4,r3
    1668:	0009883a 	mov	r4,zero
    166c:	1809883a 	mov	r4,r3
    1670:	10c00283 	ldbu	r3,10(r2)
    1674:	108002c3 	ldbu	r2,11(r2)
    1678:	1004923a 	slli	r2,r2,8
    167c:	10c6b03a 	or	r3,r2,r3
    1680:	0005883a 	mov	r2,zero
    1684:	18ffffcc 	andi	r3,r3,65535
    1688:	10bfffec 	andhi	r2,r2,65535
    168c:	10c4b03a 	or	r2,r2,r3
    1690:	280f883a 	mov	r7,r5
    1694:	200b883a 	mov	r5,r4
    1698:	100d883a 	mov	r6,r2
    169c:	e13dfa17 	ldw	r4,-2072(fp)
    16a0:	0002c740 	call	2c74 <arp_register>
            break;
    16a4:	00005906 	br	180c <arp_process_rx+0x59c>

         case ARP_REPLY:
            for(i = 0; i < SOCKET_MAX_ITEMS; i++)
    16a8:	e03ffe15 	stw	zero,-8(fp)
    16ac:	00005306 	br	17fc <arp_process_rx+0x58c>
            {
               if(ctx->sockets_items[i].enabled == 1)
    16b0:	e0fdfa17 	ldw	r3,-2072(fp)
    16b4:	e0bffe17 	ldw	r2,-8(fp)
    16b8:	10800a24 	muli	r2,r2,40
    16bc:	1887883a 	add	r3,r3,r2
    16c0:	008001b4 	movhi	r2,6
    16c4:	1099c704 	addi	r2,r2,26396
    16c8:	1885883a 	add	r2,r3,r2
    16cc:	10800003 	ldbu	r2,0(r2)
    16d0:	10803fcc 	andi	r2,r2,255
    16d4:	10800058 	cmpnei	r2,r2,1
    16d8:	1000451e 	bne	r2,zero,17f0 <arp_process_rx+0x580>
               {
                  if(ctx->sockets_items[i].socket.arp_request == 1)
    16dc:	e0fdfa17 	ldw	r3,-2072(fp)
    16e0:	e0bffe17 	ldw	r2,-8(fp)
    16e4:	10800a24 	muli	r2,r2,40
    16e8:	1887883a 	add	r3,r3,r2
    16ec:	008001b4 	movhi	r2,6
    16f0:	1099c584 	addi	r2,r2,26390
    16f4:	1885883a 	add	r2,r3,r2
    16f8:	10800003 	ldbu	r2,0(r2)
    16fc:	10803fcc 	andi	r2,r2,255
    1700:	10800058 	cmpnei	r2,r2,1
    1704:	10003a1e 	bne	r2,zero,17f0 <arp_process_rx+0x580>
                  {
                     if(ctx->sockets_items[i].socket.destination.ip_addr.addr32 == arp_packet->arp_hdr.sender_ip_addr.addr32)
    1708:	e0fdfa17 	ldw	r3,-2072(fp)
    170c:	e0bffe17 	ldw	r2,-8(fp)
    1710:	10800a24 	muli	r2,r2,40
    1714:	1887883a 	add	r3,r3,r2
    1718:	008001b4 	movhi	r2,6
    171c:	1099bf04 	addi	r2,r2,26364
    1720:	1885883a 	add	r2,r3,r2
    1724:	10c00017 	ldw	r3,0(r2)
    1728:	1806d63a 	srli	r3,r3,24
    172c:	11000117 	ldw	r4,4(r2)
    1730:	00804034 	movhi	r2,256
    1734:	10bfffc4 	addi	r2,r2,-1
    1738:	2084703a 	and	r2,r4,r2
    173c:	1004923a 	slli	r2,r2,8
    1740:	10c4b03a 	or	r2,r2,r3
    1744:	100b883a 	mov	r5,r2
    1748:	e0bffc17 	ldw	r2,-16(fp)
    174c:	10c00703 	ldbu	r3,28(r2)
    1750:	11000743 	ldbu	r4,29(r2)
    1754:	2008923a 	slli	r4,r4,8
    1758:	20c6b03a 	or	r3,r4,r3
    175c:	11000783 	ldbu	r4,30(r2)
    1760:	2008943a 	slli	r4,r4,16
    1764:	20c6b03a 	or	r3,r4,r3
    1768:	108007c3 	ldbu	r2,31(r2)
    176c:	1004963a 	slli	r2,r2,24
    1770:	10c4b03a 	or	r2,r2,r3
    1774:	28801e1e 	bne	r5,r2,17f0 <arp_process_rx+0x580>
                     {
                        ctx->sockets_items[i].enabled = 0;
    1778:	e0fdfa17 	ldw	r3,-2072(fp)
    177c:	e0bffe17 	ldw	r2,-8(fp)
    1780:	10800a24 	muli	r2,r2,40
    1784:	1887883a 	add	r3,r3,r2
    1788:	008001b4 	movhi	r2,6
    178c:	1099c704 	addi	r2,r2,26396
    1790:	1885883a 	add	r2,r3,r2
    1794:	10000005 	stb	zero,0(r2)
                        ctx->sockets_items[i].socket.destination.mac_addr = arp_packet->eth_hdr.source;
    1798:	e0fdfa17 	ldw	r3,-2072(fp)
    179c:	e0bffe17 	ldw	r2,-8(fp)
    17a0:	10800a24 	muli	r2,r2,40
    17a4:	1887883a 	add	r3,r3,r2
    17a8:	008001b4 	movhi	r2,6
    17ac:	1099be04 	addi	r2,r2,26360
    17b0:	1885883a 	add	r2,r3,r2
    17b4:	e0fffc17 	ldw	r3,-16(fp)
    17b8:	19000183 	ldbu	r4,6(r3)
    17bc:	11000045 	stb	r4,1(r2)
    17c0:	190001c3 	ldbu	r4,7(r3)
    17c4:	11000085 	stb	r4,2(r2)
    17c8:	19000203 	ldbu	r4,8(r3)
    17cc:	110000c5 	stb	r4,3(r2)
    17d0:	19000243 	ldbu	r4,9(r3)
    17d4:	11000105 	stb	r4,4(r2)
    17d8:	19000283 	ldbu	r4,10(r3)
    17dc:	11000145 	stb	r4,5(r2)
    17e0:	18c002c3 	ldbu	r3,11(r3)
    17e4:	10c00185 	stb	r3,6(r2)
                        break;
    17e8:	0001883a 	nop
                     }
                  }
               }
            }
            break;
    17ec:	00000606 	br	1808 <arp_process_rx+0x598>
            for(i = 0; i < SOCKET_MAX_ITEMS; i++)
    17f0:	e0bffe17 	ldw	r2,-8(fp)
    17f4:	10800044 	addi	r2,r2,1
    17f8:	e0bffe15 	stw	r2,-8(fp)
    17fc:	e0bffe17 	ldw	r2,-8(fp)
    1800:	10800230 	cmpltui	r2,r2,8
    1804:	103faa1e 	bne	r2,zero,16b0 <__alt_mem_mcu_subsystem_ram_0+0x77fe16b0>
            break;
    1808:	0001883a 	nop
      }
   }

   return result;
    180c:	e0bfff17 	ldw	r2,-4(fp)
}
    1810:	e037883a 	mov	sp,fp
    1814:	dfc00117 	ldw	ra,4(sp)
    1818:	df000017 	ldw	fp,0(sp)
    181c:	dec00204 	addi	sp,sp,8
    1820:	f800283a 	ret

00001824 <icmp_checksum>:

uint16_t icmp_checksum(icmp_hdr_t *icmp_hdr, uint32_t len)
{
    1824:	defffa04 	addi	sp,sp,-24
    1828:	df000515 	stw	fp,20(sp)
    182c:	dc800415 	stw	r18,16(sp)
    1830:	dc400315 	stw	r17,12(sp)
    1834:	dc000215 	stw	r16,8(sp)
    1838:	df000504 	addi	fp,sp,20
    183c:	e13ffc15 	stw	r4,-16(fp)
    1840:	e17ffb15 	stw	r5,-20(fp)
   register uint8_t *ptr = ((uint8_t*)icmp_hdr);
    1844:	e4bffc17 	ldw	r18,-16(fp)
   register uint32_t result = 0, i, carry;
    1848:	0021883a 	mov	r16,zero

   for(i = 4; i < len; i++)
    184c:	04400104 	movi	r17,4
    1850:	00000c06 	br	1884 <icmp_checksum+0x60>
   {
      result += (i%2==1) ? ((uint32_t)ptr[i]) : (((uint32_t)ptr[i]) << 8);
    1854:	8880004c 	andi	r2,r17,1
    1858:	10000426 	beq	r2,zero,186c <icmp_checksum+0x48>
    185c:	9445883a 	add	r2,r18,r17
    1860:	10800003 	ldbu	r2,0(r2)
    1864:	10803fcc 	andi	r2,r2,255
    1868:	00000406 	br	187c <icmp_checksum+0x58>
    186c:	9445883a 	add	r2,r18,r17
    1870:	10800003 	ldbu	r2,0(r2)
    1874:	10803fcc 	andi	r2,r2,255
    1878:	1004923a 	slli	r2,r2,8
    187c:	80a1883a 	add	r16,r16,r2
   for(i = 4; i < len; i++)
    1880:	8c400044 	addi	r17,r17,1
    1884:	e0bffb17 	ldw	r2,-20(fp)
    1888:	88bff236 	bltu	r17,r2,1854 <__alt_mem_mcu_subsystem_ram_0+0x77fe1854>
   }
   result += ((uint32_t)ptr[0]) << 8;
    188c:	90800003 	ldbu	r2,0(r18)
    1890:	10803fcc 	andi	r2,r2,255
    1894:	1004923a 	slli	r2,r2,8
    1898:	80a1883a 	add	r16,r16,r2
   result += ((uint32_t)ptr[1]);
    189c:	90800044 	addi	r2,r18,1
    18a0:	10800003 	ldbu	r2,0(r2)
    18a4:	10803fcc 	andi	r2,r2,255
    18a8:	80a1883a 	add	r16,r16,r2


   while(result & 0xffff0000)
    18ac:	00000306 	br	18bc <icmp_checksum+0x98>
   {
      carry = ((result >> 16) & 0x0000ffff);
    18b0:	8022d43a 	srli	r17,r16,16
      result &= 0x0000ffff;
    18b4:	843fffcc 	andi	r16,r16,65535
      result += carry;
    18b8:	8461883a 	add	r16,r16,r17
   while(result & 0xffff0000)
    18bc:	80bfffec 	andhi	r2,r16,65535
    18c0:	103ffb1e 	bne	r2,zero,18b0 <__alt_mem_mcu_subsystem_ram_0+0x77fe18b0>
   }
   result = (0x0000ffff - result) & 0x0000ffff;
    18c4:	00bfffd4 	movui	r2,65535
    18c8:	1405c83a 	sub	r2,r2,r16
    18cc:	143fffcc 	andi	r16,r2,65535
   return (uint16_t)result;
    18d0:	8005883a 	mov	r2,r16
}
    18d4:	e6fffd04 	addi	sp,fp,-12
    18d8:	df000317 	ldw	fp,12(sp)
    18dc:	dc800217 	ldw	r18,8(sp)
    18e0:	dc400117 	ldw	r17,4(sp)
    18e4:	dc000017 	ldw	r16,0(sp)
    18e8:	dec00404 	addi	sp,sp,16
    18ec:	f800283a 	ret

000018f0 <checksum16>:

static uint16_t checksum16(void *ptr, uint32_t len)
{
    18f0:	defff904 	addi	sp,sp,-28
    18f4:	df000615 	stw	fp,24(sp)
    18f8:	dc800515 	stw	r18,20(sp)
    18fc:	dc400415 	stw	r17,16(sp)
    1900:	dc000315 	stw	r16,12(sp)
    1904:	df000604 	addi	fp,sp,24
    1908:	e13ffb15 	stw	r4,-20(fp)
    190c:	e17ffa15 	stw	r5,-24(fp)
   uint32_t result = 0;
    1910:	e03ffc15 	stw	zero,-16(fp)
   register uint32_t value = 0, carry = 0;
    1914:	0021883a 	mov	r16,zero
    1918:	0023883a 	mov	r17,zero
   register uint32_t i = 0;
    191c:	0023883a 	mov	r17,zero
   register uint8_t *buf = (uint8_t*)ptr;
    1920:	e4bffb17 	ldw	r18,-20(fp)
   for(i = 0; i < len; i+=2)
    1924:	0023883a 	mov	r17,zero
    1928:	00000f06 	br	1968 <checksum16+0x78>
   {
      if(i == 10) continue;
    192c:	88800298 	cmpnei	r2,r17,10
    1930:	10000b26 	beq	r2,zero,1960 <checksum16+0x70>
      value +=  ((((uint32_t)buf[i]) << 8) | ((uint32_t)buf[i+1]));
    1934:	9445883a 	add	r2,r18,r17
    1938:	10800003 	ldbu	r2,0(r2)
    193c:	10803fcc 	andi	r2,r2,255
    1940:	1006923a 	slli	r3,r2,8
    1944:	88800044 	addi	r2,r17,1
    1948:	9085883a 	add	r2,r18,r2
    194c:	10800003 	ldbu	r2,0(r2)
    1950:	10803fcc 	andi	r2,r2,255
    1954:	1884b03a 	or	r2,r3,r2
    1958:	80a1883a 	add	r16,r16,r2
    195c:	00000106 	br	1964 <checksum16+0x74>
      if(i == 10) continue;
    1960:	0001883a 	nop
   for(i = 0; i < len; i+=2)
    1964:	8c400084 	addi	r17,r17,2
    1968:	e0bffa17 	ldw	r2,-24(fp)
    196c:	88bfef36 	bltu	r17,r2,192c <__alt_mem_mcu_subsystem_ram_0+0x77fe192c>
   }

   while(value & 0xffff0000)
    1970:	00000306 	br	1980 <checksum16+0x90>
   {
      carry = ((value >> 16) & 0x0000ffff);
    1974:	8022d43a 	srli	r17,r16,16
      value &= 0x0000ffff;
    1978:	843fffcc 	andi	r16,r16,65535
      value += carry;
    197c:	8461883a 	add	r16,r16,r17
   while(value & 0xffff0000)
    1980:	80bfffec 	andhi	r2,r16,65535
    1984:	103ffb1e 	bne	r2,zero,1974 <__alt_mem_mcu_subsystem_ram_0+0x77fe1974>
   }
   result = (0x0000ffff - value) & 0x0000ffff;
    1988:	00bfffd4 	movui	r2,65535
    198c:	1405c83a 	sub	r2,r2,r16
    1990:	10bfffcc 	andi	r2,r2,65535
    1994:	e0bffc15 	stw	r2,-16(fp)

   return (uint16_t)result;
    1998:	e0bffc17 	ldw	r2,-16(fp)
}
    199c:	e6fffd04 	addi	sp,fp,-12
    19a0:	df000317 	ldw	fp,12(sp)
    19a4:	dc800217 	ldw	r18,8(sp)
    19a8:	dc400117 	ldw	r17,4(sp)
    19ac:	dc000017 	ldw	r16,0(sp)
    19b0:	dec00404 	addi	sp,sp,16
    19b4:	f800283a 	ret

000019b8 <icmp_process>:


static int32_t icmp_process(network_ctx_t *ctx, icmp_packet_t *packet, uint32_t len, icmp_packet_t* out)
{
    19b8:	defff804 	addi	sp,sp,-32
    19bc:	dfc00715 	stw	ra,28(sp)
    19c0:	df000615 	stw	fp,24(sp)
    19c4:	dc000515 	stw	r16,20(sp)
    19c8:	df000604 	addi	fp,sp,24
    19cc:	e13ffd15 	stw	r4,-12(fp)
    19d0:	e17ffc15 	stw	r5,-16(fp)
    19d4:	e1bffb15 	stw	r6,-20(fp)
    19d8:	e1fffa15 	stw	r7,-24(fp)
   int32_t result = 0;
    19dc:	e03ffe15 	stw	zero,-8(fp)
   switch(packet->icmp_hdr.type)
    19e0:	e0bffc17 	ldw	r2,-16(fp)
    19e4:	10800883 	ldbu	r2,34(r2)
    19e8:	10803fcc 	andi	r2,r2,255
    19ec:	10800220 	cmpeqi	r2,r2,8
    19f0:	10009026 	beq	r2,zero,1c34 <icmp_process+0x27c>
   {
      // echo request
      case 8:
         out->icmp_hdr.type = 0;
    19f4:	e0bffa17 	ldw	r2,-24(fp)
    19f8:	10000885 	stb	zero,34(r2)
         out->icmp_hdr.code = 0;
    19fc:	e0bffa17 	ldw	r2,-24(fp)
    1a00:	100008c5 	stb	zero,35(r2)
         out->icmp_hdr.id = packet->icmp_hdr.id;
    1a04:	e0bffc17 	ldw	r2,-16(fp)
    1a08:	10c00983 	ldbu	r3,38(r2)
    1a0c:	108009c3 	ldbu	r2,39(r2)
    1a10:	1004923a 	slli	r2,r2,8
    1a14:	10c4b03a 	or	r2,r2,r3
    1a18:	100d883a 	mov	r6,r2
    1a1c:	e0bffa17 	ldw	r2,-24(fp)
    1a20:	30ffffcc 	andi	r3,r6,65535
    1a24:	19403fcc 	andi	r5,r3,255
    1a28:	10c00983 	ldbu	r3,38(r2)
    1a2c:	1806703a 	and	r3,r3,zero
    1a30:	1809883a 	mov	r4,r3
    1a34:	2807883a 	mov	r3,r5
    1a38:	20c6b03a 	or	r3,r4,r3
    1a3c:	10c00985 	stb	r3,38(r2)
    1a40:	30ffffcc 	andi	r3,r6,65535
    1a44:	1806d23a 	srli	r3,r3,8
    1a48:	197fffcc 	andi	r5,r3,65535
    1a4c:	10c009c3 	ldbu	r3,39(r2)
    1a50:	1806703a 	and	r3,r3,zero
    1a54:	1809883a 	mov	r4,r3
    1a58:	2807883a 	mov	r3,r5
    1a5c:	20c6b03a 	or	r3,r4,r3
    1a60:	10c009c5 	stb	r3,39(r2)
         out->icmp_hdr.sequence = packet->icmp_hdr.sequence;
    1a64:	e0bffc17 	ldw	r2,-16(fp)
    1a68:	10c00a03 	ldbu	r3,40(r2)
    1a6c:	10800a43 	ldbu	r2,41(r2)
    1a70:	1004923a 	slli	r2,r2,8
    1a74:	10c4b03a 	or	r2,r2,r3
    1a78:	100d883a 	mov	r6,r2
    1a7c:	e0bffa17 	ldw	r2,-24(fp)
    1a80:	30ffffcc 	andi	r3,r6,65535
    1a84:	19403fcc 	andi	r5,r3,255
    1a88:	10c00a03 	ldbu	r3,40(r2)
    1a8c:	1806703a 	and	r3,r3,zero
    1a90:	1809883a 	mov	r4,r3
    1a94:	2807883a 	mov	r3,r5
    1a98:	20c6b03a 	or	r3,r4,r3
    1a9c:	10c00a05 	stb	r3,40(r2)
    1aa0:	30ffffcc 	andi	r3,r6,65535
    1aa4:	1806d23a 	srli	r3,r3,8
    1aa8:	197fffcc 	andi	r5,r3,65535
    1aac:	10c00a43 	ldbu	r3,41(r2)
    1ab0:	1806703a 	and	r3,r3,zero
    1ab4:	1809883a 	mov	r4,r3
    1ab8:	2807883a 	mov	r3,r5
    1abc:	20c6b03a 	or	r3,r4,r3
    1ac0:	10c00a45 	stb	r3,41(r2)
         memcpy(out->data, packet->data, len - sizeof(icmp_packet_t) + sizeof(icmp_hdr_t));
    1ac4:	e0bffa17 	ldw	r2,-24(fp)
    1ac8:	10c00a84 	addi	r3,r2,42
    1acc:	e0bffc17 	ldw	r2,-16(fp)
    1ad0:	11000a84 	addi	r4,r2,42
    1ad4:	e0bffb17 	ldw	r2,-20(fp)
    1ad8:	10bff784 	addi	r2,r2,-34
    1adc:	100d883a 	mov	r6,r2
    1ae0:	200b883a 	mov	r5,r4
    1ae4:	1809883a 	mov	r4,r3
    1ae8:	0015ac00 	call	15ac0 <memcpy>
         out->icmp_hdr.checksum = LEW2BEW(icmp_checksum(&out->icmp_hdr, (len - sizeof(icmp_packet_t) + sizeof(icmp_hdr_t))));
    1aec:	e0bffa17 	ldw	r2,-24(fp)
    1af0:	10c00884 	addi	r3,r2,34
    1af4:	e0bffb17 	ldw	r2,-20(fp)
    1af8:	10bff784 	addi	r2,r2,-34
    1afc:	100b883a 	mov	r5,r2
    1b00:	1809883a 	mov	r4,r3
    1b04:	00018240 	call	1824 <icmp_checksum>
    1b08:	10bfffcc 	andi	r2,r2,65535
    1b0c:	1004923a 	slli	r2,r2,8
    1b10:	1021883a 	mov	r16,r2
    1b14:	e0bffa17 	ldw	r2,-24(fp)
    1b18:	10c00884 	addi	r3,r2,34
    1b1c:	e0bffb17 	ldw	r2,-20(fp)
    1b20:	10bff784 	addi	r2,r2,-34
    1b24:	100b883a 	mov	r5,r2
    1b28:	1809883a 	mov	r4,r3
    1b2c:	00018240 	call	1824 <icmp_checksum>
    1b30:	10bfffcc 	andi	r2,r2,65535
    1b34:	1005d23a 	srai	r2,r2,8
    1b38:	10803fcc 	andi	r2,r2,255
    1b3c:	8084b03a 	or	r2,r16,r2
    1b40:	100d883a 	mov	r6,r2
    1b44:	e0bffa17 	ldw	r2,-24(fp)
    1b48:	30ffffcc 	andi	r3,r6,65535
    1b4c:	19403fcc 	andi	r5,r3,255
    1b50:	10c00903 	ldbu	r3,36(r2)
    1b54:	1806703a 	and	r3,r3,zero
    1b58:	1809883a 	mov	r4,r3
    1b5c:	2807883a 	mov	r3,r5
    1b60:	20c6b03a 	or	r3,r4,r3
    1b64:	10c00905 	stb	r3,36(r2)
    1b68:	30ffffcc 	andi	r3,r6,65535
    1b6c:	1806d23a 	srli	r3,r3,8
    1b70:	197fffcc 	andi	r5,r3,65535
    1b74:	10c00943 	ldbu	r3,37(r2)
    1b78:	1806703a 	and	r3,r3,zero
    1b7c:	1809883a 	mov	r4,r3
    1b80:	2807883a 	mov	r3,r5
    1b84:	20c6b03a 	or	r3,r4,r3
    1b88:	10c00945 	stb	r3,37(r2)
         result = 8 + (len - sizeof(icmp_packet_t));
    1b8c:	e0bffb17 	ldw	r2,-20(fp)
    1b90:	10bff784 	addi	r2,r2,-34
    1b94:	e0bffe15 	stw	r2,-8(fp)

         arp_register(ctx, packet->eth_hdr.source, packet->ipv4_hdr.sender_ip_addr.addr32);
    1b98:	e0bffc17 	ldw	r2,-16(fp)
    1b9c:	10c00683 	ldbu	r3,26(r2)
    1ba0:	110006c3 	ldbu	r4,27(r2)
    1ba4:	2008923a 	slli	r4,r4,8
    1ba8:	20c6b03a 	or	r3,r4,r3
    1bac:	11000703 	ldbu	r4,28(r2)
    1bb0:	2008943a 	slli	r4,r4,16
    1bb4:	20c6b03a 	or	r3,r4,r3
    1bb8:	10800743 	ldbu	r2,29(r2)
    1bbc:	1004963a 	slli	r2,r2,24
    1bc0:	10c4b03a 	or	r2,r2,r3
    1bc4:	100b883a 	mov	r5,r2
    1bc8:	e0bffc17 	ldw	r2,-16(fp)
    1bcc:	10c00183 	ldbu	r3,6(r2)
    1bd0:	110001c3 	ldbu	r4,7(r2)
    1bd4:	2008923a 	slli	r4,r4,8
    1bd8:	20c6b03a 	or	r3,r4,r3
    1bdc:	11000203 	ldbu	r4,8(r2)
    1be0:	2008943a 	slli	r4,r4,16
    1be4:	20c6b03a 	or	r3,r4,r3
    1be8:	11000243 	ldbu	r4,9(r2)
    1bec:	2008963a 	slli	r4,r4,24
    1bf0:	20c6b03a 	or	r3,r4,r3
    1bf4:	0009883a 	mov	r4,zero
    1bf8:	1809883a 	mov	r4,r3
    1bfc:	10c00283 	ldbu	r3,10(r2)
    1c00:	108002c3 	ldbu	r2,11(r2)
    1c04:	1004923a 	slli	r2,r2,8
    1c08:	10c6b03a 	or	r3,r2,r3
    1c0c:	0005883a 	mov	r2,zero
    1c10:	18ffffcc 	andi	r3,r3,65535
    1c14:	10bfffec 	andhi	r2,r2,65535
    1c18:	10c4b03a 	or	r2,r2,r3
    1c1c:	280f883a 	mov	r7,r5
    1c20:	200b883a 	mov	r5,r4
    1c24:	100d883a 	mov	r6,r2
    1c28:	e13ffd17 	ldw	r4,-12(fp)
    1c2c:	0002c740 	call	2c74 <arp_register>
         break;
    1c30:	0001883a 	nop
   }
   return result;
    1c34:	e0bffe17 	ldw	r2,-8(fp)
}
    1c38:	e6ffff04 	addi	sp,fp,-4
    1c3c:	dfc00217 	ldw	ra,8(sp)
    1c40:	df000117 	ldw	fp,4(sp)
    1c44:	dc000017 	ldw	r16,0(sp)
    1c48:	dec00304 	addi	sp,sp,12
    1c4c:	f800283a 	ret

00001c50 <udp_process_rx>:

static int32_t udp_process_rx(network_ctx_t *ctx, eth_udp_packet_t *packet, uint32_t len)
{
    1c50:	defffa04 	addi	sp,sp,-24
    1c54:	dfc00515 	stw	ra,20(sp)
    1c58:	df000415 	stw	fp,16(sp)
    1c5c:	df000404 	addi	fp,sp,16
    1c60:	e13ffe15 	stw	r4,-8(fp)
    1c64:	e17ffd15 	stw	r5,-12(fp)
    1c68:	e1bffc15 	stw	r6,-16(fp)
   uint32_t i;
   for(i = 0; i < SOCKET_MAX_ITEMS; i ++)
    1c6c:	e03fff15 	stw	zero,-4(fp)
    1c70:	00003606 	br	1d4c <udp_process_rx+0xfc>
   {
      if(ctx->sockets_items[i].enabled != 0)
    1c74:	e0fffe17 	ldw	r3,-8(fp)
    1c78:	e0bfff17 	ldw	r2,-4(fp)
    1c7c:	10800a24 	muli	r2,r2,40
    1c80:	1887883a 	add	r3,r3,r2
    1c84:	008001b4 	movhi	r2,6
    1c88:	1099c704 	addi	r2,r2,26396
    1c8c:	1885883a 	add	r2,r3,r2
    1c90:	10800003 	ldbu	r2,0(r2)
    1c94:	10803fcc 	andi	r2,r2,255
    1c98:	10002926 	beq	r2,zero,1d40 <udp_process_rx+0xf0>
      {
         if(ctx->sockets_items[i].socket.src_port == packet->udp_hdr.dst_port)
    1c9c:	e0fffe17 	ldw	r3,-8(fp)
    1ca0:	e0bfff17 	ldw	r2,-4(fp)
    1ca4:	10800a24 	muli	r2,r2,40
    1ca8:	1887883a 	add	r3,r3,r2
    1cac:	008001b4 	movhi	r2,6
    1cb0:	1099c304 	addi	r2,r2,26380
    1cb4:	1885883a 	add	r2,r3,r2
    1cb8:	10800017 	ldw	r2,0(r2)
    1cbc:	1004d23a 	srli	r2,r2,8
    1cc0:	1007883a 	mov	r3,r2
    1cc4:	00bfffc4 	movi	r2,-1
    1cc8:	1884703a 	and	r2,r3,r2
    1ccc:	1009883a 	mov	r4,r2
    1cd0:	e0bffd17 	ldw	r2,-12(fp)
    1cd4:	10c00903 	ldbu	r3,36(r2)
    1cd8:	10800943 	ldbu	r2,37(r2)
    1cdc:	1004923a 	slli	r2,r2,8
    1ce0:	10c4b03a 	or	r2,r2,r3
    1ce4:	20ffffcc 	andi	r3,r4,65535
    1ce8:	10bfffcc 	andi	r2,r2,65535
    1cec:	1880141e 	bne	r3,r2,1d40 <udp_process_rx+0xf0>
         {
            if(ctx->sockets_items[i].socket.rx_cb)
    1cf0:	e0fffe17 	ldw	r3,-8(fp)
    1cf4:	e0bfff17 	ldw	r2,-4(fp)
    1cf8:	10800a24 	muli	r2,r2,40
    1cfc:	1887883a 	add	r3,r3,r2
    1d00:	008001b4 	movhi	r2,6
    1d04:	1099c604 	addi	r2,r2,26392
    1d08:	1885883a 	add	r2,r3,r2
    1d0c:	10800017 	ldw	r2,0(r2)
    1d10:	10000b26 	beq	r2,zero,1d40 <udp_process_rx+0xf0>
            {
               (*ctx->sockets_items[i].socket.rx_cb)((uint8_t*)packet, len);
    1d14:	e0fffe17 	ldw	r3,-8(fp)
    1d18:	e0bfff17 	ldw	r2,-4(fp)
    1d1c:	10800a24 	muli	r2,r2,40
    1d20:	1887883a 	add	r3,r3,r2
    1d24:	008001b4 	movhi	r2,6
    1d28:	1099c604 	addi	r2,r2,26392
    1d2c:	1885883a 	add	r2,r3,r2
    1d30:	10800017 	ldw	r2,0(r2)
    1d34:	e17ffc17 	ldw	r5,-16(fp)
    1d38:	e13ffd17 	ldw	r4,-12(fp)
    1d3c:	103ee83a 	callr	r2
   for(i = 0; i < SOCKET_MAX_ITEMS; i ++)
    1d40:	e0bfff17 	ldw	r2,-4(fp)
    1d44:	10800044 	addi	r2,r2,1
    1d48:	e0bfff15 	stw	r2,-4(fp)
    1d4c:	e0bfff17 	ldw	r2,-4(fp)
    1d50:	10800230 	cmpltui	r2,r2,8
    1d54:	103fc71e 	bne	r2,zero,1c74 <__alt_mem_mcu_subsystem_ram_0+0x77fe1c74>
            }
         }
      }
   }
   return 0;
    1d58:	0005883a 	mov	r2,zero
}
    1d5c:	e037883a 	mov	sp,fp
    1d60:	dfc00117 	ldw	ra,4(sp)
    1d64:	df000017 	ldw	fp,0(sp)
    1d68:	dec00204 	addi	sp,sp,8
    1d6c:	f800283a 	ret

00001d70 <ip_process_rx>:

static int32_t ip_process_rx(network_ctx_t *ctx, void *buffer, uint32_t len)
{
    1d70:	defe6504 	addi	sp,sp,-1644
    1d74:	dfc19a15 	stw	ra,1640(sp)
    1d78:	df019915 	stw	fp,1636(sp)
    1d7c:	dc019815 	stw	r16,1632(sp)
    1d80:	df019904 	addi	fp,sp,1636
    1d84:	e13e6915 	stw	r4,-1628(fp)
    1d88:	e17e6815 	stw	r5,-1632(fp)
    1d8c:	e1be6715 	stw	r6,-1636(fp)
   int32_t result = 0;
    1d90:	e03ffe15 	stw	zero,-8(fp)
   uint8_t buf[1600];
   ipv4_packet_t *ipv4_packet = (ipv4_packet_t*)buffer;
    1d94:	e0be6817 	ldw	r2,-1632(fp)
    1d98:	e0bffd15 	stw	r2,-12(fp)
   ipv4_packet_t *ipv4_respon = (ipv4_packet_t*)buf;
    1d9c:	e0be6a04 	addi	r2,fp,-1624
    1da0:	e0bffc15 	stw	r2,-16(fp)
   icmp_packet_t *icmp;
   eth_udp_packet_t *udp;

   switch(ipv4_packet->ipv4_hdr.protocol)
    1da4:	e0bffd17 	ldw	r2,-12(fp)
    1da8:	108005c3 	ldbu	r2,23(r2)
    1dac:	10803fcc 	andi	r2,r2,255
    1db0:	10c00060 	cmpeqi	r3,r2,1
    1db4:	1800031e 	bne	r3,zero,1dc4 <ip_process_rx+0x54>
    1db8:	10800460 	cmpeqi	r2,r2,17
    1dbc:	10000a1e 	bne	r2,zero,1de8 <ip_process_rx+0x78>
         result = udp_process_rx(ctx, udp, len);
         break;

      default:
         //ipv4_packet->ipv4_hdr
         break;
    1dc0:	00001106 	br	1e08 <ip_process_rx+0x98>
         icmp = (icmp_packet_t*)buf;
    1dc4:	e0be6a04 	addi	r2,fp,-1624
    1dc8:	e0bffa15 	stw	r2,-24(fp)
         result = icmp_process(ctx, (icmp_packet_t*)ipv4_packet, len, icmp);
    1dcc:	e1fffa17 	ldw	r7,-24(fp)
    1dd0:	e1be6717 	ldw	r6,-1636(fp)
    1dd4:	e17ffd17 	ldw	r5,-12(fp)
    1dd8:	e13e6917 	ldw	r4,-1628(fp)
    1ddc:	00019b80 	call	19b8 <icmp_process>
    1de0:	e0bffe15 	stw	r2,-8(fp)
         break;
    1de4:	00000806 	br	1e08 <ip_process_rx+0x98>
         udp = (eth_udp_packet_t*)buffer;
    1de8:	e0be6817 	ldw	r2,-1632(fp)
    1dec:	e0bffb15 	stw	r2,-20(fp)
         result = udp_process_rx(ctx, udp, len);
    1df0:	e1be6717 	ldw	r6,-1636(fp)
    1df4:	e17ffb17 	ldw	r5,-20(fp)
    1df8:	e13e6917 	ldw	r4,-1628(fp)
    1dfc:	0001c500 	call	1c50 <udp_process_rx>
    1e00:	e0bffe15 	stw	r2,-8(fp)
         break;
    1e04:	0001883a 	nop
   }

   if(result > 0)
    1e08:	e0bffe17 	ldw	r2,-8(fp)
    1e0c:	0080df0e 	bge	zero,r2,218c <ip_process_rx+0x41c>
   {
      /////////////////////////////////////////////////////////////
      // ethernet header
      memcpy(ipv4_respon->eth_hdr.destination.address, ipv4_packet->eth_hdr.source.address, MAC_ADDR_LENGTH);
    1e10:	e0fffc17 	ldw	r3,-16(fp)
    1e14:	e0bffd17 	ldw	r2,-12(fp)
    1e18:	10800184 	addi	r2,r2,6
    1e1c:	01800184 	movi	r6,6
    1e20:	100b883a 	mov	r5,r2
    1e24:	1809883a 	mov	r4,r3
    1e28:	0015ac00 	call	15ac0 <memcpy>
      memcpy(ipv4_respon->eth_hdr.source.address, ipv4_packet->eth_hdr.destination.address, MAC_ADDR_LENGTH);
    1e2c:	e0bffc17 	ldw	r2,-16(fp)
    1e30:	10800184 	addi	r2,r2,6
    1e34:	e0fffd17 	ldw	r3,-12(fp)
    1e38:	01800184 	movi	r6,6
    1e3c:	180b883a 	mov	r5,r3
    1e40:	1009883a 	mov	r4,r2
    1e44:	0015ac00 	call	15ac0 <memcpy>
      ipv4_respon->eth_hdr.type = ipv4_packet->eth_hdr.type;
    1e48:	e0bffd17 	ldw	r2,-12(fp)
    1e4c:	10c00303 	ldbu	r3,12(r2)
    1e50:	10800343 	ldbu	r2,13(r2)
    1e54:	1004923a 	slli	r2,r2,8
    1e58:	10c4b03a 	or	r2,r2,r3
    1e5c:	100d883a 	mov	r6,r2
    1e60:	e0bffc17 	ldw	r2,-16(fp)
    1e64:	30ffffcc 	andi	r3,r6,65535
    1e68:	19403fcc 	andi	r5,r3,255
    1e6c:	10c00303 	ldbu	r3,12(r2)
    1e70:	1806703a 	and	r3,r3,zero
    1e74:	1809883a 	mov	r4,r3
    1e78:	2807883a 	mov	r3,r5
    1e7c:	20c6b03a 	or	r3,r4,r3
    1e80:	10c00305 	stb	r3,12(r2)
    1e84:	30ffffcc 	andi	r3,r6,65535
    1e88:	1806d23a 	srli	r3,r3,8
    1e8c:	197fffcc 	andi	r5,r3,65535
    1e90:	10c00343 	ldbu	r3,13(r2)
    1e94:	1806703a 	and	r3,r3,zero
    1e98:	1809883a 	mov	r4,r3
    1e9c:	2807883a 	mov	r3,r5
    1ea0:	20c6b03a 	or	r3,r4,r3
    1ea4:	10c00345 	stb	r3,13(r2)

      /////////////////////////////////////////////////////////////
      // IPv4 header
      ipv4_respon->ipv4_hdr.version = ipv4_packet->ipv4_hdr.version;
    1ea8:	e0bffd17 	ldw	r2,-12(fp)
    1eac:	10800383 	ldbu	r2,14(r2)
    1eb0:	1004d13a 	srli	r2,r2,4
    1eb4:	1007883a 	mov	r3,r2
    1eb8:	e0bffc17 	ldw	r2,-16(fp)
    1ebc:	180a913a 	slli	r5,r3,4
    1ec0:	10c00383 	ldbu	r3,14(r2)
    1ec4:	18c003cc 	andi	r3,r3,15
    1ec8:	1809883a 	mov	r4,r3
    1ecc:	2807883a 	mov	r3,r5
    1ed0:	20c6b03a 	or	r3,r4,r3
    1ed4:	10c00385 	stb	r3,14(r2)
      ipv4_respon->ipv4_hdr.hdr_len = ipv4_packet->ipv4_hdr.hdr_len;
    1ed8:	e0bffd17 	ldw	r2,-12(fp)
    1edc:	10800383 	ldbu	r2,14(r2)
    1ee0:	108003cc 	andi	r2,r2,15
    1ee4:	1007883a 	mov	r3,r2
    1ee8:	e0bffc17 	ldw	r2,-16(fp)
    1eec:	194003cc 	andi	r5,r3,15
    1ef0:	11000383 	ldbu	r4,14(r2)
    1ef4:	00fffc04 	movi	r3,-16
    1ef8:	20c6703a 	and	r3,r4,r3
    1efc:	1809883a 	mov	r4,r3
    1f00:	2807883a 	mov	r3,r5
    1f04:	20c6b03a 	or	r3,r4,r3
    1f08:	10c00385 	stb	r3,14(r2)
      ipv4_respon->ipv4_hdr.type = ipv4_packet->ipv4_hdr.type;
    1f0c:	e0bffd17 	ldw	r2,-12(fp)
    1f10:	10c003c3 	ldbu	r3,15(r2)
    1f14:	e0bffc17 	ldw	r2,-16(fp)
    1f18:	10c003c5 	stb	r3,15(r2)
      ipv4_respon->ipv4_hdr.len = ipv4_packet->ipv4_hdr.len;
    1f1c:	e0bffd17 	ldw	r2,-12(fp)
    1f20:	10c00403 	ldbu	r3,16(r2)
    1f24:	10800443 	ldbu	r2,17(r2)
    1f28:	1004923a 	slli	r2,r2,8
    1f2c:	10c4b03a 	or	r2,r2,r3
    1f30:	100d883a 	mov	r6,r2
    1f34:	e0bffc17 	ldw	r2,-16(fp)
    1f38:	30ffffcc 	andi	r3,r6,65535
    1f3c:	19403fcc 	andi	r5,r3,255
    1f40:	10c00403 	ldbu	r3,16(r2)
    1f44:	1806703a 	and	r3,r3,zero
    1f48:	1809883a 	mov	r4,r3
    1f4c:	2807883a 	mov	r3,r5
    1f50:	20c6b03a 	or	r3,r4,r3
    1f54:	10c00405 	stb	r3,16(r2)
    1f58:	30ffffcc 	andi	r3,r6,65535
    1f5c:	1806d23a 	srli	r3,r3,8
    1f60:	197fffcc 	andi	r5,r3,65535
    1f64:	10c00443 	ldbu	r3,17(r2)
    1f68:	1806703a 	and	r3,r3,zero
    1f6c:	1809883a 	mov	r4,r3
    1f70:	2807883a 	mov	r3,r5
    1f74:	20c6b03a 	or	r3,r4,r3
    1f78:	10c00445 	stb	r3,17(r2)
      ipv4_respon->ipv4_hdr.identification = ipv4_packet->ipv4_hdr.identification;
    1f7c:	e0bffd17 	ldw	r2,-12(fp)
    1f80:	10c00483 	ldbu	r3,18(r2)
    1f84:	108004c3 	ldbu	r2,19(r2)
    1f88:	1004923a 	slli	r2,r2,8
    1f8c:	10c4b03a 	or	r2,r2,r3
    1f90:	100d883a 	mov	r6,r2
    1f94:	e0bffc17 	ldw	r2,-16(fp)
    1f98:	30ffffcc 	andi	r3,r6,65535
    1f9c:	19403fcc 	andi	r5,r3,255
    1fa0:	10c00483 	ldbu	r3,18(r2)
    1fa4:	1806703a 	and	r3,r3,zero
    1fa8:	1809883a 	mov	r4,r3
    1fac:	2807883a 	mov	r3,r5
    1fb0:	20c6b03a 	or	r3,r4,r3
    1fb4:	10c00485 	stb	r3,18(r2)
    1fb8:	30ffffcc 	andi	r3,r6,65535
    1fbc:	1806d23a 	srli	r3,r3,8
    1fc0:	197fffcc 	andi	r5,r3,65535
    1fc4:	10c004c3 	ldbu	r3,19(r2)
    1fc8:	1806703a 	and	r3,r3,zero
    1fcc:	1809883a 	mov	r4,r3
    1fd0:	2807883a 	mov	r3,r5
    1fd4:	20c6b03a 	or	r3,r4,r3
    1fd8:	10c004c5 	stb	r3,19(r2)
      ipv4_respon->ipv4_hdr.flags = ipv4_packet->ipv4_hdr.flags;
    1fdc:	e0bffd17 	ldw	r2,-12(fp)
    1fe0:	10c00503 	ldbu	r3,20(r2)
    1fe4:	10800543 	ldbu	r2,21(r2)
    1fe8:	1004923a 	slli	r2,r2,8
    1fec:	10c4b03a 	or	r2,r2,r3
    1ff0:	100d883a 	mov	r6,r2
    1ff4:	e0bffc17 	ldw	r2,-16(fp)
    1ff8:	30ffffcc 	andi	r3,r6,65535
    1ffc:	19403fcc 	andi	r5,r3,255
    2000:	10c00503 	ldbu	r3,20(r2)
    2004:	1806703a 	and	r3,r3,zero
    2008:	1809883a 	mov	r4,r3
    200c:	2807883a 	mov	r3,r5
    2010:	20c6b03a 	or	r3,r4,r3
    2014:	10c00505 	stb	r3,20(r2)
    2018:	30ffffcc 	andi	r3,r6,65535
    201c:	1806d23a 	srli	r3,r3,8
    2020:	197fffcc 	andi	r5,r3,65535
    2024:	10c00543 	ldbu	r3,21(r2)
    2028:	1806703a 	and	r3,r3,zero
    202c:	1809883a 	mov	r4,r3
    2030:	2807883a 	mov	r3,r5
    2034:	20c6b03a 	or	r3,r4,r3
    2038:	10c00545 	stb	r3,21(r2)
      ipv4_respon->ipv4_hdr.ttl = ipv4_packet->ipv4_hdr.ttl;
    203c:	e0bffd17 	ldw	r2,-12(fp)
    2040:	10c00583 	ldbu	r3,22(r2)
    2044:	e0bffc17 	ldw	r2,-16(fp)
    2048:	10c00585 	stb	r3,22(r2)
      ipv4_respon->ipv4_hdr.protocol = ipv4_packet->ipv4_hdr.protocol;
    204c:	e0bffd17 	ldw	r2,-12(fp)
    2050:	10c005c3 	ldbu	r3,23(r2)
    2054:	e0bffc17 	ldw	r2,-16(fp)
    2058:	10c005c5 	stb	r3,23(r2)
      ipv4_respon->ipv4_hdr.sender_ip_addr = ipv4_packet->ipv4_hdr.target_ip_addr;
    205c:	e0bffc17 	ldw	r2,-16(fp)
    2060:	e0fffd17 	ldw	r3,-12(fp)
    2064:	19000783 	ldbu	r4,30(r3)
    2068:	11000685 	stb	r4,26(r2)
    206c:	190007c3 	ldbu	r4,31(r3)
    2070:	110006c5 	stb	r4,27(r2)
    2074:	19000803 	ldbu	r4,32(r3)
    2078:	11000705 	stb	r4,28(r2)
    207c:	18c00843 	ldbu	r3,33(r3)
    2080:	10c00745 	stb	r3,29(r2)
      ipv4_respon->ipv4_hdr.target_ip_addr = ipv4_packet->ipv4_hdr.sender_ip_addr;
    2084:	e0bffc17 	ldw	r2,-16(fp)
    2088:	e0fffd17 	ldw	r3,-12(fp)
    208c:	19000683 	ldbu	r4,26(r3)
    2090:	11000785 	stb	r4,30(r2)
    2094:	190006c3 	ldbu	r4,27(r3)
    2098:	110007c5 	stb	r4,31(r2)
    209c:	19000703 	ldbu	r4,28(r3)
    20a0:	11000805 	stb	r4,32(r2)
    20a4:	18c00743 	ldbu	r3,29(r3)
    20a8:	10c00845 	stb	r3,33(r2)

      ipv4_respon->ipv4_hdr.checksum = 0;
    20ac:	e0bffc17 	ldw	r2,-16(fp)
    20b0:	10c00603 	ldbu	r3,24(r2)
    20b4:	1806703a 	and	r3,r3,zero
    20b8:	10c00605 	stb	r3,24(r2)
    20bc:	10c00643 	ldbu	r3,25(r2)
    20c0:	1806703a 	and	r3,r3,zero
    20c4:	10c00645 	stb	r3,25(r2)
      ipv4_respon->ipv4_hdr.checksum = BEW2LEW(checksum16(&ipv4_respon->ipv4_hdr, sizeof(ipv4_hdr_t)));
    20c8:	e0bffc17 	ldw	r2,-16(fp)
    20cc:	10800384 	addi	r2,r2,14
    20d0:	01400504 	movi	r5,20
    20d4:	1009883a 	mov	r4,r2
    20d8:	00018f00 	call	18f0 <checksum16>
    20dc:	10bfffcc 	andi	r2,r2,65535
    20e0:	1004923a 	slli	r2,r2,8
    20e4:	1021883a 	mov	r16,r2
    20e8:	e0bffc17 	ldw	r2,-16(fp)
    20ec:	10800384 	addi	r2,r2,14
    20f0:	01400504 	movi	r5,20
    20f4:	1009883a 	mov	r4,r2
    20f8:	00018f00 	call	18f0 <checksum16>
    20fc:	10bfffcc 	andi	r2,r2,65535
    2100:	1005d23a 	srai	r2,r2,8
    2104:	10803fcc 	andi	r2,r2,255
    2108:	8084b03a 	or	r2,r16,r2
    210c:	100d883a 	mov	r6,r2
    2110:	e0bffc17 	ldw	r2,-16(fp)
    2114:	30ffffcc 	andi	r3,r6,65535
    2118:	19403fcc 	andi	r5,r3,255
    211c:	10c00603 	ldbu	r3,24(r2)
    2120:	1806703a 	and	r3,r3,zero
    2124:	1809883a 	mov	r4,r3
    2128:	2807883a 	mov	r3,r5
    212c:	20c6b03a 	or	r3,r4,r3
    2130:	10c00605 	stb	r3,24(r2)
    2134:	30ffffcc 	andi	r3,r6,65535
    2138:	1806d23a 	srli	r3,r3,8
    213c:	197fffcc 	andi	r5,r3,65535
    2140:	10c00643 	ldbu	r3,25(r2)
    2144:	1806703a 	and	r3,r3,zero
    2148:	1809883a 	mov	r4,r3
    214c:	2807883a 	mov	r3,r5
    2150:	20c6b03a 	or	r3,r4,r3
    2154:	10c00645 	stb	r3,25(r2)


      if(ctx->tx_send)
    2158:	e0be6917 	ldw	r2,-1628(fp)
    215c:	1088b417 	ldw	r2,8912(r2)
    2160:	10000a26 	beq	r2,zero,218c <ip_process_rx+0x41c>
      {
         result = ctx->tx_send((void*)ctx, buf, result + sizeof(ipv4_packet_t)); // icmp len + eth hdr + ipv4 hdr
    2164:	e0be6917 	ldw	r2,-1628(fp)
    2168:	1088b417 	ldw	r2,8912(r2)
    216c:	e0fffe17 	ldw	r3,-8(fp)
    2170:	19000884 	addi	r4,r3,34
    2174:	e0fe6a04 	addi	r3,fp,-1624
    2178:	200d883a 	mov	r6,r4
    217c:	180b883a 	mov	r5,r3
    2180:	e13e6917 	ldw	r4,-1628(fp)
    2184:	103ee83a 	callr	r2
    2188:	e0bffe15 	stw	r2,-8(fp)
      }
   }

   return result;
    218c:	e0bffe17 	ldw	r2,-8(fp)
}
    2190:	e6ffff04 	addi	sp,fp,-4
    2194:	dfc00217 	ldw	ra,8(sp)
    2198:	df000117 	ldw	fp,4(sp)
    219c:	dc000017 	ldw	r16,0(sp)
    21a0:	dec00304 	addi	sp,sp,12
    21a4:	f800283a 	ret

000021a8 <udp_checksum>:

uint16_t udp_checksum(eth_udp_packet_t *ipv4_packet)
{
    21a8:	defffb04 	addi	sp,sp,-20
    21ac:	df000415 	stw	fp,16(sp)
    21b0:	df000404 	addi	fp,sp,16
    21b4:	e13ffc15 	stw	r4,-16(fp)
   uint32_t result = 0, len, idx;
    21b8:	e03fff15 	stw	zero,-4(fp)
   len = BEW2LEW(ipv4_packet->udp_hdr.len);
    21bc:	e0bffc17 	ldw	r2,-16(fp)
    21c0:	10c00983 	ldbu	r3,38(r2)
    21c4:	108009c3 	ldbu	r2,39(r2)
    21c8:	1004923a 	slli	r2,r2,8
    21cc:	10c4b03a 	or	r2,r2,r3
    21d0:	10bfffcc 	andi	r2,r2,65535
    21d4:	1006923a 	slli	r3,r2,8
    21d8:	e0bffc17 	ldw	r2,-16(fp)
    21dc:	11000983 	ldbu	r4,38(r2)
    21e0:	108009c3 	ldbu	r2,39(r2)
    21e4:	1004923a 	slli	r2,r2,8
    21e8:	1104b03a 	or	r2,r2,r4
    21ec:	10bfffcc 	andi	r2,r2,65535
    21f0:	1004d23a 	srli	r2,r2,8
    21f4:	10bfffcc 	andi	r2,r2,65535
    21f8:	1884b03a 	or	r2,r3,r2
    21fc:	10bfffcc 	andi	r2,r2,65535
    2200:	e0bffd15 	stw	r2,-12(fp)
   result += ((uint32_t)ipv4_packet->ipv4_hdr.sender_ip_addr.addr8[0]) << 8;
    2204:	e0bffc17 	ldw	r2,-16(fp)
    2208:	10800683 	ldbu	r2,26(r2)
    220c:	10803fcc 	andi	r2,r2,255
    2210:	1004923a 	slli	r2,r2,8
    2214:	e0ffff17 	ldw	r3,-4(fp)
    2218:	1885883a 	add	r2,r3,r2
    221c:	e0bfff15 	stw	r2,-4(fp)
   result += ((uint32_t)ipv4_packet->ipv4_hdr.sender_ip_addr.addr8[1]);
    2220:	e0bffc17 	ldw	r2,-16(fp)
    2224:	108006c3 	ldbu	r2,27(r2)
    2228:	10803fcc 	andi	r2,r2,255
    222c:	e0ffff17 	ldw	r3,-4(fp)
    2230:	1885883a 	add	r2,r3,r2
    2234:	e0bfff15 	stw	r2,-4(fp)
   result += ((uint32_t)ipv4_packet->ipv4_hdr.sender_ip_addr.addr8[2]) << 8;
    2238:	e0bffc17 	ldw	r2,-16(fp)
    223c:	10800703 	ldbu	r2,28(r2)
    2240:	10803fcc 	andi	r2,r2,255
    2244:	1004923a 	slli	r2,r2,8
    2248:	e0ffff17 	ldw	r3,-4(fp)
    224c:	1885883a 	add	r2,r3,r2
    2250:	e0bfff15 	stw	r2,-4(fp)
   result += ((uint32_t)ipv4_packet->ipv4_hdr.sender_ip_addr.addr8[3]);
    2254:	e0bffc17 	ldw	r2,-16(fp)
    2258:	10800743 	ldbu	r2,29(r2)
    225c:	10803fcc 	andi	r2,r2,255
    2260:	e0ffff17 	ldw	r3,-4(fp)
    2264:	1885883a 	add	r2,r3,r2
    2268:	e0bfff15 	stw	r2,-4(fp)

   result += ((uint32_t)ipv4_packet->ipv4_hdr.target_ip_addr.addr8[0]) << 8;
    226c:	e0bffc17 	ldw	r2,-16(fp)
    2270:	10800783 	ldbu	r2,30(r2)
    2274:	10803fcc 	andi	r2,r2,255
    2278:	1004923a 	slli	r2,r2,8
    227c:	e0ffff17 	ldw	r3,-4(fp)
    2280:	1885883a 	add	r2,r3,r2
    2284:	e0bfff15 	stw	r2,-4(fp)
   result += ((uint32_t)ipv4_packet->ipv4_hdr.target_ip_addr.addr8[1]);
    2288:	e0bffc17 	ldw	r2,-16(fp)
    228c:	108007c3 	ldbu	r2,31(r2)
    2290:	10803fcc 	andi	r2,r2,255
    2294:	e0ffff17 	ldw	r3,-4(fp)
    2298:	1885883a 	add	r2,r3,r2
    229c:	e0bfff15 	stw	r2,-4(fp)
   result += ((uint32_t)ipv4_packet->ipv4_hdr.target_ip_addr.addr8[2]) << 8;
    22a0:	e0bffc17 	ldw	r2,-16(fp)
    22a4:	10800803 	ldbu	r2,32(r2)
    22a8:	10803fcc 	andi	r2,r2,255
    22ac:	1004923a 	slli	r2,r2,8
    22b0:	e0ffff17 	ldw	r3,-4(fp)
    22b4:	1885883a 	add	r2,r3,r2
    22b8:	e0bfff15 	stw	r2,-4(fp)
   result += ((uint32_t)ipv4_packet->ipv4_hdr.target_ip_addr.addr8[3]);
    22bc:	e0bffc17 	ldw	r2,-16(fp)
    22c0:	10800843 	ldbu	r2,33(r2)
    22c4:	10803fcc 	andi	r2,r2,255
    22c8:	e0ffff17 	ldw	r3,-4(fp)
    22cc:	1885883a 	add	r2,r3,r2
    22d0:	e0bfff15 	stw	r2,-4(fp)

   result += BEW2LEW((uint32_t)ipv4_packet->udp_hdr.dst_port);
    22d4:	e0bffc17 	ldw	r2,-16(fp)
    22d8:	10c00903 	ldbu	r3,36(r2)
    22dc:	10800943 	ldbu	r2,37(r2)
    22e0:	1004923a 	slli	r2,r2,8
    22e4:	10c4b03a 	or	r2,r2,r3
    22e8:	10bfffcc 	andi	r2,r2,65535
    22ec:	1006923a 	slli	r3,r2,8
    22f0:	e0bffc17 	ldw	r2,-16(fp)
    22f4:	11000903 	ldbu	r4,36(r2)
    22f8:	10800943 	ldbu	r2,37(r2)
    22fc:	1004923a 	slli	r2,r2,8
    2300:	1104b03a 	or	r2,r2,r4
    2304:	10bfffcc 	andi	r2,r2,65535
    2308:	1004d23a 	srli	r2,r2,8
    230c:	10bfffcc 	andi	r2,r2,65535
    2310:	1884b03a 	or	r2,r3,r2
    2314:	10bfffcc 	andi	r2,r2,65535
    2318:	e0ffff17 	ldw	r3,-4(fp)
    231c:	1885883a 	add	r2,r3,r2
    2320:	e0bfff15 	stw	r2,-4(fp)

   result += BEW2LEW((uint32_t)ipv4_packet->udp_hdr.src_port);
    2324:	e0bffc17 	ldw	r2,-16(fp)
    2328:	10c00883 	ldbu	r3,34(r2)
    232c:	108008c3 	ldbu	r2,35(r2)
    2330:	1004923a 	slli	r2,r2,8
    2334:	10c4b03a 	or	r2,r2,r3
    2338:	10bfffcc 	andi	r2,r2,65535
    233c:	1006923a 	slli	r3,r2,8
    2340:	e0bffc17 	ldw	r2,-16(fp)
    2344:	11000883 	ldbu	r4,34(r2)
    2348:	108008c3 	ldbu	r2,35(r2)
    234c:	1004923a 	slli	r2,r2,8
    2350:	1104b03a 	or	r2,r2,r4
    2354:	10bfffcc 	andi	r2,r2,65535
    2358:	1004d23a 	srli	r2,r2,8
    235c:	10bfffcc 	andi	r2,r2,65535
    2360:	1884b03a 	or	r2,r3,r2
    2364:	10bfffcc 	andi	r2,r2,65535
    2368:	e0ffff17 	ldw	r3,-4(fp)
    236c:	1885883a 	add	r2,r3,r2
    2370:	e0bfff15 	stw	r2,-4(fp)

   result += ipv4_packet->ipv4_hdr.protocol;
    2374:	e0bffc17 	ldw	r2,-16(fp)
    2378:	108005c3 	ldbu	r2,23(r2)
    237c:	10803fcc 	andi	r2,r2,255
    2380:	e0ffff17 	ldw	r3,-4(fp)
    2384:	1885883a 	add	r2,r3,r2
    2388:	e0bfff15 	stw	r2,-4(fp)
   result += len;
    238c:	e0ffff17 	ldw	r3,-4(fp)
    2390:	e0bffd17 	ldw	r2,-12(fp)
    2394:	1885883a 	add	r2,r3,r2
    2398:	e0bfff15 	stw	r2,-4(fp)
   result += len;
    239c:	e0ffff17 	ldw	r3,-4(fp)
    23a0:	e0bffd17 	ldw	r2,-12(fp)
    23a4:	1885883a 	add	r2,r3,r2
    23a8:	e0bfff15 	stw	r2,-4(fp)

   len -= sizeof(udp_hdr_t);
    23ac:	e0bffd17 	ldw	r2,-12(fp)
    23b0:	10bffe04 	addi	r2,r2,-8
    23b4:	e0bffd15 	stw	r2,-12(fp)
   idx = 0;
    23b8:	e03ffe15 	stw	zero,-8(fp)
   while(idx < len)
    23bc:	00001806 	br	2420 <udp_checksum+0x278>
   {
      if(idx %2 == 0)
    23c0:	e0bffe17 	ldw	r2,-8(fp)
    23c4:	1080004c 	andi	r2,r2,1
    23c8:	10000a1e 	bne	r2,zero,23f4 <udp_checksum+0x24c>
      {
         result += ((uint32_t)ipv4_packet->data[idx]) << 8;
    23cc:	e0fffc17 	ldw	r3,-16(fp)
    23d0:	e0bffe17 	ldw	r2,-8(fp)
    23d4:	1885883a 	add	r2,r3,r2
    23d8:	10800a83 	ldbu	r2,42(r2)
    23dc:	10803fcc 	andi	r2,r2,255
    23e0:	1004923a 	slli	r2,r2,8
    23e4:	e0ffff17 	ldw	r3,-4(fp)
    23e8:	1885883a 	add	r2,r3,r2
    23ec:	e0bfff15 	stw	r2,-4(fp)
    23f0:	00000806 	br	2414 <udp_checksum+0x26c>
      }
      else
      {
         result += ((uint32_t)ipv4_packet->data[idx]);
    23f4:	e0fffc17 	ldw	r3,-16(fp)
    23f8:	e0bffe17 	ldw	r2,-8(fp)
    23fc:	1885883a 	add	r2,r3,r2
    2400:	10800a83 	ldbu	r2,42(r2)
    2404:	10803fcc 	andi	r2,r2,255
    2408:	e0ffff17 	ldw	r3,-4(fp)
    240c:	1885883a 	add	r2,r3,r2
    2410:	e0bfff15 	stw	r2,-4(fp)
      }
      idx++;
    2414:	e0bffe17 	ldw	r2,-8(fp)
    2418:	10800044 	addi	r2,r2,1
    241c:	e0bffe15 	stw	r2,-8(fp)
   while(idx < len)
    2420:	e0fffe17 	ldw	r3,-8(fp)
    2424:	e0bffd17 	ldw	r2,-12(fp)
    2428:	18bfe536 	bltu	r3,r2,23c0 <__alt_mem_mcu_subsystem_ram_0+0x77fe23c0>
   }

   while((result & 0xFFFF0000) != 0)
    242c:	00000606 	br	2448 <udp_checksum+0x2a0>
   {
      result = (result & 0x0000FFFF) + ((result >> 16) & 0x0000FFFF);
    2430:	e0bfff17 	ldw	r2,-4(fp)
    2434:	10ffffcc 	andi	r3,r2,65535
    2438:	e0bfff17 	ldw	r2,-4(fp)
    243c:	1004d43a 	srli	r2,r2,16
    2440:	1885883a 	add	r2,r3,r2
    2444:	e0bfff15 	stw	r2,-4(fp)
   while((result & 0xFFFF0000) != 0)
    2448:	e0bfff17 	ldw	r2,-4(fp)
    244c:	10bfffec 	andhi	r2,r2,65535
    2450:	103ff71e 	bne	r2,zero,2430 <__alt_mem_mcu_subsystem_ram_0+0x77fe2430>
   }
   result = 0xFFFF - result;
    2454:	00ffffd4 	movui	r3,65535
    2458:	e0bfff17 	ldw	r2,-4(fp)
    245c:	1885c83a 	sub	r2,r3,r2
    2460:	e0bfff15 	stw	r2,-4(fp)

   return (uint16_t)result;
    2464:	e0bfff17 	ldw	r2,-4(fp)
}
    2468:	e037883a 	mov	sp,fp
    246c:	df000017 	ldw	fp,0(sp)
    2470:	dec00104 	addi	sp,sp,4
    2474:	f800283a 	ret

00002478 <udp_send>:

uint8_t frame[ETHERNET_BUF_SIZE];

int32_t udp_send(uint32_t handle, uint8_t* buffer, uint32_t len)
{
    2478:	defff004 	addi	sp,sp,-64
    247c:	dfc00f15 	stw	ra,60(sp)
    2480:	df000e15 	stw	fp,56(sp)
    2484:	dc000d15 	stw	r16,52(sp)
    2488:	df000e04 	addi	fp,sp,56
    248c:	e13ff415 	stw	r4,-48(fp)
    2490:	e17ff315 	stw	r5,-52(fp)
    2494:	e1bff215 	stw	r6,-56(fp)
   network_ctx_t *ctx;
   int32_t result = 0, repeat;
    2498:	e03ffe15 	stw	zero,-8(fp)
   uint32_t i, tx_len, tx_rest = len, udp_max, idx = 0, fragment;
    249c:	e0bff217 	ldw	r2,-56(fp)
    24a0:	e0bffc15 	stw	r2,-16(fp)
    24a4:	e03ffb15 	stw	zero,-20(fp)

   ipv4_socket_t *socket = (ipv4_socket_t*)handle;
    24a8:	e0bff417 	ldw	r2,-48(fp)
    24ac:	e0bff915 	stw	r2,-28(fp)
   eth_udp_packet_t *ipv4_packet = (eth_udp_packet_t*)frame;
    24b0:	008202b4 	movhi	r2,2058
    24b4:	108b9c04 	addi	r2,r2,11888
    24b8:	e0bff815 	stw	r2,-32(fp)

   ctx = (network_ctx_t*)(socket->net_ctx);
    24bc:	e0bff917 	ldw	r2,-28(fp)
    24c0:	10c00003 	ldbu	r3,0(r2)
    24c4:	11000043 	ldbu	r4,1(r2)
    24c8:	2008923a 	slli	r4,r4,8
    24cc:	20c6b03a 	or	r3,r4,r3
    24d0:	11000083 	ldbu	r4,2(r2)
    24d4:	2008943a 	slli	r4,r4,16
    24d8:	20c6b03a 	or	r3,r4,r3
    24dc:	108000c3 	ldbu	r2,3(r2)
    24e0:	1004963a 	slli	r2,r2,24
    24e4:	10c4b03a 	or	r2,r2,r3
    24e8:	e0bff715 	stw	r2,-36(fp)
   udp_max = ctx->mtu - sizeof(eth_udp_packet_t) - 4 - 4;
    24ec:	e0bff717 	ldw	r2,-36(fp)
    24f0:	1088b517 	ldw	r2,8916(r2)
    24f4:	10bff384 	addi	r2,r2,-50
    24f8:	e0bff615 	stw	r2,-40(fp)

   tx_rest = len;
    24fc:	e0bff217 	ldw	r2,-56(fp)
    2500:	e0bffc15 	stw	r2,-16(fp)

   // ethernet header
   ipv4_packet->eth_hdr.destination       = socket->destination.mac_addr;
    2504:	e0bff817 	ldw	r2,-32(fp)
    2508:	e0fff917 	ldw	r3,-28(fp)
    250c:	19000103 	ldbu	r4,4(r3)
    2510:	11000005 	stb	r4,0(r2)
    2514:	19000143 	ldbu	r4,5(r3)
    2518:	11000045 	stb	r4,1(r2)
    251c:	19000183 	ldbu	r4,6(r3)
    2520:	11000085 	stb	r4,2(r2)
    2524:	190001c3 	ldbu	r4,7(r3)
    2528:	110000c5 	stb	r4,3(r2)
    252c:	19000203 	ldbu	r4,8(r3)
    2530:	11000105 	stb	r4,4(r2)
    2534:	18c00243 	ldbu	r3,9(r3)
    2538:	10c00145 	stb	r3,5(r2)
   ipv4_packet->eth_hdr.source            = ((network_ctx_t*)socket->net_ctx)->local_device_info.mac_addr;
    253c:	e0bff917 	ldw	r2,-28(fp)
    2540:	10c00003 	ldbu	r3,0(r2)
    2544:	11000043 	ldbu	r4,1(r2)
    2548:	2008923a 	slli	r4,r4,8
    254c:	20c6b03a 	or	r3,r4,r3
    2550:	11000083 	ldbu	r4,2(r2)
    2554:	2008943a 	slli	r4,r4,16
    2558:	20c6b03a 	or	r3,r4,r3
    255c:	108000c3 	ldbu	r2,3(r2)
    2560:	1004963a 	slli	r2,r2,24
    2564:	10c4b03a 	or	r2,r2,r3
    2568:	1007883a 	mov	r3,r2
    256c:	e0bff817 	ldw	r2,-32(fp)
    2570:	19080d03 	ldbu	r4,8244(r3)
    2574:	11000185 	stb	r4,6(r2)
    2578:	19080d43 	ldbu	r4,8245(r3)
    257c:	110001c5 	stb	r4,7(r2)
    2580:	19080d83 	ldbu	r4,8246(r3)
    2584:	11000205 	stb	r4,8(r2)
    2588:	19080dc3 	ldbu	r4,8247(r3)
    258c:	11000245 	stb	r4,9(r2)
    2590:	19080e03 	ldbu	r4,8248(r3)
    2594:	11000285 	stb	r4,10(r2)
    2598:	18c80e43 	ldbu	r3,8249(r3)
    259c:	10c002c5 	stb	r3,11(r2)
   ipv4_packet->eth_hdr.type              = socket->eth_type;
    25a0:	e0bff917 	ldw	r2,-28(fp)
    25a4:	10c00403 	ldbu	r3,16(r2)
    25a8:	10800443 	ldbu	r2,17(r2)
    25ac:	1004923a 	slli	r2,r2,8
    25b0:	10c4b03a 	or	r2,r2,r3
    25b4:	100d883a 	mov	r6,r2
    25b8:	e0bff817 	ldw	r2,-32(fp)
    25bc:	30ffffcc 	andi	r3,r6,65535
    25c0:	19403fcc 	andi	r5,r3,255
    25c4:	10c00303 	ldbu	r3,12(r2)
    25c8:	1806703a 	and	r3,r3,zero
    25cc:	1809883a 	mov	r4,r3
    25d0:	2807883a 	mov	r3,r5
    25d4:	20c6b03a 	or	r3,r4,r3
    25d8:	10c00305 	stb	r3,12(r2)
    25dc:	30ffffcc 	andi	r3,r6,65535
    25e0:	1806d23a 	srli	r3,r3,8
    25e4:	197fffcc 	andi	r5,r3,65535
    25e8:	10c00343 	ldbu	r3,13(r2)
    25ec:	1806703a 	and	r3,r3,zero
    25f0:	1809883a 	mov	r4,r3
    25f4:	2807883a 	mov	r3,r5
    25f8:	20c6b03a 	or	r3,r4,r3
    25fc:	10c00345 	stb	r3,13(r2)

   // ipv4 header
   ipv4_packet->ipv4_hdr.version          = socket->version;
    2600:	e0bff917 	ldw	r2,-28(fp)
    2604:	108005c3 	ldbu	r2,23(r2)
    2608:	108003cc 	andi	r2,r2,15
    260c:	1007883a 	mov	r3,r2
    2610:	e0bff817 	ldw	r2,-32(fp)
    2614:	180a913a 	slli	r5,r3,4
    2618:	10c00383 	ldbu	r3,14(r2)
    261c:	18c003cc 	andi	r3,r3,15
    2620:	1809883a 	mov	r4,r3
    2624:	2807883a 	mov	r3,r5
    2628:	20c6b03a 	or	r3,r4,r3
    262c:	10c00385 	stb	r3,14(r2)
   ipv4_packet->ipv4_hdr.hdr_len          = socket->hdr_len;
    2630:	e0bff917 	ldw	r2,-28(fp)
    2634:	108005c3 	ldbu	r2,23(r2)
    2638:	1004d13a 	srli	r2,r2,4
    263c:	1007883a 	mov	r3,r2
    2640:	e0bff817 	ldw	r2,-32(fp)
    2644:	194003cc 	andi	r5,r3,15
    2648:	11000383 	ldbu	r4,14(r2)
    264c:	00fffc04 	movi	r3,-16
    2650:	20c6703a 	and	r3,r4,r3
    2654:	1809883a 	mov	r4,r3
    2658:	2807883a 	mov	r3,r5
    265c:	20c6b03a 	or	r3,r4,r3
    2660:	10c00385 	stb	r3,14(r2)
   ipv4_packet->ipv4_hdr.type             = socket->ipv4_type;
    2664:	e0bff917 	ldw	r2,-28(fp)
    2668:	10c00483 	ldbu	r3,18(r2)
    266c:	e0bff817 	ldw	r2,-32(fp)
    2670:	10c003c5 	stb	r3,15(r2)
   //ipv4_packet->ipv4_hdr.len              = LEW2BEW((sizeof(ipv4_hdr_t) + sizeof(udp_hdr_t) + len));
   ipv4_packet->ipv4_hdr.identification   = 0;
    2674:	e0bff817 	ldw	r2,-32(fp)
    2678:	10c00483 	ldbu	r3,18(r2)
    267c:	1806703a 	and	r3,r3,zero
    2680:	10c00485 	stb	r3,18(r2)
    2684:	10c004c3 	ldbu	r3,19(r2)
    2688:	1806703a 	and	r3,r3,zero
    268c:	10c004c5 	stb	r3,19(r2)
   ipv4_packet->ipv4_hdr.flags            = 0;
    2690:	e0bff817 	ldw	r2,-32(fp)
    2694:	10c00503 	ldbu	r3,20(r2)
    2698:	1806703a 	and	r3,r3,zero
    269c:	10c00505 	stb	r3,20(r2)
    26a0:	10c00543 	ldbu	r3,21(r2)
    26a4:	1806703a 	and	r3,r3,zero
    26a8:	10c00545 	stb	r3,21(r2)
   ipv4_packet->ipv4_hdr.ttl              = 0x7f;
    26ac:	e0bff817 	ldw	r2,-32(fp)
    26b0:	00c01fc4 	movi	r3,127
    26b4:	10c00585 	stb	r3,22(r2)
   ipv4_packet->ipv4_hdr.protocol         = socket->protocol;
    26b8:	e0bff917 	ldw	r2,-28(fp)
    26bc:	10c00703 	ldbu	r3,28(r2)
    26c0:	e0bff817 	ldw	r2,-32(fp)
    26c4:	10c005c5 	stb	r3,23(r2)
   ipv4_packet->ipv4_hdr.sender_ip_addr   = ((network_ctx_t*)socket->net_ctx)->local_device_info.ip_addr;
    26c8:	e0bff917 	ldw	r2,-28(fp)
    26cc:	10c00003 	ldbu	r3,0(r2)
    26d0:	11000043 	ldbu	r4,1(r2)
    26d4:	2008923a 	slli	r4,r4,8
    26d8:	20c6b03a 	or	r3,r4,r3
    26dc:	11000083 	ldbu	r4,2(r2)
    26e0:	2008943a 	slli	r4,r4,16
    26e4:	20c6b03a 	or	r3,r4,r3
    26e8:	108000c3 	ldbu	r2,3(r2)
    26ec:	1004963a 	slli	r2,r2,24
    26f0:	10c4b03a 	or	r2,r2,r3
    26f4:	1007883a 	mov	r3,r2
    26f8:	e0bff817 	ldw	r2,-32(fp)
    26fc:	19080e83 	ldbu	r4,8250(r3)
    2700:	11000685 	stb	r4,26(r2)
    2704:	19080ec3 	ldbu	r4,8251(r3)
    2708:	110006c5 	stb	r4,27(r2)
    270c:	19080f03 	ldbu	r4,8252(r3)
    2710:	11000705 	stb	r4,28(r2)
    2714:	18c80f43 	ldbu	r3,8253(r3)
    2718:	10c00745 	stb	r3,29(r2)
   ipv4_packet->ipv4_hdr.target_ip_addr   = socket->destination.ip_addr;
    271c:	e0bff817 	ldw	r2,-32(fp)
    2720:	e0fff917 	ldw	r3,-28(fp)
    2724:	19000283 	ldbu	r4,10(r3)
    2728:	11000785 	stb	r4,30(r2)
    272c:	190002c3 	ldbu	r4,11(r3)
    2730:	110007c5 	stb	r4,31(r2)
    2734:	19000303 	ldbu	r4,12(r3)
    2738:	11000805 	stb	r4,32(r2)
    273c:	18c00343 	ldbu	r3,13(r3)
    2740:	10c00845 	stb	r3,33(r2)
   //ipv4_packet->ipv4_hdr.checksum         = BEW2LEW(checksum16(&ipv4_packet->ipv4_hdr, sizeof(ipv4_hdr_t)));

   // udp header
   ipv4_packet->udp_hdr.src_port          = socket->src_port;
    2744:	e0bff917 	ldw	r2,-28(fp)
    2748:	10c00603 	ldbu	r3,24(r2)
    274c:	10800643 	ldbu	r2,25(r2)
    2750:	1004923a 	slli	r2,r2,8
    2754:	10c4b03a 	or	r2,r2,r3
    2758:	100d883a 	mov	r6,r2
    275c:	e0bff817 	ldw	r2,-32(fp)
    2760:	30ffffcc 	andi	r3,r6,65535
    2764:	19403fcc 	andi	r5,r3,255
    2768:	10c00883 	ldbu	r3,34(r2)
    276c:	1806703a 	and	r3,r3,zero
    2770:	1809883a 	mov	r4,r3
    2774:	2807883a 	mov	r3,r5
    2778:	20c6b03a 	or	r3,r4,r3
    277c:	10c00885 	stb	r3,34(r2)
    2780:	30ffffcc 	andi	r3,r6,65535
    2784:	1806d23a 	srli	r3,r3,8
    2788:	197fffcc 	andi	r5,r3,65535
    278c:	10c008c3 	ldbu	r3,35(r2)
    2790:	1806703a 	and	r3,r3,zero
    2794:	1809883a 	mov	r4,r3
    2798:	2807883a 	mov	r3,r5
    279c:	20c6b03a 	or	r3,r4,r3
    27a0:	10c008c5 	stb	r3,35(r2)
   ipv4_packet->udp_hdr.dst_port          = socket->dst_port;
    27a4:	e0bff917 	ldw	r2,-28(fp)
    27a8:	10c00683 	ldbu	r3,26(r2)
    27ac:	108006c3 	ldbu	r2,27(r2)
    27b0:	1004923a 	slli	r2,r2,8
    27b4:	10c4b03a 	or	r2,r2,r3
    27b8:	100d883a 	mov	r6,r2
    27bc:	e0bff817 	ldw	r2,-32(fp)
    27c0:	30ffffcc 	andi	r3,r6,65535
    27c4:	19403fcc 	andi	r5,r3,255
    27c8:	10c00903 	ldbu	r3,36(r2)
    27cc:	1806703a 	and	r3,r3,zero
    27d0:	1809883a 	mov	r4,r3
    27d4:	2807883a 	mov	r3,r5
    27d8:	20c6b03a 	or	r3,r4,r3
    27dc:	10c00905 	stb	r3,36(r2)
    27e0:	30ffffcc 	andi	r3,r6,65535
    27e4:	1806d23a 	srli	r3,r3,8
    27e8:	197fffcc 	andi	r5,r3,65535
    27ec:	10c00943 	ldbu	r3,37(r2)
    27f0:	1806703a 	and	r3,r3,zero
    27f4:	1809883a 	mov	r4,r3
    27f8:	2807883a 	mov	r3,r5
    27fc:	20c6b03a 	or	r3,r4,r3
    2800:	10c00945 	stb	r3,37(r2)

   if(((network_ctx_t*)socket->net_ctx)->tx_send)
    2804:	e0bff917 	ldw	r2,-28(fp)
    2808:	10c00003 	ldbu	r3,0(r2)
    280c:	11000043 	ldbu	r4,1(r2)
    2810:	2008923a 	slli	r4,r4,8
    2814:	20c6b03a 	or	r3,r4,r3
    2818:	11000083 	ldbu	r4,2(r2)
    281c:	2008943a 	slli	r4,r4,16
    2820:	20c6b03a 	or	r3,r4,r3
    2824:	108000c3 	ldbu	r2,3(r2)
    2828:	1004963a 	slli	r2,r2,24
    282c:	10c4b03a 	or	r2,r2,r3
    2830:	1088b417 	ldw	r2,8912(r2)
    2834:	1000e726 	beq	r2,zero,2bd4 <udp_send+0x75c>
   {
      fragment = 0;
    2838:	e03ffa15 	stw	zero,-24(fp)
      while(tx_rest > 0)
    283c:	0000e306 	br	2bcc <udp_send+0x754>
      {
         tx_len = ((tx_rest > udp_max)? udp_max : tx_rest);
    2840:	e0fff617 	ldw	r3,-40(fp)
    2844:	e0bffc17 	ldw	r2,-16(fp)
    2848:	1880012e 	bgeu	r3,r2,2850 <udp_send+0x3d8>
    284c:	1805883a 	mov	r2,r3
    2850:	e0bff515 	stw	r2,-44(fp)
         tx_rest -= tx_len;
    2854:	e0fffc17 	ldw	r3,-16(fp)
    2858:	e0bff517 	ldw	r2,-44(fp)
    285c:	1885c83a 	sub	r2,r3,r2
    2860:	e0bffc15 	stw	r2,-16(fp)

         ipv4_packet->data[0] = (fragment >> 24) & 0xff;
    2864:	e0bffa17 	ldw	r2,-24(fp)
    2868:	1004d63a 	srli	r2,r2,24
    286c:	1007883a 	mov	r3,r2
    2870:	e0bff817 	ldw	r2,-32(fp)
    2874:	10c00a85 	stb	r3,42(r2)
         ipv4_packet->data[1] = (fragment >> 16) & 0xff;
    2878:	e0bffa17 	ldw	r2,-24(fp)
    287c:	1004d43a 	srli	r2,r2,16
    2880:	1007883a 	mov	r3,r2
    2884:	e0bff817 	ldw	r2,-32(fp)
    2888:	10c00ac5 	stb	r3,43(r2)
         ipv4_packet->data[2] = (fragment >> 8)  & 0xff;
    288c:	e0bffa17 	ldw	r2,-24(fp)
    2890:	1004d23a 	srli	r2,r2,8
    2894:	1007883a 	mov	r3,r2
    2898:	e0bff817 	ldw	r2,-32(fp)
    289c:	10c00b05 	stb	r3,44(r2)
         ipv4_packet->data[3] = (fragment >> 0)  & 0xff;
    28a0:	e0bffa17 	ldw	r2,-24(fp)
    28a4:	1007883a 	mov	r3,r2
    28a8:	e0bff817 	ldw	r2,-32(fp)
    28ac:	10c00b45 	stb	r3,45(r2)
         fragment++;
    28b0:	e0bffa17 	ldw	r2,-24(fp)
    28b4:	10800044 	addi	r2,r2,1
    28b8:	e0bffa15 	stw	r2,-24(fp)

         memcpy((ipv4_packet->data + 4), &(buffer[idx]), tx_len);
    28bc:	e0bff817 	ldw	r2,-32(fp)
    28c0:	10800a84 	addi	r2,r2,42
    28c4:	11000104 	addi	r4,r2,4
    28c8:	e0fff317 	ldw	r3,-52(fp)
    28cc:	e0bffb17 	ldw	r2,-20(fp)
    28d0:	1885883a 	add	r2,r3,r2
    28d4:	e1bff517 	ldw	r6,-44(fp)
    28d8:	100b883a 	mov	r5,r2
    28dc:	0015ac00 	call	15ac0 <memcpy>
         idx += tx_len;
    28e0:	e0fffb17 	ldw	r3,-20(fp)
    28e4:	e0bff517 	ldw	r2,-44(fp)
    28e8:	1885883a 	add	r2,r3,r2
    28ec:	e0bffb15 	stw	r2,-20(fp)

         ipv4_packet->ipv4_hdr.len              = LEW2BEW((sizeof(ipv4_hdr_t) + sizeof(udp_hdr_t) + tx_len + 4));
    28f0:	e0bff517 	ldw	r2,-44(fp)
    28f4:	10800804 	addi	r2,r2,32
    28f8:	1004923a 	slli	r2,r2,8
    28fc:	1007883a 	mov	r3,r2
    2900:	e0bff517 	ldw	r2,-44(fp)
    2904:	10800804 	addi	r2,r2,32
    2908:	1004d23a 	srli	r2,r2,8
    290c:	10803fcc 	andi	r2,r2,255
    2910:	1884b03a 	or	r2,r3,r2
    2914:	100d883a 	mov	r6,r2
    2918:	e0bff817 	ldw	r2,-32(fp)
    291c:	30ffffcc 	andi	r3,r6,65535
    2920:	19403fcc 	andi	r5,r3,255
    2924:	10c00403 	ldbu	r3,16(r2)
    2928:	1806703a 	and	r3,r3,zero
    292c:	1809883a 	mov	r4,r3
    2930:	2807883a 	mov	r3,r5
    2934:	20c6b03a 	or	r3,r4,r3
    2938:	10c00405 	stb	r3,16(r2)
    293c:	30ffffcc 	andi	r3,r6,65535
    2940:	1806d23a 	srli	r3,r3,8
    2944:	197fffcc 	andi	r5,r3,65535
    2948:	10c00443 	ldbu	r3,17(r2)
    294c:	1806703a 	and	r3,r3,zero
    2950:	1809883a 	mov	r4,r3
    2954:	2807883a 	mov	r3,r5
    2958:	20c6b03a 	or	r3,r4,r3
    295c:	10c00445 	stb	r3,17(r2)
         ipv4_packet->ipv4_hdr.checksum         = BEW2LEW(checksum16(&ipv4_packet->ipv4_hdr, sizeof(ipv4_hdr_t)));
    2960:	e0bff817 	ldw	r2,-32(fp)
    2964:	10800384 	addi	r2,r2,14
    2968:	01400504 	movi	r5,20
    296c:	1009883a 	mov	r4,r2
    2970:	00018f00 	call	18f0 <checksum16>
    2974:	10bfffcc 	andi	r2,r2,65535
    2978:	1004923a 	slli	r2,r2,8
    297c:	1021883a 	mov	r16,r2
    2980:	e0bff817 	ldw	r2,-32(fp)
    2984:	10800384 	addi	r2,r2,14
    2988:	01400504 	movi	r5,20
    298c:	1009883a 	mov	r4,r2
    2990:	00018f00 	call	18f0 <checksum16>
    2994:	10bfffcc 	andi	r2,r2,65535
    2998:	1005d23a 	srai	r2,r2,8
    299c:	10803fcc 	andi	r2,r2,255
    29a0:	8084b03a 	or	r2,r16,r2
    29a4:	100d883a 	mov	r6,r2
    29a8:	e0bff817 	ldw	r2,-32(fp)
    29ac:	30ffffcc 	andi	r3,r6,65535
    29b0:	19403fcc 	andi	r5,r3,255
    29b4:	10c00603 	ldbu	r3,24(r2)
    29b8:	1806703a 	and	r3,r3,zero
    29bc:	1809883a 	mov	r4,r3
    29c0:	2807883a 	mov	r3,r5
    29c4:	20c6b03a 	or	r3,r4,r3
    29c8:	10c00605 	stb	r3,24(r2)
    29cc:	30ffffcc 	andi	r3,r6,65535
    29d0:	1806d23a 	srli	r3,r3,8
    29d4:	197fffcc 	andi	r5,r3,65535
    29d8:	10c00643 	ldbu	r3,25(r2)
    29dc:	1806703a 	and	r3,r3,zero
    29e0:	1809883a 	mov	r4,r3
    29e4:	2807883a 	mov	r3,r5
    29e8:	20c6b03a 	or	r3,r4,r3
    29ec:	10c00645 	stb	r3,25(r2)
         ipv4_packet->udp_hdr.len               = LEW2BEW(sizeof(udp_hdr_t) + tx_len + 4);
    29f0:	e0bff517 	ldw	r2,-44(fp)
    29f4:	10800304 	addi	r2,r2,12
    29f8:	1004923a 	slli	r2,r2,8
    29fc:	1007883a 	mov	r3,r2
    2a00:	e0bff517 	ldw	r2,-44(fp)
    2a04:	10800304 	addi	r2,r2,12
    2a08:	1004d23a 	srli	r2,r2,8
    2a0c:	10803fcc 	andi	r2,r2,255
    2a10:	1884b03a 	or	r2,r3,r2
    2a14:	100d883a 	mov	r6,r2
    2a18:	e0bff817 	ldw	r2,-32(fp)
    2a1c:	30ffffcc 	andi	r3,r6,65535
    2a20:	19403fcc 	andi	r5,r3,255
    2a24:	10c00983 	ldbu	r3,38(r2)
    2a28:	1806703a 	and	r3,r3,zero
    2a2c:	1809883a 	mov	r4,r3
    2a30:	2807883a 	mov	r3,r5
    2a34:	20c6b03a 	or	r3,r4,r3
    2a38:	10c00985 	stb	r3,38(r2)
    2a3c:	30ffffcc 	andi	r3,r6,65535
    2a40:	1806d23a 	srli	r3,r3,8
    2a44:	197fffcc 	andi	r5,r3,65535
    2a48:	10c009c3 	ldbu	r3,39(r2)
    2a4c:	1806703a 	and	r3,r3,zero
    2a50:	1809883a 	mov	r4,r3
    2a54:	2807883a 	mov	r3,r5
    2a58:	20c6b03a 	or	r3,r4,r3
    2a5c:	10c009c5 	stb	r3,39(r2)

         ipv4_packet->udp_hdr.checksum          = 0;
    2a60:	e0bff817 	ldw	r2,-32(fp)
    2a64:	10c00a03 	ldbu	r3,40(r2)
    2a68:	1806703a 	and	r3,r3,zero
    2a6c:	10c00a05 	stb	r3,40(r2)
    2a70:	10c00a43 	ldbu	r3,41(r2)
    2a74:	1806703a 	and	r3,r3,zero
    2a78:	10c00a45 	stb	r3,41(r2)
         ipv4_packet->udp_hdr.checksum          = LEW2BEW(udp_checksum(ipv4_packet));
    2a7c:	e13ff817 	ldw	r4,-32(fp)
    2a80:	00021a80 	call	21a8 <udp_checksum>
    2a84:	10bfffcc 	andi	r2,r2,65535
    2a88:	1004923a 	slli	r2,r2,8
    2a8c:	1021883a 	mov	r16,r2
    2a90:	e13ff817 	ldw	r4,-32(fp)
    2a94:	00021a80 	call	21a8 <udp_checksum>
    2a98:	10bfffcc 	andi	r2,r2,65535
    2a9c:	1005d23a 	srai	r2,r2,8
    2aa0:	10803fcc 	andi	r2,r2,255
    2aa4:	8084b03a 	or	r2,r16,r2
    2aa8:	100d883a 	mov	r6,r2
    2aac:	e0bff817 	ldw	r2,-32(fp)
    2ab0:	30ffffcc 	andi	r3,r6,65535
    2ab4:	19403fcc 	andi	r5,r3,255
    2ab8:	10c00a03 	ldbu	r3,40(r2)
    2abc:	1806703a 	and	r3,r3,zero
    2ac0:	1809883a 	mov	r4,r3
    2ac4:	2807883a 	mov	r3,r5
    2ac8:	20c6b03a 	or	r3,r4,r3
    2acc:	10c00a05 	stb	r3,40(r2)
    2ad0:	30ffffcc 	andi	r3,r6,65535
    2ad4:	1806d23a 	srli	r3,r3,8
    2ad8:	197fffcc 	andi	r5,r3,65535
    2adc:	10c00a43 	ldbu	r3,41(r2)
    2ae0:	1806703a 	and	r3,r3,zero
    2ae4:	1809883a 	mov	r4,r3
    2ae8:	2807883a 	mov	r3,r5
    2aec:	20c6b03a 	or	r3,r4,r3
    2af0:	10c00a45 	stb	r3,41(r2)

         repeat = 0;
    2af4:	e03ffd15 	stw	zero,-12(fp)
         while(repeat < socket->repeat_limit)
    2af8:	00002606 	br	2b94 <udp_send+0x71c>
         {
            result = ((network_ctx_t*)socket->net_ctx)->tx_send((void*)(socket->net_ctx), (uint8_t*)frame, tx_len + sizeof(eth_udp_packet_t) + 4);
    2afc:	e0bff917 	ldw	r2,-28(fp)
    2b00:	10c00003 	ldbu	r3,0(r2)
    2b04:	11000043 	ldbu	r4,1(r2)
    2b08:	2008923a 	slli	r4,r4,8
    2b0c:	20c6b03a 	or	r3,r4,r3
    2b10:	11000083 	ldbu	r4,2(r2)
    2b14:	2008943a 	slli	r4,r4,16
    2b18:	20c6b03a 	or	r3,r4,r3
    2b1c:	108000c3 	ldbu	r2,3(r2)
    2b20:	1004963a 	slli	r2,r2,24
    2b24:	10c4b03a 	or	r2,r2,r3
    2b28:	10c8b417 	ldw	r3,8912(r2)
    2b2c:	e0bff917 	ldw	r2,-28(fp)
    2b30:	11000003 	ldbu	r4,0(r2)
    2b34:	11400043 	ldbu	r5,1(r2)
    2b38:	280a923a 	slli	r5,r5,8
    2b3c:	2908b03a 	or	r4,r5,r4
    2b40:	11400083 	ldbu	r5,2(r2)
    2b44:	280a943a 	slli	r5,r5,16
    2b48:	2908b03a 	or	r4,r5,r4
    2b4c:	108000c3 	ldbu	r2,3(r2)
    2b50:	1004963a 	slli	r2,r2,24
    2b54:	1104b03a 	or	r2,r2,r4
    2b58:	1009883a 	mov	r4,r2
    2b5c:	e0bff517 	ldw	r2,-44(fp)
    2b60:	10800b84 	addi	r2,r2,46
    2b64:	100d883a 	mov	r6,r2
    2b68:	014202b4 	movhi	r5,2058
    2b6c:	294b9c04 	addi	r5,r5,11888
    2b70:	183ee83a 	callr	r3
    2b74:	e0bffe15 	stw	r2,-8(fp)
            if(result < 0)
    2b78:	e0bffe17 	ldw	r2,-8(fp)
    2b7c:	1000130e 	bge	r2,zero,2bcc <udp_send+0x754>
            {
               //repeat action
               usleep(100);
    2b80:	01001904 	movi	r4,100
    2b84:	0025e400 	call	25e40 <usleep>
               repeat++;
    2b88:	e0bffd17 	ldw	r2,-12(fp)
    2b8c:	10800044 	addi	r2,r2,1
    2b90:	e0bffd15 	stw	r2,-12(fp)
         while(repeat < socket->repeat_limit)
    2b94:	e0bff917 	ldw	r2,-28(fp)
    2b98:	10c00743 	ldbu	r3,29(r2)
    2b9c:	11000783 	ldbu	r4,30(r2)
    2ba0:	2008923a 	slli	r4,r4,8
    2ba4:	20c6b03a 	or	r3,r4,r3
    2ba8:	110007c3 	ldbu	r4,31(r2)
    2bac:	2008943a 	slli	r4,r4,16
    2bb0:	20c6b03a 	or	r3,r4,r3
    2bb4:	10800803 	ldbu	r2,32(r2)
    2bb8:	1004963a 	slli	r2,r2,24
    2bbc:	10c4b03a 	or	r2,r2,r3
    2bc0:	1007883a 	mov	r3,r2
    2bc4:	e0bffd17 	ldw	r2,-12(fp)
    2bc8:	10ffcc36 	bltu	r2,r3,2afc <__alt_mem_mcu_subsystem_ram_0+0x77fe2afc>
      while(tx_rest > 0)
    2bcc:	e0bffc17 	ldw	r2,-16(fp)
    2bd0:	103f1b1e 	bne	r2,zero,2840 <__alt_mem_mcu_subsystem_ram_0+0x77fe2840>
            }
         }
      }
   }

   return result;
    2bd4:	e0bffe17 	ldw	r2,-8(fp)
}
    2bd8:	e6ffff04 	addi	sp,fp,-4
    2bdc:	dfc00217 	ldw	ra,8(sp)
    2be0:	df000117 	ldw	fp,4(sp)
    2be4:	dc000017 	ldw	r16,0(sp)
    2be8:	dec00304 	addi	sp,sp,12
    2bec:	f800283a 	ret

00002bf0 <mac_addr_compare>:

static uint32_t mac_addr_compare(mac_addr_t mac_addr1, mac_addr_t mac_addr2)
{
    2bf0:	defff904 	addi	sp,sp,-28
    2bf4:	df000615 	stw	fp,24(sp)
    2bf8:	df000604 	addi	fp,sp,24
    2bfc:	e13ffc15 	stw	r4,-16(fp)
    2c00:	e17ffd15 	stw	r5,-12(fp)
    2c04:	e1bffa15 	stw	r6,-24(fp)
    2c08:	e1fffb15 	stw	r7,-20(fp)
   uint32_t result = 1, i;
    2c0c:	00800044 	movi	r2,1
    2c10:	e0bfff15 	stw	r2,-4(fp)
   for(i = 0; i < MAC_ADDR_LENGTH; i++)
    2c14:	e03ffe15 	stw	zero,-8(fp)
    2c18:	00000e06 	br	2c54 <mac_addr_compare+0x64>
   {
      if(mac_addr1.address[i] != mac_addr2.address[i])
    2c1c:	e0bffe17 	ldw	r2,-8(fp)
    2c20:	e085883a 	add	r2,fp,r2
    2c24:	10fffc03 	ldbu	r3,-16(r2)
    2c28:	e0bffe17 	ldw	r2,-8(fp)
    2c2c:	e085883a 	add	r2,fp,r2
    2c30:	10bffa03 	ldbu	r2,-24(r2)
    2c34:	18c03fcc 	andi	r3,r3,255
    2c38:	10803fcc 	andi	r2,r2,255
    2c3c:	18800226 	beq	r3,r2,2c48 <mac_addr_compare+0x58>
      {
         result = 0;
    2c40:	e03fff15 	stw	zero,-4(fp)
         break;
    2c44:	00000606 	br	2c60 <mac_addr_compare+0x70>
   for(i = 0; i < MAC_ADDR_LENGTH; i++)
    2c48:	e0bffe17 	ldw	r2,-8(fp)
    2c4c:	10800044 	addi	r2,r2,1
    2c50:	e0bffe15 	stw	r2,-8(fp)
    2c54:	e0bffe17 	ldw	r2,-8(fp)
    2c58:	108001b0 	cmpltui	r2,r2,6
    2c5c:	103fef1e 	bne	r2,zero,2c1c <__alt_mem_mcu_subsystem_ram_0+0x77fe2c1c>
      }
   }
   return result;
    2c60:	e0bfff17 	ldw	r2,-4(fp)
}
    2c64:	e037883a 	mov	sp,fp
    2c68:	df000017 	ldw	fp,0(sp)
    2c6c:	dec00104 	addi	sp,sp,4
    2c70:	f800283a 	ret

00002c74 <arp_register>:

static int32_t arp_register(network_ctx_t *ctx, mac_addr_t mac_addr, uint32_t ip_addr)
{
    2c74:	defff504 	addi	sp,sp,-44
    2c78:	dfc00a15 	stw	ra,40(sp)
    2c7c:	df000915 	stw	fp,36(sp)
    2c80:	df000904 	addi	fp,sp,36
    2c84:	e13ffa15 	stw	r4,-24(fp)
    2c88:	e17ff815 	stw	r5,-32(fp)
    2c8c:	e1bff915 	stw	r6,-28(fp)
    2c90:	e1fff715 	stw	r7,-36(fp)
   int32_t result = -1;
    2c94:	00bfffc4 	movi	r2,-1
    2c98:	e0bfff15 	stw	r2,-4(fp)
   uint32_t i, j = -1, found = 0, free = 0;
    2c9c:	00bfffc4 	movi	r2,-1
    2ca0:	e0bffd15 	stw	r2,-12(fp)
    2ca4:	e03ffc15 	stw	zero,-16(fp)
    2ca8:	e03ffb15 	stw	zero,-20(fp)
   for(i = 0; i < ARP_TABLE_NUM; i++)
    2cac:	e03ffe15 	stw	zero,-8(fp)
    2cb0:	00003b06 	br	2da0 <arp_register+0x12c>
   {
      if(ctx->arp_ipv4_table[i].enabled == 1)
    2cb4:	e0fffa17 	ldw	r3,-24(fp)
    2cb8:	e0bffe17 	ldw	r2,-8(fp)
    2cbc:	10800524 	muli	r2,r2,20
    2cc0:	1885883a 	add	r2,r3,r2
    2cc4:	10881703 	ldbu	r2,8284(r2)
    2cc8:	10803fcc 	andi	r2,r2,255
    2ccc:	10800058 	cmpnei	r2,r2,1
    2cd0:	10002a1e 	bne	r2,zero,2d7c <arp_register+0x108>
      {
         if(ctx->arp_ipv4_table[i].device_info.ip_addr.addr32 == ip_addr)
    2cd4:	e0fffa17 	ldw	r3,-24(fp)
    2cd8:	e0bffe17 	ldw	r2,-8(fp)
    2cdc:	10800524 	muli	r2,r2,20
    2ce0:	1885883a 	add	r2,r3,r2
    2ce4:	10c81517 	ldw	r3,8276(r2)
    2ce8:	1806d43a 	srli	r3,r3,16
    2cec:	10881617 	ldw	r2,8280(r2)
    2cf0:	10bfffcc 	andi	r2,r2,65535
    2cf4:	1004943a 	slli	r2,r2,16
    2cf8:	10c4b03a 	or	r2,r2,r3
    2cfc:	1007883a 	mov	r3,r2
    2d00:	e0bff717 	ldw	r2,-36(fp)
    2d04:	10c0231e 	bne	r2,r3,2d94 <arp_register+0x120>
         {
            if(mac_addr_compare(ctx->arp_ipv4_table[i].device_info.mac_addr, mac_addr) == 1)
    2d08:	e0fffa17 	ldw	r3,-24(fp)
    2d0c:	e0bffe17 	ldw	r2,-8(fp)
    2d10:	10800524 	muli	r2,r2,20
    2d14:	1885883a 	add	r2,r3,r2
    2d18:	e1bff817 	ldw	r6,-32(fp)
    2d1c:	e1fff917 	ldw	r7,-28(fp)
    2d20:	11081417 	ldw	r4,8272(r2)
    2d24:	11481517 	ldw	r5,8276(r2)
    2d28:	0002bf00 	call	2bf0 <mac_addr_compare>
    2d2c:	10800058 	cmpnei	r2,r2,1
    2d30:	1000051e 	bne	r2,zero,2d48 <arp_register+0xd4>
            {
               found = 1;
    2d34:	00800044 	movi	r2,1
    2d38:	e0bffc15 	stw	r2,-16(fp)
               result = i;
    2d3c:	e0bffe17 	ldw	r2,-8(fp)
    2d40:	e0bfff15 	stw	r2,-4(fp)
               break;
    2d44:	00001906 	br	2dac <arp_register+0x138>
            }
            else
            {
               // rewrite mac address
               ctx->arp_ipv4_table[i].device_info.mac_addr = mac_addr;
    2d48:	e0fffa17 	ldw	r3,-24(fp)
    2d4c:	e0bffe17 	ldw	r2,-8(fp)
    2d50:	10800524 	muli	r2,r2,20
    2d54:	1885883a 	add	r2,r3,r2
    2d58:	e0fff817 	ldw	r3,-32(fp)
    2d5c:	10c81415 	stw	r3,8272(r2)
    2d60:	e0fff90b 	ldhu	r3,-28(fp)
    2d64:	10c8150d 	sth	r3,8276(r2)
               found = 1;
    2d68:	00800044 	movi	r2,1
    2d6c:	e0bffc15 	stw	r2,-16(fp)
               result = i;
    2d70:	e0bffe17 	ldw	r2,-8(fp)
    2d74:	e0bfff15 	stw	r2,-4(fp)
               break;
    2d78:	00000c06 	br	2dac <arp_register+0x138>
            }
         }
      }
      else
      {
         if(free == 0)
    2d7c:	e0bffb17 	ldw	r2,-20(fp)
    2d80:	1000041e 	bne	r2,zero,2d94 <arp_register+0x120>
         {
            free = 1;
    2d84:	00800044 	movi	r2,1
    2d88:	e0bffb15 	stw	r2,-20(fp)
            j = i;
    2d8c:	e0bffe17 	ldw	r2,-8(fp)
    2d90:	e0bffd15 	stw	r2,-12(fp)
   for(i = 0; i < ARP_TABLE_NUM; i++)
    2d94:	e0bffe17 	ldw	r2,-8(fp)
    2d98:	10800044 	addi	r2,r2,1
    2d9c:	e0bffe15 	stw	r2,-8(fp)
    2da0:	e0bffe17 	ldw	r2,-8(fp)
    2da4:	10800830 	cmpltui	r2,r2,32
    2da8:	103fc21e 	bne	r2,zero,2cb4 <__alt_mem_mcu_subsystem_ram_0+0x77fe2cb4>
         }
      }
   }
   if(found == 0)
    2dac:	e0bffc17 	ldw	r2,-16(fp)
    2db0:	10002a1e 	bne	r2,zero,2e5c <arp_register+0x1e8>
   {
      if(free == 1)
    2db4:	e0bffb17 	ldw	r2,-20(fp)
    2db8:	10800058 	cmpnei	r2,r2,1
    2dbc:	1000271e 	bne	r2,zero,2e5c <arp_register+0x1e8>
      {
         if(j != -1)
    2dc0:	e0bffd17 	ldw	r2,-12(fp)
    2dc4:	10bfffe0 	cmpeqi	r2,r2,-1
    2dc8:	1000241e 	bne	r2,zero,2e5c <arp_register+0x1e8>
         {
            ctx->arp_ipv4_table[j].enabled = 1;
    2dcc:	e0fffa17 	ldw	r3,-24(fp)
    2dd0:	e0bffd17 	ldw	r2,-12(fp)
    2dd4:	10800524 	muli	r2,r2,20
    2dd8:	1885883a 	add	r2,r3,r2
    2ddc:	00c00044 	movi	r3,1
    2de0:	10c81705 	stb	r3,8284(r2)
            ctx->arp_ipv4_table[j].device_info.mac_addr = mac_addr;
    2de4:	e0fffa17 	ldw	r3,-24(fp)
    2de8:	e0bffd17 	ldw	r2,-12(fp)
    2dec:	10800524 	muli	r2,r2,20
    2df0:	1885883a 	add	r2,r3,r2
    2df4:	e0fff817 	ldw	r3,-32(fp)
    2df8:	10c81415 	stw	r3,8272(r2)
    2dfc:	e0fff90b 	ldhu	r3,-28(fp)
    2e00:	10c8150d 	sth	r3,8276(r2)
            ctx->arp_ipv4_table[j].device_info.ip_addr.addr32 = ip_addr;
    2e04:	e0fffa17 	ldw	r3,-24(fp)
    2e08:	e0bffd17 	ldw	r2,-12(fp)
    2e0c:	10800524 	muli	r2,r2,20
    2e10:	1885883a 	add	r2,r3,r2
    2e14:	e0fff717 	ldw	r3,-36(fp)
    2e18:	197fffcc 	andi	r5,r3,65535
    2e1c:	10c8158b 	ldhu	r3,8278(r2)
    2e20:	1806703a 	and	r3,r3,zero
    2e24:	1809883a 	mov	r4,r3
    2e28:	2807883a 	mov	r3,r5
    2e2c:	20c6b03a 	or	r3,r4,r3
    2e30:	10c8158d 	sth	r3,8278(r2)
    2e34:	e0fff717 	ldw	r3,-36(fp)
    2e38:	180ad43a 	srli	r5,r3,16
    2e3c:	10c8160b 	ldhu	r3,8280(r2)
    2e40:	1806703a 	and	r3,r3,zero
    2e44:	1809883a 	mov	r4,r3
    2e48:	2807883a 	mov	r3,r5
    2e4c:	20c6b03a 	or	r3,r4,r3
    2e50:	10c8160d 	sth	r3,8280(r2)
            result = j;
    2e54:	e0bffd17 	ldw	r2,-12(fp)
    2e58:	e0bfff15 	stw	r2,-4(fp)
         }
      }
   }
   return result;
    2e5c:	e0bfff17 	ldw	r2,-4(fp)
}
    2e60:	e037883a 	mov	sp,fp
    2e64:	dfc00117 	ldw	ra,4(sp)
    2e68:	df000017 	ldw	fp,0(sp)
    2e6c:	dec00204 	addi	sp,sp,8
    2e70:	f800283a 	ret

00002e74 <get_free_port>:

uint16_t get_free_port()
{
    2e74:	defffe04 	addi	sp,sp,-8
    2e78:	df000115 	stw	fp,4(sp)
    2e7c:	df000104 	addi	fp,sp,4
   uint16_t port = 0;
    2e80:	e03fff8d 	sth	zero,-2(fp)

   return port;
    2e84:	e0bfff8b 	ldhu	r2,-2(fp)
}
    2e88:	e037883a 	mov	sp,fp
    2e8c:	df000017 	ldw	fp,0(sp)
    2e90:	dec00104 	addi	sp,sp,4
    2e94:	f800283a 	ret

00002e98 <ip_task>:

void ip_task(uint32_t handle)
{
    2e98:	defffe04 	addi	sp,sp,-8
    2e9c:	df000115 	stw	fp,4(sp)
    2ea0:	df000104 	addi	fp,sp,4
    2ea4:	e13fff15 	stw	r4,-4(fp)

}
    2ea8:	0001883a 	nop
    2eac:	e037883a 	mov	sp,fp
    2eb0:	df000017 	ldw	fp,0(sp)
    2eb4:	dec00104 	addi	sp,sp,4
    2eb8:	f800283a 	ret

00002ebc <get_arp>:

static uint32_t get_arp(ip_addr_t target_ip, mac_addr_t *mac_addr)
{
    2ebc:	defffb04 	addi	sp,sp,-20
    2ec0:	df000415 	stw	fp,16(sp)
    2ec4:	df000404 	addi	fp,sp,16
    2ec8:	e13ffd15 	stw	r4,-12(fp)
    2ecc:	e17ffc15 	stw	r5,-16(fp)
   uint32_t i;
   uint32_t result = 0;
    2ed0:	e03ffe15 	stw	zero,-8(fp)
   for(i = 0; i < ARP_TABLE_NUM; i++)
    2ed4:	e03fff15 	stw	zero,-4(fp)
    2ed8:	00003706 	br	2fb8 <get_arp+0xfc>
   {
      if(network_ctx.arp_ipv4_table[i].enabled == 1)
    2edc:	e0bfff17 	ldw	r2,-4(fp)
    2ee0:	10c00524 	muli	r3,r2,20
    2ee4:	00800134 	movhi	r2,4
    2ee8:	1885883a 	add	r2,r3,r2
    2eec:	10ae3703 	ldbu	r2,-18212(r2)
    2ef0:	10803fcc 	andi	r2,r2,255
    2ef4:	10800058 	cmpnei	r2,r2,1
    2ef8:	10002c1e 	bne	r2,zero,2fac <get_arp+0xf0>
      {
         if(network_ctx.arp_ipv4_table[i].device_info.ip_addr.addr32 == target_ip.addr32)
    2efc:	e0bfff17 	ldw	r2,-4(fp)
    2f00:	10c00524 	muli	r3,r2,20
    2f04:	00800134 	movhi	r2,4
    2f08:	1885883a 	add	r2,r3,r2
    2f0c:	10ae3517 	ldw	r2,-18220(r2)
    2f10:	1008d43a 	srli	r4,r2,16
    2f14:	00800134 	movhi	r2,4
    2f18:	1885883a 	add	r2,r3,r2
    2f1c:	10ae3617 	ldw	r2,-18216(r2)
    2f20:	10bfffcc 	andi	r2,r2,65535
    2f24:	1004943a 	slli	r2,r2,16
    2f28:	1104b03a 	or	r2,r2,r4
    2f2c:	1007883a 	mov	r3,r2
    2f30:	e0bffd17 	ldw	r2,-12(fp)
    2f34:	18801d1e 	bne	r3,r2,2fac <get_arp+0xf0>
         {
            //
            *mac_addr = network_ctx.arp_ipv4_table[i].device_info.mac_addr;
    2f38:	e0bffc17 	ldw	r2,-16(fp)
    2f3c:	e0ffff17 	ldw	r3,-4(fp)
    2f40:	18c00524 	muli	r3,r3,20
    2f44:	01000134 	movhi	r4,4
    2f48:	1909883a 	add	r4,r3,r4
    2f4c:	212e3403 	ldbu	r4,-18224(r4)
    2f50:	11000005 	stb	r4,0(r2)
    2f54:	01000134 	movhi	r4,4
    2f58:	1909883a 	add	r4,r3,r4
    2f5c:	212e3443 	ldbu	r4,-18223(r4)
    2f60:	11000045 	stb	r4,1(r2)
    2f64:	01000134 	movhi	r4,4
    2f68:	1909883a 	add	r4,r3,r4
    2f6c:	212e3483 	ldbu	r4,-18222(r4)
    2f70:	11000085 	stb	r4,2(r2)
    2f74:	01000134 	movhi	r4,4
    2f78:	1909883a 	add	r4,r3,r4
    2f7c:	212e34c3 	ldbu	r4,-18221(r4)
    2f80:	110000c5 	stb	r4,3(r2)
    2f84:	01000134 	movhi	r4,4
    2f88:	1909883a 	add	r4,r3,r4
    2f8c:	212e3503 	ldbu	r4,-18220(r4)
    2f90:	11000105 	stb	r4,4(r2)
    2f94:	01000134 	movhi	r4,4
    2f98:	1909883a 	add	r4,r3,r4
    2f9c:	20ee3543 	ldbu	r3,-18219(r4)
    2fa0:	10c00145 	stb	r3,5(r2)
            result = 1;
    2fa4:	00800044 	movi	r2,1
    2fa8:	e0bffe15 	stw	r2,-8(fp)
   for(i = 0; i < ARP_TABLE_NUM; i++)
    2fac:	e0bfff17 	ldw	r2,-4(fp)
    2fb0:	10800044 	addi	r2,r2,1
    2fb4:	e0bfff15 	stw	r2,-4(fp)
    2fb8:	e0bfff17 	ldw	r2,-4(fp)
    2fbc:	10800830 	cmpltui	r2,r2,32
    2fc0:	103fc61e 	bne	r2,zero,2edc <__alt_mem_mcu_subsystem_ram_0+0x77fe2edc>
         }
      }
   }
   return result;
    2fc4:	e0bffe17 	ldw	r2,-8(fp)
}
    2fc8:	e037883a 	mov	sp,fp
    2fcc:	df000017 	ldw	fp,0(sp)
    2fd0:	dec00104 	addi	sp,sp,4
    2fd4:	f800283a 	ret

00002fd8 <open_socket>:

uint32_t open_socket(ip_addr_t target_ip, uint16_t src_port, uint16_t dst_port, uint8_t protocol, ethernet_rx_cb rx_cb)
{
    2fd8:	defff504 	addi	sp,sp,-44
    2fdc:	dfc00a15 	stw	ra,40(sp)
    2fe0:	df000915 	stw	fp,36(sp)
    2fe4:	df000904 	addi	fp,sp,36
    2fe8:	e13ffa15 	stw	r4,-24(fp)
    2fec:	2805883a 	mov	r2,r5
    2ff0:	3009883a 	mov	r4,r6
    2ff4:	3807883a 	mov	r3,r7
    2ff8:	e0bff90d 	sth	r2,-28(fp)
    2ffc:	2005883a 	mov	r2,r4
    3000:	e0bff80d 	sth	r2,-32(fp)
    3004:	1805883a 	mov	r2,r3
    3008:	e0bff705 	stb	r2,-36(fp)
   uint32_t i, status;
   uint32_t handle = 0;
    300c:	e03ffe15 	stw	zero,-8(fp)
   mac_addr_t mac_addr;
   for(i = 0; i < SOCKET_MAX_ITEMS; i++)
    3010:	e03fff15 	stw	zero,-4(fp)
    3014:	0000e706 	br	33b4 <open_socket+0x3dc>
   {
      if(network_ctx.sockets_items[i].enabled == 0)
    3018:	e0bfff17 	ldw	r2,-4(fp)
    301c:	10c00a24 	muli	r3,r2,40
    3020:	008002b4 	movhi	r2,10
    3024:	10bfe704 	addi	r2,r2,-100
    3028:	1885883a 	add	r2,r3,r2
    302c:	10800003 	ldbu	r2,0(r2)
    3030:	10803fcc 	andi	r2,r2,255
    3034:	1000dc1e 	bne	r2,zero,33a8 <open_socket+0x3d0>
      {
         network_ctx.sockets_items[i].socket.net_ctx  = &network_ctx;
    3038:	00c00134 	movhi	r3,4
    303c:	18e62004 	addi	r3,r3,-26496
    3040:	e0bfff17 	ldw	r2,-4(fp)
    3044:	11000a24 	muli	r4,r2,40
    3048:	008002b4 	movhi	r2,10
    304c:	10bfdd04 	addi	r2,r2,-140
    3050:	2085883a 	add	r2,r4,r2
    3054:	19803fcc 	andi	r6,r3,255
    3058:	11000043 	ldbu	r4,1(r2)
    305c:	2008703a 	and	r4,r4,zero
    3060:	200b883a 	mov	r5,r4
    3064:	3009883a 	mov	r4,r6
    3068:	2908b03a 	or	r4,r5,r4
    306c:	11000045 	stb	r4,1(r2)
    3070:	1808d23a 	srli	r4,r3,8
    3074:	21803fcc 	andi	r6,r4,255
    3078:	11000083 	ldbu	r4,2(r2)
    307c:	2008703a 	and	r4,r4,zero
    3080:	200b883a 	mov	r5,r4
    3084:	3009883a 	mov	r4,r6
    3088:	2908b03a 	or	r4,r5,r4
    308c:	11000085 	stb	r4,2(r2)
    3090:	1808d43a 	srli	r4,r3,16
    3094:	21803fcc 	andi	r6,r4,255
    3098:	110000c3 	ldbu	r4,3(r2)
    309c:	2008703a 	and	r4,r4,zero
    30a0:	200b883a 	mov	r5,r4
    30a4:	3009883a 	mov	r4,r6
    30a8:	2908b03a 	or	r4,r5,r4
    30ac:	110000c5 	stb	r4,3(r2)
    30b0:	180ad63a 	srli	r5,r3,24
    30b4:	10c00103 	ldbu	r3,4(r2)
    30b8:	1806703a 	and	r3,r3,zero
    30bc:	1809883a 	mov	r4,r3
    30c0:	2807883a 	mov	r3,r5
    30c4:	20c6b03a 	or	r3,r4,r3
    30c8:	10c00105 	stb	r3,4(r2)

         network_ctx.sockets_items[i].socket.dst_port = LEW2BEW(dst_port);
    30cc:	e0bff80b 	ldhu	r2,-32(fp)
    30d0:	1004923a 	slli	r2,r2,8
    30d4:	1007883a 	mov	r3,r2
    30d8:	e0bff80b 	ldhu	r2,-32(fp)
    30dc:	1004d23a 	srli	r2,r2,8
    30e0:	1884b03a 	or	r2,r3,r2
    30e4:	100d883a 	mov	r6,r2
    30e8:	e0bfff17 	ldw	r2,-4(fp)
    30ec:	10c00a24 	muli	r3,r2,40
    30f0:	008002b4 	movhi	r2,10
    30f4:	10bfe304 	addi	r2,r2,-116
    30f8:	1885883a 	add	r2,r3,r2
    30fc:	30ffffcc 	andi	r3,r6,65535
    3100:	19403fcc 	andi	r5,r3,255
    3104:	10c000c3 	ldbu	r3,3(r2)
    3108:	1806703a 	and	r3,r3,zero
    310c:	1809883a 	mov	r4,r3
    3110:	2807883a 	mov	r3,r5
    3114:	20c6b03a 	or	r3,r4,r3
    3118:	10c000c5 	stb	r3,3(r2)
    311c:	30ffffcc 	andi	r3,r6,65535
    3120:	1806d23a 	srli	r3,r3,8
    3124:	197fffcc 	andi	r5,r3,65535
    3128:	10c00103 	ldbu	r3,4(r2)
    312c:	1806703a 	and	r3,r3,zero
    3130:	1809883a 	mov	r4,r3
    3134:	2807883a 	mov	r3,r5
    3138:	20c6b03a 	or	r3,r4,r3
    313c:	10c00105 	stb	r3,4(r2)
         network_ctx.sockets_items[i].socket.src_port = LEW2BEW(src_port);
    3140:	e0bff90b 	ldhu	r2,-28(fp)
    3144:	1004923a 	slli	r2,r2,8
    3148:	1007883a 	mov	r3,r2
    314c:	e0bff90b 	ldhu	r2,-28(fp)
    3150:	1004d23a 	srli	r2,r2,8
    3154:	1884b03a 	or	r2,r3,r2
    3158:	100d883a 	mov	r6,r2
    315c:	e0bfff17 	ldw	r2,-4(fp)
    3160:	10c00a24 	muli	r3,r2,40
    3164:	008002b4 	movhi	r2,10
    3168:	10bfe304 	addi	r2,r2,-116
    316c:	1885883a 	add	r2,r3,r2
    3170:	30ffffcc 	andi	r3,r6,65535
    3174:	19403fcc 	andi	r5,r3,255
    3178:	10c00043 	ldbu	r3,1(r2)
    317c:	1806703a 	and	r3,r3,zero
    3180:	1809883a 	mov	r4,r3
    3184:	2807883a 	mov	r3,r5
    3188:	20c6b03a 	or	r3,r4,r3
    318c:	10c00045 	stb	r3,1(r2)
    3190:	30ffffcc 	andi	r3,r6,65535
    3194:	1806d23a 	srli	r3,r3,8
    3198:	197fffcc 	andi	r5,r3,65535
    319c:	10c00083 	ldbu	r3,2(r2)
    31a0:	1806703a 	and	r3,r3,zero
    31a4:	1809883a 	mov	r4,r3
    31a8:	2807883a 	mov	r3,r5
    31ac:	20c6b03a 	or	r3,r4,r3
    31b0:	10c00085 	stb	r3,2(r2)

         network_ctx.sockets_items[i].socket.protocol = protocol;
    31b4:	e0bfff17 	ldw	r2,-4(fp)
    31b8:	10c00a24 	muli	r3,r2,40
    31bc:	008002b4 	movhi	r2,10
    31c0:	10bfe444 	addi	r2,r2,-111
    31c4:	1885883a 	add	r2,r3,r2
    31c8:	e0fff703 	ldbu	r3,-36(fp)
    31cc:	10c00005 	stb	r3,0(r2)
         network_ctx.sockets_items[i].socket.version = 4;
    31d0:	e0bfff17 	ldw	r2,-4(fp)
    31d4:	10c00a24 	muli	r3,r2,40
    31d8:	008002b4 	movhi	r2,10
    31dc:	10bfe204 	addi	r2,r2,-120
    31e0:	1885883a 	add	r2,r3,r2
    31e4:	11000103 	ldbu	r4,4(r2)
    31e8:	00fffc04 	movi	r3,-16
    31ec:	20c6703a 	and	r3,r4,r3
    31f0:	18c00114 	ori	r3,r3,4
    31f4:	10c00105 	stb	r3,4(r2)
         network_ctx.sockets_items[i].socket.hdr_len = 5;
    31f8:	e0bfff17 	ldw	r2,-4(fp)
    31fc:	10c00a24 	muli	r3,r2,40
    3200:	008002b4 	movhi	r2,10
    3204:	10bfe204 	addi	r2,r2,-120
    3208:	1885883a 	add	r2,r3,r2
    320c:	10c00103 	ldbu	r3,4(r2)
    3210:	18c003cc 	andi	r3,r3,15
    3214:	18c01414 	ori	r3,r3,80
    3218:	10c00105 	stb	r3,4(r2)
         network_ctx.sockets_items[i].socket.send_cnt = 0;
    321c:	e0bfff17 	ldw	r2,-4(fp)
    3220:	10c00a24 	muli	r3,r2,40
    3224:	008002b4 	movhi	r2,10
    3228:	10bfe204 	addi	r2,r2,-120
    322c:	1885883a 	add	r2,r3,r2
    3230:	10000015 	stw	zero,0(r2)
         network_ctx.sockets_items[i].socket.repeat_limit = 10;
    3234:	e0bfff17 	ldw	r2,-4(fp)
    3238:	10c00a24 	muli	r3,r2,40
    323c:	008002b4 	movhi	r2,10
    3240:	10bfe404 	addi	r2,r2,-112
    3244:	1885883a 	add	r2,r3,r2
    3248:	10c0008b 	ldhu	r3,2(r2)
    324c:	1806703a 	and	r3,r3,zero
    3250:	18c00294 	ori	r3,r3,10
    3254:	10c0008d 	sth	r3,2(r2)
    3258:	10c0010b 	ldhu	r3,4(r2)
    325c:	1806703a 	and	r3,r3,zero
    3260:	10c0010d 	sth	r3,4(r2)
         network_ctx.sockets_items[i].socket.eth_type = 0x0008;
    3264:	e0bfff17 	ldw	r2,-4(fp)
    3268:	10c00a24 	muli	r3,r2,40
    326c:	008002b4 	movhi	r2,10
    3270:	10bfe104 	addi	r2,r2,-124
    3274:	1885883a 	add	r2,r3,r2
    3278:	10c00043 	ldbu	r3,1(r2)
    327c:	1806703a 	and	r3,r3,zero
    3280:	18c00214 	ori	r3,r3,8
    3284:	10c00045 	stb	r3,1(r2)
    3288:	10c00083 	ldbu	r3,2(r2)
    328c:	1806703a 	and	r3,r3,zero
    3290:	10c00085 	stb	r3,2(r2)
         network_ctx.sockets_items[i].socket.ipv4_type = 0;
    3294:	e0bfff17 	ldw	r2,-4(fp)
    3298:	10c00a24 	muli	r3,r2,40
    329c:	008002b4 	movhi	r2,10
    32a0:	10bfe1c4 	addi	r2,r2,-121
    32a4:	1885883a 	add	r2,r3,r2
    32a8:	10000005 	stb	zero,0(r2)
         network_ctx.sockets_items[i].socket.destination.ip_addr = target_ip;
    32ac:	e0bfff17 	ldw	r2,-4(fp)
    32b0:	10c00a24 	muli	r3,r2,40
    32b4:	008002b4 	movhi	r2,10
    32b8:	10bfdf04 	addi	r2,r2,-132
    32bc:	1885883a 	add	r2,r3,r2
    32c0:	e0fffa03 	ldbu	r3,-24(fp)
    32c4:	10c000c5 	stb	r3,3(r2)
    32c8:	e0fffa43 	ldbu	r3,-23(fp)
    32cc:	10c00105 	stb	r3,4(r2)
    32d0:	e0fffa83 	ldbu	r3,-22(fp)
    32d4:	10c00145 	stb	r3,5(r2)
    32d8:	e0fffac3 	ldbu	r3,-21(fp)
    32dc:	10c00185 	stb	r3,6(r2)
         network_ctx.sockets_items[i].socket.rx_cb = rx_cb;
    32e0:	e0bfff17 	ldw	r2,-4(fp)
    32e4:	10c00a24 	muli	r3,r2,40
    32e8:	008002b4 	movhi	r2,10
    32ec:	10bfe604 	addi	r2,r2,-104
    32f0:	1885883a 	add	r2,r3,r2
    32f4:	e0c00217 	ldw	r3,8(fp)
    32f8:	10c00015 	stw	r3,0(r2)
         // check ARP for target
         //
         status = get_arp(target_ip, &mac_addr);
    32fc:	e0bffb84 	addi	r2,fp,-18
    3300:	100b883a 	mov	r5,r2
    3304:	e13ffa17 	ldw	r4,-24(fp)
    3308:	0002ebc0 	call	2ebc <get_arp>
    330c:	e0bffd15 	stw	r2,-12(fp)
         if(status == 1)
    3310:	e0bffd17 	ldw	r2,-12(fp)
    3314:	10800058 	cmpnei	r2,r2,1
    3318:	10002a1e 	bne	r2,zero,33c4 <open_socket+0x3ec>
         {
            network_ctx.sockets_items[i].socket.destination.mac_addr = mac_addr;
    331c:	e0bfff17 	ldw	r2,-4(fp)
    3320:	10c00a24 	muli	r3,r2,40
    3324:	008002b4 	movhi	r2,10
    3328:	10bfde04 	addi	r2,r2,-136
    332c:	1885883a 	add	r2,r3,r2
    3330:	e0fffb83 	ldbu	r3,-18(fp)
    3334:	10c00045 	stb	r3,1(r2)
    3338:	e0fffbc3 	ldbu	r3,-17(fp)
    333c:	10c00085 	stb	r3,2(r2)
    3340:	e0fffc03 	ldbu	r3,-16(fp)
    3344:	10c000c5 	stb	r3,3(r2)
    3348:	e0fffc43 	ldbu	r3,-15(fp)
    334c:	10c00105 	stb	r3,4(r2)
    3350:	e0fffc83 	ldbu	r3,-14(fp)
    3354:	10c00145 	stb	r3,5(r2)
    3358:	e0fffcc3 	ldbu	r3,-13(fp)
    335c:	10c00185 	stb	r3,6(r2)
            network_ctx.sockets_items[i].enabled = 1;
    3360:	e0bfff17 	ldw	r2,-4(fp)
    3364:	10c00a24 	muli	r3,r2,40
    3368:	008002b4 	movhi	r2,10
    336c:	10bfe704 	addi	r2,r2,-100
    3370:	1885883a 	add	r2,r3,r2
    3374:	00c00044 	movi	r3,1
    3378:	10c00005 	stb	r3,0(r2)
            handle = (uint32_t)(&(network_ctx.sockets_items[i].socket));
    337c:	e0bfff17 	ldw	r2,-4(fp)
    3380:	10c00a24 	muli	r3,r2,40
    3384:	008001b4 	movhi	r2,6
    3388:	1099bd04 	addi	r2,r2,26356
    338c:	1887883a 	add	r3,r3,r2
    3390:	00800134 	movhi	r2,4
    3394:	10a62004 	addi	r2,r2,-26496
    3398:	1885883a 	add	r2,r3,r2
    339c:	10800044 	addi	r2,r2,1
    33a0:	e0bffe15 	stw	r2,-8(fp)
         }
         break;
    33a4:	00000706 	br	33c4 <open_socket+0x3ec>
   for(i = 0; i < SOCKET_MAX_ITEMS; i++)
    33a8:	e0bfff17 	ldw	r2,-4(fp)
    33ac:	10800044 	addi	r2,r2,1
    33b0:	e0bfff15 	stw	r2,-4(fp)
    33b4:	e0bfff17 	ldw	r2,-4(fp)
    33b8:	10800230 	cmpltui	r2,r2,8
    33bc:	103f161e 	bne	r2,zero,3018 <__alt_mem_mcu_subsystem_ram_0+0x77fe3018>
    33c0:	00000106 	br	33c8 <open_socket+0x3f0>
         break;
    33c4:	0001883a 	nop
      }
   }

   return handle;
    33c8:	e0bffe17 	ldw	r2,-8(fp)
}
    33cc:	e037883a 	mov	sp,fp
    33d0:	dfc00117 	ldw	ra,4(sp)
    33d4:	df000017 	ldw	fp,0(sp)
    33d8:	dec00204 	addi	sp,sp,8
    33dc:	f800283a 	ret

000033e0 <close_socket>:

void close_socket(uint32_t handle)
{
    33e0:	defffc04 	addi	sp,sp,-16
    33e4:	dfc00315 	stw	ra,12(sp)
    33e8:	df000215 	stw	fp,8(sp)
    33ec:	df000204 	addi	fp,sp,8
    33f0:	e13ffe15 	stw	r4,-8(fp)
   uint32_t i;
   for(i = 0; i < SOCKET_MAX_ITEMS; i++)
    33f4:	e03fff15 	stw	zero,-4(fp)
    33f8:	00001d06 	br	3470 <close_socket+0x90>
   {
      if(((uint32_t)&(network_ctx.sockets_items[i].socket)) == handle)
    33fc:	e0bfff17 	ldw	r2,-4(fp)
    3400:	10c00a24 	muli	r3,r2,40
    3404:	008001b4 	movhi	r2,6
    3408:	1099bd04 	addi	r2,r2,26356
    340c:	1887883a 	add	r3,r3,r2
    3410:	00800134 	movhi	r2,4
    3414:	10a62004 	addi	r2,r2,-26496
    3418:	1885883a 	add	r2,r3,r2
    341c:	10800044 	addi	r2,r2,1
    3420:	1007883a 	mov	r3,r2
    3424:	e0bffe17 	ldw	r2,-8(fp)
    3428:	10c00e1e 	bne	r2,r3,3464 <close_socket+0x84>
      {
         memset(&(network_ctx.sockets_items[i]), 0, sizeof(ipv4_socket_item_t));
    342c:	e0bfff17 	ldw	r2,-4(fp)
    3430:	10c00a24 	muli	r3,r2,40
    3434:	008001b4 	movhi	r2,6
    3438:	1099bd04 	addi	r2,r2,26356
    343c:	1887883a 	add	r3,r3,r2
    3440:	00800134 	movhi	r2,4
    3444:	10a62004 	addi	r2,r2,-26496
    3448:	1885883a 	add	r2,r3,r2
    344c:	10800044 	addi	r2,r2,1
    3450:	01800a04 	movi	r6,40
    3454:	000b883a 	mov	r5,zero
    3458:	1009883a 	mov	r4,r2
    345c:	0015bb00 	call	15bb0 <memset>
         break;
    3460:	00000606 	br	347c <close_socket+0x9c>
   for(i = 0; i < SOCKET_MAX_ITEMS; i++)
    3464:	e0bfff17 	ldw	r2,-4(fp)
    3468:	10800044 	addi	r2,r2,1
    346c:	e0bfff15 	stw	r2,-4(fp)
    3470:	e0bfff17 	ldw	r2,-4(fp)
    3474:	10800230 	cmpltui	r2,r2,8
    3478:	103fe01e 	bne	r2,zero,33fc <__alt_mem_mcu_subsystem_ram_0+0x77fe33fc>
      }
   }
}
    347c:	0001883a 	nop
    3480:	e037883a 	mov	sp,fp
    3484:	dfc00117 	ldw	ra,4(sp)
    3488:	df000017 	ldw	fp,0(sp)
    348c:	dec00204 	addi	sp,sp,8
    3490:	f800283a 	ret

00003494 <close_all_sockets>:

void close_all_sockets()
{
    3494:	defffe04 	addi	sp,sp,-8
    3498:	dfc00115 	stw	ra,4(sp)
    349c:	df000015 	stw	fp,0(sp)
    34a0:	d839883a 	mov	fp,sp
   memset(&network_ctx.sockets_items, 0, sizeof(network_ctx.sockets_items));
    34a4:	01805004 	movi	r6,320
    34a8:	000b883a 	mov	r5,zero
    34ac:	010002b4 	movhi	r4,10
    34b0:	213fdd44 	addi	r4,r4,-139
    34b4:	0015bb00 	call	15bb0 <memset>
}
    34b8:	0001883a 	nop
    34bc:	e037883a 	mov	sp,fp
    34c0:	dfc00117 	ldw	ra,4(sp)
    34c4:	df000017 	ldw	fp,0(sp)
    34c8:	dec00204 	addi	sp,sp,8
    34cc:	f800283a 	ret

000034d0 <get_net_context>:


uint32_t get_net_context()
{
    34d0:	deffff04 	addi	sp,sp,-4
    34d4:	df000015 	stw	fp,0(sp)
    34d8:	d839883a 	mov	fp,sp
   return (uint32_t)(&network_ctx);
    34dc:	00800134 	movhi	r2,4
    34e0:	10a62004 	addi	r2,r2,-26496
}
    34e4:	e037883a 	mov	sp,fp
    34e8:	df000017 	ldw	fp,0(sp)
    34ec:	dec00104 	addi	sp,sp,4
    34f0:	f800283a 	ret

000034f4 <register_rx_dma>:

void register_rx_dma(uint32_t handle, alt_msgdma_dev *dev)
{
    34f4:	defffd04 	addi	sp,sp,-12
    34f8:	df000215 	stw	fp,8(sp)
    34fc:	df000204 	addi	fp,sp,8
    3500:	e13fff15 	stw	r4,-4(fp)
    3504:	e17ffe15 	stw	r5,-8(fp)
   ((network_ctx_t*)handle)->dma_rx_dev = dev;
    3508:	e0bfff17 	ldw	r2,-4(fp)
    350c:	e0fffe17 	ldw	r3,-8(fp)
    3510:	10c00515 	stw	r3,20(r2)
}
    3514:	0001883a 	nop
    3518:	e037883a 	mov	sp,fp
    351c:	df000017 	ldw	fp,0(sp)
    3520:	dec00104 	addi	sp,sp,4
    3524:	f800283a 	ret

00003528 <register_tx_dma>:

void register_tx_dma(uint32_t handle, alt_msgdma_dev *dev)
{
    3528:	defffd04 	addi	sp,sp,-12
    352c:	df000215 	stw	fp,8(sp)
    3530:	df000204 	addi	fp,sp,8
    3534:	e13fff15 	stw	r4,-4(fp)
    3538:	e17ffe15 	stw	r5,-8(fp)
   ((network_ctx_t*)handle)->dma_tx_dev = dev;
    353c:	e0bfff17 	ldw	r2,-4(fp)
    3540:	e0fffe17 	ldw	r3,-8(fp)
    3544:	10c00415 	stw	r3,16(r2)
}
    3548:	0001883a 	nop
    354c:	e037883a 	mov	sp,fp
    3550:	df000017 	ldw	fp,0(sp)
    3554:	dec00104 	addi	sp,sp,4
    3558:	f800283a 	ret

0000355c <ethernet_enable>:

void ethernet_enable(np_tse_mac *tse, uint32_t enabled)
{
    355c:	defffb04 	addi	sp,sp,-20
    3560:	dfc00415 	stw	ra,16(sp)
    3564:	df000315 	stw	fp,12(sp)
    3568:	df000304 	addi	fp,sp,12
    356c:	e13ffe15 	stw	r4,-8(fp)
    3570:	e17ffd15 	stw	r5,-12(fp)
   if(enabled == 0)
    3574:	e0bffd17 	ldw	r2,-12(fp)
    3578:	1000021e 	bne	r2,zero,3584 <ethernet_enable+0x28>
   {
      phy_ethernet_reset(1);
    357c:	01000044 	movi	r4,1
    3580:	00005340 	call	534 <phy_ethernet_reset>
   }

   tse_mac_SwReset(tse);
    3584:	e13ffe17 	ldw	r4,-8(fp)
    3588:	0028cd00 	call	28cd0 <tse_mac_SwReset>

   uint32_t value;
   value = IORD_ALTERA_TSEMAC_CMD_CONFIG(tse);
    358c:	e0bffe17 	ldw	r2,-8(fp)
    3590:	10800204 	addi	r2,r2,8
    3594:	10800037 	ldwio	r2,0(r2)
    3598:	e0bfff15 	stw	r2,-4(fp)
   if(enabled == 0)
    359c:	e0bffd17 	ldw	r2,-12(fp)
    35a0:	1000051e 	bne	r2,zero,35b8 <ethernet_enable+0x5c>
   {
      value &= ~(ALTERA_TSEMAC_CMD_TX_ENA_MSK | ALTERA_TSEMAC_CMD_RX_ENA_MSK);
    35a4:	e0ffff17 	ldw	r3,-4(fp)
    35a8:	00bfff04 	movi	r2,-4
    35ac:	1884703a 	and	r2,r3,r2
    35b0:	e0bfff15 	stw	r2,-4(fp)
    35b4:	00000506 	br	35cc <ethernet_enable+0x70>
   }
   else
   {
      value |= (ALTERA_TSEMAC_CMD_TX_ENA_MSK | ALTERA_TSEMAC_CMD_RX_ENA_MSK | ALTERA_TSEMAC_CMD_DISABLE_READ_TIMEOUT_MSK);
    35b8:	e0ffff17 	ldw	r3,-4(fp)
    35bc:	00820034 	movhi	r2,2048
    35c0:	108000c4 	addi	r2,r2,3
    35c4:	1884b03a 	or	r2,r3,r2
    35c8:	e0bfff15 	stw	r2,-4(fp)
   }

   IOWR_ALTERA_TSEMAC_CMD_CONFIG(tse, value);
    35cc:	e0bffe17 	ldw	r2,-8(fp)
    35d0:	10800204 	addi	r2,r2,8
    35d4:	e0ffff17 	ldw	r3,-4(fp)
    35d8:	10c00035 	stwio	r3,0(r2)

   if(enabled != 0)
    35dc:	e0bffd17 	ldw	r2,-12(fp)
    35e0:	10000226 	beq	r2,zero,35ec <ethernet_enable+0x90>
   {
      phy_ethernet_reset(0);
    35e4:	0009883a 	mov	r4,zero
    35e8:	00005340 	call	534 <phy_ethernet_reset>
   }
}
    35ec:	0001883a 	nop
    35f0:	e037883a 	mov	sp,fp
    35f4:	dfc00117 	ldw	ra,4(sp)
    35f8:	df000017 	ldw	fp,0(sp)
    35fc:	dec00204 	addi	sp,sp,8
    3600:	f800283a 	ret

00003604 <ethernet_init>:

int ethernet_init(network_ctx_t *ctx, np_tse_mac *tse)
{
    3604:	defffa04 	addi	sp,sp,-24
    3608:	dfc00515 	stw	ra,20(sp)
    360c:	df000415 	stw	fp,16(sp)
    3610:	df000404 	addi	fp,sp,16
    3614:	e13ffd15 	stw	r4,-12(fp)
    3618:	e17ffc15 	stw	r5,-16(fp)
   uint32_t value, i;

   // Specify the addresses of the PHY devices to be accessed through MDIO interface
   IOWR_ALTERA_TSEMAC_MDIO_ADDR0(tse, 0x01);
    361c:	e0bffc17 	ldw	r2,-16(fp)
    3620:	10800f04 	addi	r2,r2,60
    3624:	00c00044 	movi	r3,1
    3628:	10c00035 	stwio	r3,0(r2)
   IOWR_ALTERA_TSEMAC_MDIO_ADDR1(tse, 0x01);
    362c:	e0bffc17 	ldw	r2,-16(fp)
    3630:	10801004 	addi	r2,r2,64
    3634:	00c00044 	movi	r3,1
    3638:	10c00035 	stwio	r3,0(r2)

   // Disable read and write transfers and wait
   value = IORD_ALTERA_TSEMAC_CMD_CONFIG(tse);
    363c:	e0bffc17 	ldw	r2,-16(fp)
    3640:	10800204 	addi	r2,r2,8
    3644:	10800037 	ldwio	r2,0(r2)
    3648:	e0bfff15 	stw	r2,-4(fp)
   value &= ~(ALTERA_TSEMAC_CMD_RX_ENA_MSK | ALTERA_TSEMAC_CMD_TX_ENA_MSK);
    364c:	e0ffff17 	ldw	r3,-4(fp)
    3650:	00bfff04 	movi	r2,-4
    3654:	1884703a 	and	r2,r3,r2
    3658:	e0bfff15 	stw	r2,-4(fp)
   IOWR_ALTERA_TSEMAC_CMD_CONFIG(tse, value);
    365c:	e0bffc17 	ldw	r2,-16(fp)
    3660:	10800204 	addi	r2,r2,8
    3664:	e0ffff17 	ldw	r3,-4(fp)
    3668:	10c00035 	stwio	r3,0(r2)

   usleep(100);
    366c:	01001904 	movi	r4,100
    3670:	0025e400 	call	25e40 <usleep>

   value = IORD_ALTERA_TSEMAC_CMD_CONFIG(tse);
    3674:	e0bffc17 	ldw	r2,-16(fp)
    3678:	10800204 	addi	r2,r2,8
    367c:	10800037 	ldwio	r2,0(r2)
    3680:	e0bfff15 	stw	r2,-4(fp)
   if((value & (ALTERA_TSEMAC_CMD_RX_ENA_MSK | ALTERA_TSEMAC_CMD_TX_ENA_MSK)) != 0)
    3684:	e0bfff17 	ldw	r2,-4(fp)
    3688:	108000cc 	andi	r2,r2,3
    368c:	10000526 	beq	r2,zero,36a4 <ethernet_init+0xa0>
   {
      printf("Error: RX/TX are not disabled\n");
    3690:	010000f4 	movhi	r4,3
    3694:	2105b104 	addi	r4,r4,5828
    3698:	00164700 	call	16470 <puts>
      return -1;
    369c:	00bfffc4 	movi	r2,-1
    36a0:	0000a006 	br	3924 <ethernet_init+0x320>
   }

   //MAC FIFO Configuration
   IOWR_ALTERA_TSEMAC_TX_SECTION_EMPTY(tse, ETHERNET_MAC_TRANSMIT_FIFO_DEPTH-16);
    36a4:	e0bffc17 	ldw	r2,-16(fp)
    36a8:	10800904 	addi	r2,r2,36
    36ac:	00c7fc04 	movi	r3,8176
    36b0:	10c00035 	stwio	r3,0(r2)
   IOWR_ALTERA_TSEMAC_TX_ALMOST_FULL(tse, 3);
    36b4:	e0bffc17 	ldw	r2,-16(fp)
    36b8:	10800e04 	addi	r2,r2,56
    36bc:	00c000c4 	movi	r3,3
    36c0:	10c00035 	stwio	r3,0(r2)
   IOWR_ALTERA_TSEMAC_TX_ALMOST_EMPTY(tse, 8);
    36c4:	e0bffc17 	ldw	r2,-16(fp)
    36c8:	10800d04 	addi	r2,r2,52
    36cc:	00c00204 	movi	r3,8
    36d0:	10c00035 	stwio	r3,0(r2)
   IOWR_ALTERA_TSEMAC_RX_SECTION_EMPTY(tse, ETHERNET_MAC_TRANSMIT_FIFO_DEPTH-16);
    36d4:	e0bffc17 	ldw	r2,-16(fp)
    36d8:	10800704 	addi	r2,r2,28
    36dc:	00c7fc04 	movi	r3,8176
    36e0:	10c00035 	stwio	r3,0(r2)

   IOWR_ALTERA_TSEMAC_RX_ALMOST_FULL(tse, 8);
    36e4:	e0bffc17 	ldw	r2,-16(fp)
    36e8:	10800c04 	addi	r2,r2,48
    36ec:	00c00204 	movi	r3,8
    36f0:	10c00035 	stwio	r3,0(r2)
   IOWR_ALTERA_TSEMAC_RX_ALMOST_EMPTY(tse, 8);
    36f4:	e0bffc17 	ldw	r2,-16(fp)
    36f8:	10800b04 	addi	r2,r2,44
    36fc:	00c00204 	movi	r3,8
    3700:	10c00035 	stwio	r3,0(r2)

   IOWR_ALTERA_TSEMAC_TX_SECTION_FULL(tse, 16);
    3704:	e0bffc17 	ldw	r2,-16(fp)
    3708:	10800a04 	addi	r2,r2,40
    370c:	00c00404 	movi	r3,16
    3710:	10c00035 	stwio	r3,0(r2)
   IOWR_ALTERA_TSEMAC_RX_SECTION_FULL(tse, 16);
    3714:	e0bffc17 	ldw	r2,-16(fp)
    3718:	10800804 	addi	r2,r2,32
    371c:	00c00404 	movi	r3,16
    3720:	10c00035 	stwio	r3,0(r2)

   IOWR_ALTERA_TSEMAC_MAC_0(tse, 0x17231C00);
    3724:	e0bffc17 	ldw	r2,-16(fp)
    3728:	10c00304 	addi	r3,r2,12
    372c:	0085c8f4 	movhi	r2,5923
    3730:	10870004 	addi	r2,r2,7168
    3734:	18800035 	stwio	r2,0(r3)
   IOWR_ALTERA_TSEMAC_MAC_1(tse, 0x0000CB4A);
    3738:	e0bffc17 	ldw	r2,-16(fp)
    373c:	10800404 	addi	r2,r2,16
    3740:	00f2d294 	movui	r3,52042
    3744:	10c00035 	stwio	r3,0(r2)

   IOWR_ALTERA_TSEMAC_FRM_LENGTH(tse, ctx->mtu);// 6 bytes (dst mac) + 6 bytes (src mac) + 2 bytes (eth type) + 4 bytes (fcs)
    3748:	e0bffc17 	ldw	r2,-16(fp)
    374c:	10800504 	addi	r2,r2,20
    3750:	e0fffd17 	ldw	r3,-12(fp)
    3754:	18c8b517 	ldw	r3,8916(r3)
    3758:	10c00035 	stwio	r3,0(r2)

   IOWR_ALTERA_TSEMAC_TX_IPG_LENGTH(tse, 12);
    375c:	e0bffc17 	ldw	r2,-16(fp)
    3760:	10801704 	addi	r2,r2,92
    3764:	00c00304 	movi	r3,12
    3768:	10c00035 	stwio	r3,0(r2)

   IOWR_ALTERA_TSEMAC_PAUSE_QUANT(tse, 0xffff);
    376c:	e0bffc17 	ldw	r2,-16(fp)
    3770:	10800604 	addi	r2,r2,24
    3774:	00ffffd4 	movui	r3,65535
    3778:	10c00035 	stwio	r3,0(r2)

   IOWR_ALTERA_TSEMAC_CMD_CONFIG(tse, 0x00800220);
    377c:	e0bffc17 	ldw	r2,-16(fp)
    3780:	10c00204 	addi	r3,r2,8
    3784:	00802034 	movhi	r2,128
    3788:	10808804 	addi	r2,r2,544
    378c:	18800035 	stwio	r2,0(r3)

   usleep(1000);
    3790:	0100fa04 	movi	r4,1000
    3794:	0025e400 	call	25e40 <usleep>

   IOWR_ALTERA_TSEMAC_CMD_CONFIG(tse, 0x00802220);
    3798:	e0bffc17 	ldw	r2,-16(fp)
    379c:	10c00204 	addi	r3,r2,8
    37a0:	00802034 	movhi	r2,128
    37a4:	10888804 	addi	r2,r2,8736
    37a8:	18800035 	stwio	r2,0(r3)

   usleep(1000);
    37ac:	0100fa04 	movi	r4,1000
    37b0:	0025e400 	call	25e40 <usleep>
   IOWR_ALTERA_TSEMAC_CMD_CONFIG(tse, 0x00800220);
    37b4:	e0bffc17 	ldw	r2,-16(fp)
    37b8:	10c00204 	addi	r3,r2,8
    37bc:	00802034 	movhi	r2,128
    37c0:	10808804 	addi	r2,r2,544
    37c4:	18800035 	stwio	r2,0(r3)

   value = IORD_ALTERA_TSEMAC_CMD_CONFIG(tse);
    37c8:	e0bffc17 	ldw	r2,-16(fp)
    37cc:	10800204 	addi	r2,r2,8
    37d0:	10800037 	ldwio	r2,0(r2)
    37d4:	e0bfff15 	stw	r2,-4(fp)
   i = 0;
    37d8:	e03ffe15 	stw	zero,-8(fp)
   while((value & 0x00800220) != 0x00800220)
    37dc:	00001106 	br	3824 <ethernet_init+0x220>
   {
      usleep(100);
    37e0:	01001904 	movi	r4,100
    37e4:	0025e400 	call	25e40 <usleep>
      value = IORD_ALTERA_TSEMAC_CMD_CONFIG(tse);
    37e8:	e0bffc17 	ldw	r2,-16(fp)
    37ec:	10800204 	addi	r2,r2,8
    37f0:	10800037 	ldwio	r2,0(r2)
    37f4:	e0bfff15 	stw	r2,-4(fp)
      i++;
    37f8:	e0bffe17 	ldw	r2,-8(fp)
    37fc:	10800044 	addi	r2,r2,1
    3800:	e0bffe15 	stw	r2,-8(fp)
      if(i >100)
    3804:	e0bffe17 	ldw	r2,-8(fp)
    3808:	10801970 	cmpltui	r2,r2,101
    380c:	1000051e 	bne	r2,zero,3824 <ethernet_init+0x220>
      {
         printf("Error: timeout\n");
    3810:	010000f4 	movhi	r4,3
    3814:	2105b904 	addi	r4,r4,5860
    3818:	00164700 	call	16470 <puts>
         return -1;
    381c:	00bfffc4 	movi	r2,-1
    3820:	00004006 	br	3924 <ethernet_init+0x320>
   while((value & 0x00800220) != 0x00800220)
    3824:	e0ffff17 	ldw	r3,-4(fp)
    3828:	00802034 	movhi	r2,128
    382c:	10808804 	addi	r2,r2,544
    3830:	1886703a 	and	r3,r3,r2
    3834:	00802034 	movhi	r2,128
    3838:	10808804 	addi	r2,r2,544
    383c:	18bfe81e 	bne	r3,r2,37e0 <__alt_mem_mcu_subsystem_ram_0+0x77fe37e0>
      }
   }

   //value |= 0x3;
   value |= 0x8;
    3840:	e0bfff17 	ldw	r2,-4(fp)
    3844:	10800214 	ori	r2,r2,8
    3848:	e0bfff15 	stw	r2,-4(fp)

   value |= (1<<27);
    384c:	e0bfff17 	ldw	r2,-4(fp)
    3850:	10820034 	orhi	r2,r2,2048
    3854:	e0bfff15 	stw	r2,-4(fp)
   value &= ~ALTERA_TSEMAC_CMD_PROMIS_EN_MSK;
    3858:	e0ffff17 	ldw	r3,-4(fp)
    385c:	00bffbc4 	movi	r2,-17
    3860:	1884703a 	and	r2,r3,r2
    3864:	e0bfff15 	stw	r2,-4(fp)

   IOWR_ALTERA_TSEMAC_CMD_CONFIG(tse, value);
    3868:	e0bffc17 	ldw	r2,-16(fp)
    386c:	10800204 	addi	r2,r2,8
    3870:	e0ffff17 	ldw	r3,-4(fp)
    3874:	10c00035 	stwio	r3,0(r2)

   usleep(1000);
    3878:	0100fa04 	movi	r4,1000
    387c:	0025e400 	call	25e40 <usleep>

   value = IORD_ALTERA_TSEMAC_CMD_CONFIG(tse);
    3880:	e0bffc17 	ldw	r2,-16(fp)
    3884:	10800204 	addi	r2,r2,8
    3888:	10800037 	ldwio	r2,0(r2)
    388c:	e0bfff15 	stw	r2,-4(fp)

   value |= 0x8;
    3890:	e0bfff17 	ldw	r2,-4(fp)
    3894:	10800214 	ori	r2,r2,8
    3898:	e0bfff15 	stw	r2,-4(fp)
   IOWR_ALTERA_TSEMAC_CMD_CONFIG(tse, value);
    389c:	e0bffc17 	ldw	r2,-16(fp)
    38a0:	10800204 	addi	r2,r2,8
    38a4:	e0ffff17 	ldw	r3,-4(fp)
    38a8:	10c00035 	stwio	r3,0(r2)

   value = IORD_ALTERA_TSEMAC_CMD_CONFIG(tse);
    38ac:	e0bffc17 	ldw	r2,-16(fp)
    38b0:	10800204 	addi	r2,r2,8
    38b4:	10800037 	ldwio	r2,0(r2)
    38b8:	e0bfff15 	stw	r2,-4(fp)

   // additional
   value = IORD_ALTERA_TSEMAC_TX_CMD_STAT(tse);
    38bc:	e0bffc17 	ldw	r2,-16(fp)
    38c0:	10803a04 	addi	r2,r2,232
    38c4:	10800037 	ldwio	r2,0(r2)
    38c8:	e0bfff15 	stw	r2,-4(fp)
   value |= (1<<17);
    38cc:	e0bfff17 	ldw	r2,-4(fp)
    38d0:	108000b4 	orhi	r2,r2,2
    38d4:	e0bfff15 	stw	r2,-4(fp)
   IOWR_ALTERA_TSEMAC_TX_CMD_STAT(tse, value);
    38d8:	e0bffc17 	ldw	r2,-16(fp)
    38dc:	10803a04 	addi	r2,r2,232
    38e0:	e0ffff17 	ldw	r3,-4(fp)
    38e4:	10c00035 	stwio	r3,0(r2)

   value = IORD_32DIRECT(tse, 0xd0 * 4);
    38e8:	e0bffc17 	ldw	r2,-16(fp)
    38ec:	1080d004 	addi	r2,r2,832
    38f0:	10800037 	ldwio	r2,0(r2)
    38f4:	e0bfff15 	stw	r2,-4(fp)
   value |= (0x8 << 16);
    38f8:	e0bfff17 	ldw	r2,-4(fp)
    38fc:	10800234 	orhi	r2,r2,8
    3900:	e0bfff15 	stw	r2,-4(fp)
   value |= 0x8;
    3904:	e0bfff17 	ldw	r2,-4(fp)
    3908:	10800214 	ori	r2,r2,8
    390c:	e0bfff15 	stw	r2,-4(fp)
   IOWR_32DIRECT(tse, 0xd0 * 4, value);
    3910:	e0bffc17 	ldw	r2,-16(fp)
    3914:	1080d004 	addi	r2,r2,832
    3918:	e0ffff17 	ldw	r3,-4(fp)
    391c:	10c00035 	stwio	r3,0(r2)

   return 0;
    3920:	0005883a 	mov	r2,zero
}
    3924:	e037883a 	mov	sp,fp
    3928:	dfc00117 	ldw	ra,4(sp)
    392c:	df000017 	ldw	fp,0(sp)
    3930:	dec00204 	addi	sp,sp,8
    3934:	f800283a 	ret

00003938 <phy_init>:


uint32_t phy_init(np_tse_mac *tse, alt_u32 loopback)
{
    3938:	defffa04 	addi	sp,sp,-24
    393c:	dfc00515 	stw	ra,20(sp)
    3940:	df000415 	stw	fp,16(sp)
    3944:	df000404 	addi	fp,sp,16
    3948:	e13ffe15 	stw	r4,-8(fp)
    394c:	e17ffd15 	stw	r5,-12(fp)
   uint32_t result = 0;
    3950:	e03fff15 	stw	zero,-4(fp)

   //uint32_t tse_mmd_readreg(np_tse_mac *pmac, alt_u32 mdio, alt_u32 mmd_addr, alt_u32 mmd_reg)
   result = tse_mmd_readreg(tse, 0, 0, 3);
    3954:	01c000c4 	movi	r7,3
    3958:	000d883a 	mov	r6,zero
    395c:	000b883a 	mov	r5,zero
    3960:	e13ffe17 	ldw	r4,-8(fp)
    3964:	000048c0 	call	48c <tse_mmd_readreg>
    3968:	e0bfff15 	stw	r2,-4(fp)

   result = tse_mmd_readreg(tse, 0, 2, 1);
    396c:	01c00044 	movi	r7,1
    3970:	01800084 	movi	r6,2
    3974:	000b883a 	mov	r5,zero
    3978:	e13ffe17 	ldw	r4,-8(fp)
    397c:	000048c0 	call	48c <tse_mmd_readreg>
    3980:	e0bfff15 	stw	r2,-4(fp)
   result = tse_mmd_readreg(tse, 0, 2, 0);
    3984:	000f883a 	mov	r7,zero
    3988:	01800084 	movi	r6,2
    398c:	000b883a 	mov	r5,zero
    3990:	e13ffe17 	ldw	r4,-8(fp)
    3994:	000048c0 	call	48c <tse_mmd_readreg>
    3998:	e0bfff15 	stw	r2,-4(fp)


   //tse_mmd_writereg(np_tse_mac *pmac, alt_u32 mdio, alt_u32 mmd_addr, alt_u32 mmd_reg, alt_u32 mmd_value)
   tse_mmd_writereg(tse, 0, 2, 0, result | (1<<4) | (1<<1));
    399c:	e0bfff17 	ldw	r2,-4(fp)
    39a0:	10800494 	ori	r2,r2,18
    39a4:	d8800015 	stw	r2,0(sp)
    39a8:	000f883a 	mov	r7,zero
    39ac:	01800084 	movi	r6,2
    39b0:	000b883a 	mov	r5,zero
    39b4:	e13ffe17 	ldw	r4,-8(fp)
    39b8:	00003e80 	call	3e8 <tse_mmd_writereg>

   result = tse_mmd_readreg(tse, 0, 2, 0);
    39bc:	000f883a 	mov	r7,zero
    39c0:	01800084 	movi	r6,2
    39c4:	000b883a 	mov	r5,zero
    39c8:	e13ffe17 	ldw	r4,-8(fp)
    39cc:	000048c0 	call	48c <tse_mmd_readreg>
    39d0:	e0bfff15 	stw	r2,-4(fp)


   result = IORD_32DIRECT(&tse->mdio0, 0);
    39d4:	e0bffe17 	ldw	r2,-8(fp)
    39d8:	10808004 	addi	r2,r2,512
    39dc:	10800037 	ldwio	r2,0(r2)
    39e0:	e0bfff15 	stw	r2,-4(fp)
   if(loopback == 0)
    39e4:	e0bffd17 	ldw	r2,-12(fp)
    39e8:	1000051e 	bne	r2,zero,3a00 <phy_init+0xc8>
   {
      result &= ~(1<<14);
    39ec:	e0ffff17 	ldw	r3,-4(fp)
    39f0:	00afffc4 	movi	r2,-16385
    39f4:	1884703a 	and	r2,r3,r2
    39f8:	e0bfff15 	stw	r2,-4(fp)
    39fc:	00000306 	br	3a0c <phy_init+0xd4>
   }
   else
   {
      result |= (1<<14);
    3a00:	e0bfff17 	ldw	r2,-4(fp)
    3a04:	10900014 	ori	r2,r2,16384
    3a08:	e0bfff15 	stw	r2,-4(fp)
   }
   IOWR_32DIRECT(&tse->mdio0, 0, result);
    3a0c:	e0bffe17 	ldw	r2,-8(fp)
    3a10:	10808004 	addi	r2,r2,512
    3a14:	e0ffff17 	ldw	r3,-4(fp)
    3a18:	10c00035 	stwio	r3,0(r2)
   result = IORD_32DIRECT(&tse->mdio0, 0);
    3a1c:	e0bffe17 	ldw	r2,-8(fp)
    3a20:	10808004 	addi	r2,r2,512
    3a24:	10800037 	ldwio	r2,0(r2)
    3a28:	e0bfff15 	stw	r2,-4(fp)

   return result;
    3a2c:	e0bfff17 	ldw	r2,-4(fp)
}
    3a30:	e037883a 	mov	sp,fp
    3a34:	dfc00117 	ldw	ra,4(sp)
    3a38:	df000017 	ldw	fp,0(sp)
    3a3c:	dec00204 	addi	sp,sp,8
    3a40:	f800283a 	ret

00003a44 <network_init>:

uint32_t network_init()
{
    3a44:	defff704 	addi	sp,sp,-36
    3a48:	dfc00815 	stw	ra,32(sp)
    3a4c:	df000715 	stw	fp,28(sp)
    3a50:	dc800615 	stw	r18,24(sp)
    3a54:	dc400515 	stw	r17,20(sp)
    3a58:	dc000415 	stw	r16,16(sp)
    3a5c:	df000704 	addi	fp,sp,28
   uint32_t                      handle = 0;
    3a60:	e03ffc15 	stw	zero,-16(fp)
   alt_msgdma_dev                *dma_rx_dev;
   alt_msgdma_dev                *dma_tx_dev;
   np_tse_mac                    *tse = (np_tse_mac *)ETHERNET_MAC_BASE;
    3a64:	00a20234 	movhi	r2,34824
    3a68:	10a40004 	addi	r2,r2,-28672
    3a6c:	e0bffb15 	stw	r2,-20(fp)

   IOWR_ALTERA_AVALON_TIMER_CONTROL(TIMER_0_BASE, 0x0000);
    3a70:	0007883a 	mov	r3,zero
    3a74:	00a20234 	movhi	r2,34824
    3a78:	10e60135 	stwio	r3,-26620(r2)
   IOWR_ALTERA_AVALON_TIMER_STATUS(TIMER_0_BASE, 0x0000);
    3a7c:	0007883a 	mov	r3,zero
    3a80:	00a20234 	movhi	r2,34824
    3a84:	10e60035 	stwio	r3,-26624(r2)

   handle = get_net_context();
    3a88:	00034d00 	call	34d0 <get_net_context>
    3a8c:	e0bffc15 	stw	r2,-16(fp)

   // network initialization
   net_initialize(handle);
    3a90:	e13ffc17 	ldw	r4,-16(fp)
    3a94:	00010d00 	call	10d0 <net_initialize>
   arp_initialise(handle);
    3a98:	e13ffc17 	ldw	r4,-16(fp)
    3a9c:	0000a840 	call	a84 <arp_initialise>
   udp_initialise(handle);
    3aa0:	e13ffc17 	ldw	r4,-16(fp)
    3aa4:	0000aec0 	call	aec <udp_initialise>

   ethernet_enable(tse, 0);
    3aa8:	000b883a 	mov	r5,zero
    3aac:	e13ffb17 	ldw	r4,-20(fp)
    3ab0:	000355c0 	call	355c <ethernet_enable>

   // Open the sgdma receive device
   dma_rx_dev = alt_msgdma_open (ETHERNET_DMA_RX_CSR_NAME);
    3ab4:	010000f4 	movhi	r4,3
    3ab8:	2105bd04 	addi	r4,r4,5876
    3abc:	00301e00 	call	301e0 <alt_msgdma_open>
    3ac0:	e0bffa15 	stw	r2,-24(fp)
   dma_tx_dev = alt_msgdma_open (ETHERNET_DMA_TX_CSR_NAME);
    3ac4:	010000f4 	movhi	r4,3
    3ac8:	2105c404 	addi	r4,r4,5904
    3acc:	00301e00 	call	301e0 <alt_msgdma_open>
    3ad0:	e0bff915 	stw	r2,-28(fp)

   register_rx_dma(handle, dma_rx_dev);
    3ad4:	e17ffa17 	ldw	r5,-24(fp)
    3ad8:	e13ffc17 	ldw	r4,-16(fp)
    3adc:	00034f40 	call	34f4 <register_rx_dma>
   register_tx_dma(handle, dma_tx_dev);
    3ae0:	e17ff917 	ldw	r5,-28(fp)
    3ae4:	e13ffc17 	ldw	r4,-16(fp)
    3ae8:	00035280 	call	3528 <register_tx_dma>

   // Set interrupts for the sgdma receive device
   alt_msgdma_register_callback(dma_rx_dev, rx_ethernet_isr, ALTERA_MSGDMA_CSR_GLOBAL_INTERRUPT_MASK, handle);
    3aec:	e0bffc17 	ldw	r2,-16(fp)
    3af0:	100f883a 	mov	r7,r2
    3af4:	01800404 	movi	r6,16
    3af8:	01400034 	movhi	r5,0
    3afc:	2941f904 	addi	r5,r5,2020
    3b00:	e13ffa17 	ldw	r4,-24(fp)
    3b04:	00303a00 	call	303a0 <alt_msgdma_register_callback>
   alt_msgdma_register_callback(dma_tx_dev, tx_ethernet_isr, ALTERA_MSGDMA_CSR_GLOBAL_INTERRUPT_MASK, handle);
    3b08:	e0bffc17 	ldw	r2,-16(fp)
    3b0c:	100f883a 	mov	r7,r2
    3b10:	01800404 	movi	r6,16
    3b14:	01400034 	movhi	r5,0
    3b18:	2941f004 	addi	r5,r5,1984
    3b1c:	e13ff917 	ldw	r4,-28(fp)
    3b20:	00303a00 	call	303a0 <alt_msgdma_register_callback>


   hw_ethernet_reset();
    3b24:	00007100 	call	710 <hw_ethernet_reset>
   ethernet_init(handle, tse);
    3b28:	e0bffc17 	ldw	r2,-16(fp)
    3b2c:	e17ffb17 	ldw	r5,-20(fp)
    3b30:	1009883a 	mov	r4,r2
    3b34:	00036040 	call	3604 <ethernet_init>
   usleep(1000);
    3b38:	0100fa04 	movi	r4,1000
    3b3c:	0025e400 	call	25e40 <usleep>
   ethernet_enable(tse, 1);
    3b40:	01400044 	movi	r5,1
    3b44:	e13ffb17 	ldw	r4,-20(fp)
    3b48:	000355c0 	call	355c <ethernet_enable>

   // PHY reconfiguration
   phy_init(tse, 0);
    3b4c:	000b883a 	mov	r5,zero
    3b50:	e13ffb17 	ldw	r4,-20(fp)
    3b54:	00039380 	call	3938 <phy_init>

   alt_timestamp_start();
    3b58:	00288340 	call	28834 <alt_timestamp_start>
   ((network_ctx_t*)handle)->ts_frequency       = alt_timestamp_freq();
    3b5c:	e4bffc17 	ldw	r18,-16(fp)
    3b60:	0028a780 	call	28a78 <alt_timestamp_freq>
    3b64:	1007883a 	mov	r3,r2
    3b68:	008001b4 	movhi	r2,6
    3b6c:	1099bc44 	addi	r2,r2,26353
    3b70:	9085883a 	add	r2,r18,r2
    3b74:	19803fcc 	andi	r6,r3,255
    3b78:	11000003 	ldbu	r4,0(r2)
    3b7c:	2008703a 	and	r4,r4,zero
    3b80:	200b883a 	mov	r5,r4
    3b84:	3009883a 	mov	r4,r6
    3b88:	2908b03a 	or	r4,r5,r4
    3b8c:	11000005 	stb	r4,0(r2)
    3b90:	1808d23a 	srli	r4,r3,8
    3b94:	21803fcc 	andi	r6,r4,255
    3b98:	11000043 	ldbu	r4,1(r2)
    3b9c:	2008703a 	and	r4,r4,zero
    3ba0:	200b883a 	mov	r5,r4
    3ba4:	3009883a 	mov	r4,r6
    3ba8:	2908b03a 	or	r4,r5,r4
    3bac:	11000045 	stb	r4,1(r2)
    3bb0:	1808d43a 	srli	r4,r3,16
    3bb4:	21803fcc 	andi	r6,r4,255
    3bb8:	11000083 	ldbu	r4,2(r2)
    3bbc:	2008703a 	and	r4,r4,zero
    3bc0:	200b883a 	mov	r5,r4
    3bc4:	3009883a 	mov	r4,r6
    3bc8:	2908b03a 	or	r4,r5,r4
    3bcc:	11000085 	stb	r4,2(r2)
    3bd0:	180ad63a 	srli	r5,r3,24
    3bd4:	10c000c3 	ldbu	r3,3(r2)
    3bd8:	1806703a 	and	r3,r3,zero
    3bdc:	1809883a 	mov	r4,r3
    3be0:	2807883a 	mov	r3,r5
    3be4:	20c6b03a 	or	r3,r4,r3
    3be8:	10c000c5 	stb	r3,3(r2)
   ((network_ctx_t*)handle)->app_startup_delay  = APP_STARTUP_DELAY_S;
    3bec:	e0fffc17 	ldw	r3,-16(fp)
    3bf0:	008001b4 	movhi	r2,6
    3bf4:	1099ba44 	addi	r2,r2,26345
    3bf8:	1885883a 	add	r2,r3,r2
    3bfc:	10c00003 	ldbu	r3,0(r2)
    3c00:	1806703a 	and	r3,r3,zero
    3c04:	18c00154 	ori	r3,r3,5
    3c08:	10c00005 	stb	r3,0(r2)
    3c0c:	10c00043 	ldbu	r3,1(r2)
    3c10:	1806703a 	and	r3,r3,zero
    3c14:	10c00045 	stb	r3,1(r2)
    3c18:	10c00083 	ldbu	r3,2(r2)
    3c1c:	1806703a 	and	r3,r3,zero
    3c20:	10c00085 	stb	r3,2(r2)
    3c24:	10c000c3 	ldbu	r3,3(r2)
    3c28:	1806703a 	and	r3,r3,zero
    3c2c:	10c000c5 	stb	r3,3(r2)
    3c30:	10c00103 	ldbu	r3,4(r2)
    3c34:	1806703a 	and	r3,r3,zero
    3c38:	10c00105 	stb	r3,4(r2)
    3c3c:	10c00143 	ldbu	r3,5(r2)
    3c40:	1806703a 	and	r3,r3,zero
    3c44:	10c00145 	stb	r3,5(r2)
    3c48:	10c00183 	ldbu	r3,6(r2)
    3c4c:	1806703a 	and	r3,r3,zero
    3c50:	10c00185 	stb	r3,6(r2)
    3c54:	10c001c3 	ldbu	r3,7(r2)
    3c58:	1806703a 	and	r3,r3,zero
    3c5c:	10c001c5 	stb	r3,7(r2)
   ((network_ctx_t*)handle)->app_startup_delay  *= ((network_ctx_t*)handle)->ts_frequency;
    3c60:	e0bffc17 	ldw	r2,-16(fp)
    3c64:	00c001b4 	movhi	r3,6
    3c68:	18d9ba04 	addi	r3,r3,26344
    3c6c:	10c7883a 	add	r3,r2,r3
    3c70:	18c00017 	ldw	r3,0(r3)
    3c74:	1808d23a 	srli	r4,r3,8
    3c78:	00c001b4 	movhi	r3,6
    3c7c:	18d9bb04 	addi	r3,r3,26348
    3c80:	10c7883a 	add	r3,r2,r3
    3c84:	18c00017 	ldw	r3,0(r3)
    3c88:	18c03fcc 	andi	r3,r3,255
    3c8c:	1806963a 	slli	r3,r3,24
    3c90:	1906b03a 	or	r3,r3,r4
    3c94:	1811883a 	mov	r8,r3
    3c98:	00c001b4 	movhi	r3,6
    3c9c:	18d9bb04 	addi	r3,r3,26348
    3ca0:	10c7883a 	add	r3,r2,r3
    3ca4:	18c00017 	ldw	r3,0(r3)
    3ca8:	1808d23a 	srli	r4,r3,8
    3cac:	00c001b4 	movhi	r3,6
    3cb0:	18d9bc04 	addi	r3,r3,26352
    3cb4:	10c5883a 	add	r2,r2,r3
    3cb8:	10800017 	ldw	r2,0(r2)
    3cbc:	10803fcc 	andi	r2,r2,255
    3cc0:	1004963a 	slli	r2,r2,24
    3cc4:	1104b03a 	or	r2,r2,r4
    3cc8:	1013883a 	mov	r9,r2
    3ccc:	e0fffc17 	ldw	r3,-16(fp)
    3cd0:	008001b4 	movhi	r2,6
    3cd4:	1099bc04 	addi	r2,r2,26352
    3cd8:	1885883a 	add	r2,r3,r2
    3cdc:	10800017 	ldw	r2,0(r2)
    3ce0:	1008d23a 	srli	r4,r2,8
    3ce4:	008001b4 	movhi	r2,6
    3ce8:	1099bd04 	addi	r2,r2,26356
    3cec:	1885883a 	add	r2,r3,r2
    3cf0:	10800017 	ldw	r2,0(r2)
    3cf4:	10803fcc 	andi	r2,r2,255
    3cf8:	1004963a 	slli	r2,r2,24
    3cfc:	1104b03a 	or	r2,r2,r4
    3d00:	1021883a 	mov	r16,r2
    3d04:	0023883a 	mov	r17,zero
    3d08:	e4bffc17 	ldw	r18,-16(fp)
    3d0c:	800d883a 	mov	r6,r16
    3d10:	880f883a 	mov	r7,r17
    3d14:	4009883a 	mov	r4,r8
    3d18:	480b883a 	mov	r5,r9
    3d1c:	0011cdc0 	call	11cdc <__muldi3>
    3d20:	100b883a 	mov	r5,r2
    3d24:	180d883a 	mov	r6,r3
    3d28:	2807883a 	mov	r3,r5
    3d2c:	3009883a 	mov	r4,r6
    3d30:	008001b4 	movhi	r2,6
    3d34:	1099ba44 	addi	r2,r2,26345
    3d38:	9085883a 	add	r2,r18,r2
    3d3c:	19c03fcc 	andi	r7,r3,255
    3d40:	11400003 	ldbu	r5,0(r2)
    3d44:	280a703a 	and	r5,r5,zero
    3d48:	280d883a 	mov	r6,r5
    3d4c:	380b883a 	mov	r5,r7
    3d50:	314ab03a 	or	r5,r6,r5
    3d54:	11400005 	stb	r5,0(r2)
    3d58:	180ad23a 	srli	r5,r3,8
    3d5c:	29c03fcc 	andi	r7,r5,255
    3d60:	11400043 	ldbu	r5,1(r2)
    3d64:	280a703a 	and	r5,r5,zero
    3d68:	280d883a 	mov	r6,r5
    3d6c:	380b883a 	mov	r5,r7
    3d70:	314ab03a 	or	r5,r6,r5
    3d74:	11400045 	stb	r5,1(r2)
    3d78:	180ad43a 	srli	r5,r3,16
    3d7c:	29c03fcc 	andi	r7,r5,255
    3d80:	11400083 	ldbu	r5,2(r2)
    3d84:	280a703a 	and	r5,r5,zero
    3d88:	280d883a 	mov	r6,r5
    3d8c:	380b883a 	mov	r5,r7
    3d90:	314ab03a 	or	r5,r6,r5
    3d94:	11400085 	stb	r5,2(r2)
    3d98:	180ed63a 	srli	r7,r3,24
    3d9c:	114000c3 	ldbu	r5,3(r2)
    3da0:	280a703a 	and	r5,r5,zero
    3da4:	280d883a 	mov	r6,r5
    3da8:	380b883a 	mov	r5,r7
    3dac:	314ab03a 	or	r5,r6,r5
    3db0:	114000c5 	stb	r5,3(r2)
    3db4:	21c03fcc 	andi	r7,r4,255
    3db8:	11400103 	ldbu	r5,4(r2)
    3dbc:	280a703a 	and	r5,r5,zero
    3dc0:	280d883a 	mov	r6,r5
    3dc4:	380b883a 	mov	r5,r7
    3dc8:	314ab03a 	or	r5,r6,r5
    3dcc:	11400105 	stb	r5,4(r2)
    3dd0:	200ad23a 	srli	r5,r4,8
    3dd4:	29c03fcc 	andi	r7,r5,255
    3dd8:	11400143 	ldbu	r5,5(r2)
    3ddc:	280a703a 	and	r5,r5,zero
    3de0:	280d883a 	mov	r6,r5
    3de4:	380b883a 	mov	r5,r7
    3de8:	314ab03a 	or	r5,r6,r5
    3dec:	11400145 	stb	r5,5(r2)
    3df0:	200ad43a 	srli	r5,r4,16
    3df4:	29c03fcc 	andi	r7,r5,255
    3df8:	11400183 	ldbu	r5,6(r2)
    3dfc:	280a703a 	and	r5,r5,zero
    3e00:	280d883a 	mov	r6,r5
    3e04:	380b883a 	mov	r5,r7
    3e08:	314ab03a 	or	r5,r6,r5
    3e0c:	11400185 	stb	r5,6(r2)
    3e10:	200ad63a 	srli	r5,r4,24
    3e14:	10c001c3 	ldbu	r3,7(r2)
    3e18:	1806703a 	and	r3,r3,zero
    3e1c:	1809883a 	mov	r4,r3
    3e20:	2807883a 	mov	r3,r5
    3e24:	20c6b03a 	or	r3,r4,r3
    3e28:	10c001c5 	stb	r3,7(r2)
   ((network_ctx_t*)handle)->ts_start           = alt_timestamp();
    3e2c:	e43ffc17 	ldw	r16,-16(fp)
    3e30:	00288cc0 	call	288cc <alt_timestamp>
    3e34:	1009883a 	mov	r4,r2
    3e38:	180b883a 	mov	r5,r3
    3e3c:	008001b4 	movhi	r2,6
    3e40:	1099b844 	addi	r2,r2,26337
    3e44:	8085883a 	add	r2,r16,r2
    3e48:	21c03fcc 	andi	r7,r4,255
    3e4c:	10c00003 	ldbu	r3,0(r2)
    3e50:	1806703a 	and	r3,r3,zero
    3e54:	180d883a 	mov	r6,r3
    3e58:	3807883a 	mov	r3,r7
    3e5c:	30c6b03a 	or	r3,r6,r3
    3e60:	10c00005 	stb	r3,0(r2)
    3e64:	2006d23a 	srli	r3,r4,8
    3e68:	19c03fcc 	andi	r7,r3,255
    3e6c:	10c00043 	ldbu	r3,1(r2)
    3e70:	1806703a 	and	r3,r3,zero
    3e74:	180d883a 	mov	r6,r3
    3e78:	3807883a 	mov	r3,r7
    3e7c:	30c6b03a 	or	r3,r6,r3
    3e80:	10c00045 	stb	r3,1(r2)
    3e84:	2006d43a 	srli	r3,r4,16
    3e88:	19c03fcc 	andi	r7,r3,255
    3e8c:	10c00083 	ldbu	r3,2(r2)
    3e90:	1806703a 	and	r3,r3,zero
    3e94:	180d883a 	mov	r6,r3
    3e98:	3807883a 	mov	r3,r7
    3e9c:	30c6b03a 	or	r3,r6,r3
    3ea0:	10c00085 	stb	r3,2(r2)
    3ea4:	200ed63a 	srli	r7,r4,24
    3ea8:	10c000c3 	ldbu	r3,3(r2)
    3eac:	1806703a 	and	r3,r3,zero
    3eb0:	180d883a 	mov	r6,r3
    3eb4:	3807883a 	mov	r3,r7
    3eb8:	30c6b03a 	or	r3,r6,r3
    3ebc:	10c000c5 	stb	r3,3(r2)
    3ec0:	29c03fcc 	andi	r7,r5,255
    3ec4:	10c00103 	ldbu	r3,4(r2)
    3ec8:	1806703a 	and	r3,r3,zero
    3ecc:	180d883a 	mov	r6,r3
    3ed0:	3807883a 	mov	r3,r7
    3ed4:	30c6b03a 	or	r3,r6,r3
    3ed8:	10c00105 	stb	r3,4(r2)
    3edc:	2806d23a 	srli	r3,r5,8
    3ee0:	19c03fcc 	andi	r7,r3,255
    3ee4:	10c00143 	ldbu	r3,5(r2)
    3ee8:	1806703a 	and	r3,r3,zero
    3eec:	180d883a 	mov	r6,r3
    3ef0:	3807883a 	mov	r3,r7
    3ef4:	30c6b03a 	or	r3,r6,r3
    3ef8:	10c00145 	stb	r3,5(r2)
    3efc:	2806d43a 	srli	r3,r5,16
    3f00:	19c03fcc 	andi	r7,r3,255
    3f04:	10c00183 	ldbu	r3,6(r2)
    3f08:	1806703a 	and	r3,r3,zero
    3f0c:	180d883a 	mov	r6,r3
    3f10:	3807883a 	mov	r3,r7
    3f14:	30c6b03a 	or	r3,r6,r3
    3f18:	10c00185 	stb	r3,6(r2)
    3f1c:	280ad63a 	srli	r5,r5,24
    3f20:	10c001c3 	ldbu	r3,7(r2)
    3f24:	1806703a 	and	r3,r3,zero
    3f28:	1809883a 	mov	r4,r3
    3f2c:	2807883a 	mov	r3,r5
    3f30:	20c6b03a 	or	r3,r4,r3
    3f34:	10c001c5 	stb	r3,7(r2)
   iioscope_init();
    3f38:	001022c0 	call	1022c <iioscope_init>

   return handle;
    3f3c:	e0bffc17 	ldw	r2,-16(fp)
}
    3f40:	e6fffd04 	addi	sp,fp,-12
    3f44:	dfc00417 	ldw	ra,16(sp)
    3f48:	df000317 	ldw	fp,12(sp)
    3f4c:	dc800217 	ldw	r18,8(sp)
    3f50:	dc400117 	ldw	r17,4(sp)
    3f54:	dc000017 	ldw	r16,0(sp)
    3f58:	dec00504 	addi	sp,sp,20
    3f5c:	f800283a 	ret

00003f60 <network_task>:


void network_task(uint32_t handle)
{
    3f60:	defffb04 	addi	sp,sp,-20
    3f64:	dfc00415 	stw	ra,16(sp)
    3f68:	df000315 	stw	fp,12(sp)
    3f6c:	df000304 	addi	fp,sp,12
    3f70:	e13ffd15 	stw	r4,-12(fp)
   network_ctx_t *ctx = (network_ctx_t*)handle;
    3f74:	e0bffd17 	ldw	r2,-12(fp)
    3f78:	e0bfff15 	stw	r2,-4(fp)
   uint32_t result;

   // RX DMA
   result = rx_dma_rearm(handle);
    3f7c:	e0bffd17 	ldw	r2,-12(fp)
    3f80:	1009883a 	mov	r4,r2
    3f84:	00008080 	call	808 <rx_dma_rearm>
    3f88:	e0bffe15 	stw	r2,-8(fp)

   // TX DMA
   result = tx_dma_rearm(handle);
    3f8c:	e0bffd17 	ldw	r2,-12(fp)
    3f90:	1009883a 	mov	r4,r2
    3f94:	0000a0c0 	call	a0c <tx_dma_rearm>
    3f98:	e0bffe15 	stw	r2,-8(fp)

   // processing
   tcp_ip_process_stack(handle);
    3f9c:	e13ffd17 	ldw	r4,-12(fp)
    3fa0:	0000bec0 	call	bec <tcp_ip_process_stack>

   //
   ip_task(handle);
    3fa4:	e13ffd17 	ldw	r4,-12(fp)
    3fa8:	0002e980 	call	2e98 <ip_task>

   if(ctx->app_enabled == 0)
    3fac:	e0ffff17 	ldw	r3,-4(fp)
    3fb0:	008001b4 	movhi	r2,6
    3fb4:	1099b604 	addi	r2,r2,26328
    3fb8:	1885883a 	add	r2,r3,r2
    3fbc:	10800003 	ldbu	r2,0(r2)
    3fc0:	10803fcc 	andi	r2,r2,255
    3fc4:	1000a61e 	bne	r2,zero,4260 <network_task+0x300>
   {
      ctx->timestamp = alt_timestamp();
    3fc8:	00288cc0 	call	288cc <alt_timestamp>
    3fcc:	1009883a 	mov	r4,r2
    3fd0:	180b883a 	mov	r5,r3
    3fd4:	e0ffff17 	ldw	r3,-4(fp)
    3fd8:	008001b4 	movhi	r2,6
    3fdc:	1099b644 	addi	r2,r2,26329
    3fe0:	1885883a 	add	r2,r3,r2
    3fe4:	21c03fcc 	andi	r7,r4,255
    3fe8:	10c00003 	ldbu	r3,0(r2)
    3fec:	1806703a 	and	r3,r3,zero
    3ff0:	180d883a 	mov	r6,r3
    3ff4:	3807883a 	mov	r3,r7
    3ff8:	30c6b03a 	or	r3,r6,r3
    3ffc:	10c00005 	stb	r3,0(r2)
    4000:	2006d23a 	srli	r3,r4,8
    4004:	19c03fcc 	andi	r7,r3,255
    4008:	10c00043 	ldbu	r3,1(r2)
    400c:	1806703a 	and	r3,r3,zero
    4010:	180d883a 	mov	r6,r3
    4014:	3807883a 	mov	r3,r7
    4018:	30c6b03a 	or	r3,r6,r3
    401c:	10c00045 	stb	r3,1(r2)
    4020:	2006d43a 	srli	r3,r4,16
    4024:	19c03fcc 	andi	r7,r3,255
    4028:	10c00083 	ldbu	r3,2(r2)
    402c:	1806703a 	and	r3,r3,zero
    4030:	180d883a 	mov	r6,r3
    4034:	3807883a 	mov	r3,r7
    4038:	30c6b03a 	or	r3,r6,r3
    403c:	10c00085 	stb	r3,2(r2)
    4040:	200ed63a 	srli	r7,r4,24
    4044:	10c000c3 	ldbu	r3,3(r2)
    4048:	1806703a 	and	r3,r3,zero
    404c:	180d883a 	mov	r6,r3
    4050:	3807883a 	mov	r3,r7
    4054:	30c6b03a 	or	r3,r6,r3
    4058:	10c000c5 	stb	r3,3(r2)
    405c:	29c03fcc 	andi	r7,r5,255
    4060:	10c00103 	ldbu	r3,4(r2)
    4064:	1806703a 	and	r3,r3,zero
    4068:	180d883a 	mov	r6,r3
    406c:	3807883a 	mov	r3,r7
    4070:	30c6b03a 	or	r3,r6,r3
    4074:	10c00105 	stb	r3,4(r2)
    4078:	2806d23a 	srli	r3,r5,8
    407c:	19c03fcc 	andi	r7,r3,255
    4080:	10c00143 	ldbu	r3,5(r2)
    4084:	1806703a 	and	r3,r3,zero
    4088:	180d883a 	mov	r6,r3
    408c:	3807883a 	mov	r3,r7
    4090:	30c6b03a 	or	r3,r6,r3
    4094:	10c00145 	stb	r3,5(r2)
    4098:	2806d43a 	srli	r3,r5,16
    409c:	19c03fcc 	andi	r7,r3,255
    40a0:	10c00183 	ldbu	r3,6(r2)
    40a4:	1806703a 	and	r3,r3,zero
    40a8:	180d883a 	mov	r6,r3
    40ac:	3807883a 	mov	r3,r7
    40b0:	30c6b03a 	or	r3,r6,r3
    40b4:	10c00185 	stb	r3,6(r2)
    40b8:	280ad63a 	srli	r5,r5,24
    40bc:	10c001c3 	ldbu	r3,7(r2)
    40c0:	1806703a 	and	r3,r3,zero
    40c4:	1809883a 	mov	r4,r3
    40c8:	2807883a 	mov	r3,r5
    40cc:	20c6b03a 	or	r3,r4,r3
    40d0:	10c001c5 	stb	r3,7(r2)
      if((ctx->timestamp - ctx->ts_start) > ctx->app_startup_delay)
    40d4:	e0bfff17 	ldw	r2,-4(fp)
    40d8:	00c001b4 	movhi	r3,6
    40dc:	18d9b604 	addi	r3,r3,26328
    40e0:	10c7883a 	add	r3,r2,r3
    40e4:	18c00017 	ldw	r3,0(r3)
    40e8:	180cd23a 	srli	r6,r3,8
    40ec:	00c001b4 	movhi	r3,6
    40f0:	18d9b704 	addi	r3,r3,26332
    40f4:	10c7883a 	add	r3,r2,r3
    40f8:	18c00017 	ldw	r3,0(r3)
    40fc:	18c03fcc 	andi	r3,r3,255
    4100:	1806963a 	slli	r3,r3,24
    4104:	1986b03a 	or	r3,r3,r6
    4108:	1809883a 	mov	r4,r3
    410c:	00c001b4 	movhi	r3,6
    4110:	18d9b704 	addi	r3,r3,26332
    4114:	10c7883a 	add	r3,r2,r3
    4118:	18c00017 	ldw	r3,0(r3)
    411c:	180cd23a 	srli	r6,r3,8
    4120:	00c001b4 	movhi	r3,6
    4124:	18d9b804 	addi	r3,r3,26336
    4128:	10c5883a 	add	r2,r2,r3
    412c:	10800017 	ldw	r2,0(r2)
    4130:	10803fcc 	andi	r2,r2,255
    4134:	1004963a 	slli	r2,r2,24
    4138:	1184b03a 	or	r2,r2,r6
    413c:	100b883a 	mov	r5,r2
    4140:	e0bfff17 	ldw	r2,-4(fp)
    4144:	00c001b4 	movhi	r3,6
    4148:	18d9b804 	addi	r3,r3,26336
    414c:	10c7883a 	add	r3,r2,r3
    4150:	18c00017 	ldw	r3,0(r3)
    4154:	1810d23a 	srli	r8,r3,8
    4158:	00c001b4 	movhi	r3,6
    415c:	18d9b904 	addi	r3,r3,26340
    4160:	10c7883a 	add	r3,r2,r3
    4164:	18c00017 	ldw	r3,0(r3)
    4168:	18c03fcc 	andi	r3,r3,255
    416c:	1806963a 	slli	r3,r3,24
    4170:	1a06b03a 	or	r3,r3,r8
    4174:	180d883a 	mov	r6,r3
    4178:	00c001b4 	movhi	r3,6
    417c:	18d9b904 	addi	r3,r3,26340
    4180:	10c7883a 	add	r3,r2,r3
    4184:	18c00017 	ldw	r3,0(r3)
    4188:	1810d23a 	srli	r8,r3,8
    418c:	00c001b4 	movhi	r3,6
    4190:	18d9ba04 	addi	r3,r3,26344
    4194:	10c5883a 	add	r2,r2,r3
    4198:	10800017 	ldw	r2,0(r2)
    419c:	10803fcc 	andi	r2,r2,255
    41a0:	1004963a 	slli	r2,r2,24
    41a4:	1204b03a 	or	r2,r2,r8
    41a8:	100f883a 	mov	r7,r2
